(dp1
S'ladybird'
p2
I0
sS'hats'
p3
I1
sS'yellow'
p4
I2
sS'four'
p5
I3
sS'hanging'
p6
I4
sS'trolley'
p7
I5
sS'glider'
p8
I6
sS'trousers'
p9
I7
sS'blanket'
p10
I9
sS'rise'
p11
I10
sS'vase'
p12
I96
sS'confetti'
p13
I12
sS'monkeys'
p14
I13
sS'hula-hoop'
p15
I14
sS'whisk'
p16
I15
sS'parrot'
p17
I16
sS'skills'
p18
I17
sS'crotch'
p19
I18
sS'employees'
p20
I19
sS'venus'
p21
I20
sS'clothes'
p22
I21
sS'bicycle'
p23
I22
sS'phones'
p24
I23
sS'feathers'
p25
I24
sS'horn'
p26
I25
sS'tires'
p27
I26
sS'talks'
p28
I876
sS'gator'
p29
I28
sS'street'
p30
I29
sS'cactus'
p31
I30
sS'panda'
p32
I31
sS'machines'
p33
I32
sS'blue'
p34
I33
sS'revolver'
p35
I34
sS'lights'
p36
I35
sS'glaciers'
p37
I36
sS'net'
p38
I37
sS'helmets'
p39
I38
sS'sinks'
p40
I39
sS'pancakes'
p41
I40
sS'men'
p42
I41
sS'studio'
p43
I42
sS'stares'
p44
I43
sS'crossbow'
p45
I44
sS'luggage'
p46
I45
sS'leaves'
p47
I46
sS'smoke'
p48
I47
sS'climber'
p49
I49
sS'straw'
p50
I50
sS'cylinder'
p51
I294
sS'strap'
p52
I52
sS'jackets'
p53
I53
sS'gorillas'
p54
I54
sS'cocaine'
p55
I55
sS'bra'
p56
I56
sS'scaffolding'
p57
I57
sS'sweater'
p58
I58
sS'coins'
p59
I59
sS'barks'
p60
I60
sS'call'
p61
I61
sS'calf'
p62
I62
sS'refection'
p63
I63
sS'demon'
p64
I1170
sS'crossbar'
p65
I65
sS'phone'
p66
I66
sS'hole'
p67
I67
sS'blindfold'
p68
I68
sS'room'
p69
I69
sS'work'
p70
I441
sS'worm'
p71
I71
sS'candlestick'
p72
I72
sS'locker'
p73
I73
sS'locket'
p74
I74
sS'grenade'
p75
I75
sS'cans'
p76
I298
sS'vodka'
p77
I77
sS'wand'
p78
I78
sS'dolphin'
p79
I79
sS'woodpecker'
p80
I80
sS'hog'
p81
I81
sS'nuts'
p82
I82
sS'machine'
p83
I83
sS'boats'
p84
I84
sS'cheetah'
p85
I85
sS'beach'
p86
I86
sS'pizza'
p87
I87
sS'poker'
p88
I88
sS'briefcase'
p89
I89
sS'mouths'
p90
I90
sS'ladder'
p91
I91
sS'lab'
p92
I92
sS'possum'
p93
I93
sS'passageway'
p94
I94
sS'sparkler'
p95
I95
sS'parallel'
p96
I97
sS'headdress'
p97
I98
sS'fedora'
p98
I99
sS'cigarettes'
p99
I100
sS'green'
p100
I101
sS'ambulance'
p101
I102
sS'wing'
p102
I103
sS'backdrop'
p103
I104
sS'wine'
p104
I105
sS'salon'
p105
I106
sS'popsicle'
p106
I107
sS'office'
p107
I108
sS'pelican'
p108
I109
sS'muffin'
p109
I110
sS'tent'
p110
I1573
sS'fall'
p111
I887
sS'oven'
p112
I112
sS'keyboard'
p113
I113
sS'windshield'
p114
I114
sS'fir'
p115
I116
sS'harmonica'
p116
I117
sS'backpack'
p117
I118
sS'avocado'
p118
I119
sS'crew'
p119
I120
sS'fin'
p120
I121
sS'coffee'
p121
I122
sS'beakers'
p122
I123
sS'workout'
p123
I124
sS'collide'
p124
I125
sS'band'
p125
I126
sS'caterpillar'
p126
I127
sS'giraffe'
p127
I128
sS'effects'
p128
I129
sS'bank'
p129
I130
sS'bread'
p130
I131
sS'meat'
p131
I132
sS'potatoes'
p132
I133
sS'rocks'
p133
I134
sS'volcano'
p134
I135
sS'meal'
p135
I136
sS'tumbleweed'
p136
I137
sS'snakes'
p137
I138
sS'garment'
p138
I139
sS'spider'
p139
I140
sS'sled'
p140
I141
sS'waffle'
p141
I142
sS'poncho'
p142
I143
sS'whip'
p143
I144
sS'rv'
p144
I145
sS'cameras'
p145
I146
sS'umbrellas'
p146
I1492
sS'washer'
p147
I148
sS'barrier'
p148
I149
sS'carcass'
p149
I150
sS'dracula'
p150
I151
sS'pumpkins'
p151
I152
sS'kit'
p152
I311
sS'lollipop'
p153
I154
sS'aisle'
p154
I155
sS'dentures'
p155
I156
sS'hoop'
p156
I157
sS'hook'
p157
I115
sS'scissors'
p158
I159
sS'hood'
p159
I160
sS'toy'
p160
I161
sS'fence'
p161
I897
sS'pane'
p162
I979
sS'elevator'
p163
I163
sS'master'
p164
I164
sS'blossoms'
p165
I165
sS'critter'
p166
I166
sS'legs'
p167
I167
sS'dogs'
p168
I168
sS'flamethrower'
p169
I169
sS'curtains'
p170
I170
sS'ceiling'
p171
I171
sS'bacon'
p172
I172
sS'tool'
p173
I173
sS'cereal'
p174
I174
sS'crawl'
p175
I175
sS'stocking'
p176
I176
sS'boarding'
p177
I177
sS'handcuffs'
p178
I179
sS'tree'
p179
I180
sS'scenes'
p180
I181
sS'shower'
p181
I182
sS'hologram'
p182
I183
sS'rag'
p183
I1146
sS'handkerchief'
p184
I185
sS'runner'
p185
I186
sS'ram'
p186
I187
sS'paddles'
p187
I188
sS'ginger'
p188
I189
sS'rat'
p189
I190
sS'headbands'
p190
I1500
sS'rotors'
p191
I192
sS'ocean'
p192
I315
sS'spade'
p193
I193
sS'ray'
p194
I194
sS'necktie'
p195
I195
sS'bleachers'
p196
I196
sS'racers'
p197
I197
sS'chest'
p198
I198
sS'chess'
p199
I199
sS'rodents'
p200
I200
sS'paintbrush'
p201
I201
sS'circles'
p202
I202
sS'blouse'
p203
I203
sS'object'
p204
I204
sS'llamas'
p205
I205
sS'exercises'
p206
I206
sS'coin'
p207
I207
sS'singer'
p208
I208
sS'duckling'
p209
I1269
sS'dog'
p210
I210
sS'doves'
p211
I211
sS'chariot'
p212
I212
sS'bomb'
p213
I213
sS'queen'
p214
I214
sS'colors'
p215
I215
sS'earth'
p216
I216
sS'sharks'
p217
I217
sS'capes'
p218
I218
sS'touches'
p219
I219
sS'geyser'
p220
I220
sS'spits'
p221
I221
sS'cougar'
p222
I222
sS'bush'
p223
I223
sS'excitedly'
p224
I224
sS'rice'
p225
I225
sS'rectangle'
p226
I226
sS'plate'
p227
I227
sS'cartwheels'
p228
I228
sS'stop'
p229
I229
sS'pocket'
p230
I230
sS'watermelon'
p231
I231
sS'cushion'
p232
I232
sS'bat'
p233
I233
sS'bar'
p234
I234
sS'covering'
p235
I235
sS'tights'
p236
I236
sS'boarder'
p237
I237
sS'pretzel'
p238
I238
sS'bag'
p239
I239
sS'discs'
p240
I240
sS'gears'
p241
I241
sS'steak'
p242
I242
sS'ears'
p243
I243
sS'liquor'
p244
I244
sS'noodles'
p245
I245
sS'hammer'
p246
I246
sS'pebbles'
p247
I247
sS'glass'
p248
I405
sS'feline'
p249
I248
sS'rings'
p250
I249
sS'mud'
p251
I250
sS'mug'
p252
I251
sS'finger'
p253
I252
sS'pets'
p254
I253
sS'yogurt'
p255
I254
sS'baboon'
p256
I255
sS'shields'
p257
I256
sS'360'
p258
I257
sS'claws'
p259
I258
sS'lotion'
p260
I259
sS'toothbrush'
p261
I260
sS'aquarium'
p262
I261
sS'wheelbarrow'
p263
I262
sS'modeling'
p264
I263
sS'convertible'
p265
I264
sS'kitchen'
p266
I265
sS'cot'
p267
I266
sS'cow'
p268
I267
sS'cob'
p269
I268
sS'receiver'
p270
I269
sS'pita'
p271
I270
sS'lenses'
p272
I271
sS'spear'
p273
I272
sS'elf'
p274
I273
sS'lanterns'
p275
I274
sS'towels'
p276
I275
sS'trust'
p277
I276
sS'headlights'
p278
I277
sS'bathroom'
p279
I278
sS'ropes'
p280
I279
sS'three'
p281
I280
sS'blower'
p282
I281
sS'submarine'
p283
I282
sS'beer'
p284
I283
sS'trigger'
p285
I284
sS'stadium'
p286
I285
sS'dots'
p287
I286
sS'drugs'
p288
I287
sS'lift'
p289
I288
sS'teapot'
p290
I289
sS'tank'
p291
I290
sS'lizard'
p292
I291
sS'property'
p293
I292
sS'anchor'
p294
I293
sS'seven'
p295
I51
sS'cane'
p296
I295
sS'handrail'
p297
I296
sS'sticker'
p298
I297
sS'cone'
p299
I76
sS'violin'
p300
I299
sS'mouse'
p301
I300
sS'crusaders'
p302
I301
sS'bottles'
p303
I302
sS'vegetable'
p304
I303
sS'couple'
p305
I304
sS'bells'
p306
I305
sS'wheel'
p307
I306
sS'satellite'
p308
I1292
sS'rail'
p309
I308
sS'microphone'
p310
I1518
sS'rain'
p311
I310
sS'hand'
p312
I153
sS'waterfall'
p313
I312
sS'bandannas'
p314
I313
sS'butter'
p315
I314
sS'skids'
p316
I657
sS'toque'
p317
I316
sS'laptop'
p318
I317
sS'rodent'
p319
I318
sS'serviette'
p320
I319
sS'goggles'
p321
I320
sS'human'
p322
I321
sS'spectacles'
p323
I322
sS'hills'
p324
I323
sS'character'
p325
I324
sS'hay'
p326
I325
sS'spread'
p327
I326
sS'board'
p328
I327
sS'prison'
p329
I328
sS'hat'
p330
I329
sS'looks'
p331
I1560
sS'caps'
p332
I330
sS'boxes'
p333
I331
sS'spanner'
p334
I332
sS'cape'
p335
I333
sS'gift'
p336
I334
sS'soap'
p337
I1521
sS'pavement'
p338
I336
sS'steps'
p339
I337
sS'right'
p340
I338
sS'deal'
p341
I339
sS'crown'
p342
I340
sS'crows'
p343
I341
sS'intern'
p344
I342
sS'purple'
p345
I343
sS'fox'
p346
I344
sS'rhino'
p347
I345
sS'FRAMEQAtile'
p348
I346
sS'treadmill'
p349
I347
sS'stingray'
p350
I348
sS'backhoe'
p351
I439
sS'peel'
p352
I350
sS'corn'
p353
I351
sS'trampoline'
p354
I352
sS'lamps'
p355
I353
sS'opossums'
p356
I354
sS'ribs'
p357
I355
sS'choke'
p358
I356
sS'magazine'
p359
I510
sS'crucifix'
p360
I358
sS'octopus'
p361
I359
sS'hospital'
p362
I360
sS'budgerigar'
p363
I362
sS'float'
p364
I363
sS'chimp'
p365
I364
sS'woodchucks'
p366
I365
sS'two'
p367
I932
sS'down'
p368
I367
sS'device'
p369
I1527
sS'bats'
p370
I369
sS'wrap'
p371
I370
sS'cafeteria'
p372
I371
sS'cubicle'
p373
I372
sS'rounds'
p374
I373
sS'piglet'
p375
I1219
sS'wan'
p376
I375
sS'fabric'
p377
I376
sS'dolphins'
p378
I1743
sS'fight'
p379
I377
sS'fork'
p380
I378
sS'fireworks'
p381
I379
sS'landing'
p382
I380
sS'diaper'
p383
I381
sS'otter'
p384
I382
sS'inside'
p385
I383
sS'coverings'
p386
I384
sS'boomerang'
p387
I385
sS'shooter'
p388
I386
sS'shimmies'
p389
I387
sS'covers'
p390
I388
sS'swatter'
p391
I389
sS'ship'
p392
I390
sS'lees'
p393
I391
sS'floor'
p394
I392
sS'stake'
p395
I393
sS'tip'
p396
I394
sS'dace'
p397
I395
sS'warehouse'
p398
I396
sS'tie'
p399
I397
sS'ribbons'
p400
I398
sS'roll'
p401
I399
sS'picture'
p402
I400
sS'lollipops'
p403
I401
sS'pizzas'
p404
I403
sS'meteor'
p405
I1736
sS'bullet'
p406
I404
sS'potato'
p407
I830
sS'jacket'
p408
I845
sS'gorilla'
p409
I847
sS'gown'
p410
I408
sS'dance'
p411
I409
sS'skis'
p412
I410
sS'switches'
p413
I411
sS'crocodile'
p414
I412
sS'skate'
p415
I413
sS'chair'
p416
I414
sS'toothpick'
p417
I415
sS'milk'
p418
I416
sS'varnish'
p419
I417
sS'flask'
p420
I418
sS'technique'
p421
I419
sS'bicycles'
p422
I420
sS'marks'
p423
I421
sS'melon'
p424
I422
sS'brown'
p425
I423
sS'string'
p426
I424
sS'kitten'
p427
I425
sS'tortillas'
p428
I426
sS'tricycle'
p429
I427
sS'malamute'
p430
I428
sS'turns'
p431
I429
sS'gun'
p432
I430
sS'gum'
p433
I431
sS'subway'
p434
I432
sS'guitars'
p435
I433
sS'team'
p436
I434
sS'lever'
p437
I435
sS'sidewalk'
p438
I1021
sS'dip'
p439
I437
sS'round'
p440
I438
sS'cord'
p441
I349
sS'bulldozer'
p442
I440
sS'blade'
p443
I70
sS'temples'
p444
I442
sS'bock'
p445
I443
sS'attic'
p446
I444
sS'trails'
p447
I445
sS'yolks'
p448
I1533
sS'sign'
p449
I447
sS'shirts'
p450
I448
sS'drinks'
p451
I449
sS'cargo'
p452
I450
sS'wildebeest'
p453
I451
sS'uniform'
p454
I452
sS'tarantula'
p455
I453
sS'orangutans'
p456
I454
sS'makeup'
p457
I455
sS'perpendicular'
p458
I456
sS'water'
p459
I457
sS'goldfish'
p460
I458
sS'box'
p461
I459
sS'boy'
p462
I460
sS'bot'
p463
I461
sS'bow'
p464
I462
sS'boa'
p465
I463
sS'pillow'
p466
I464
sS'tuxedo'
p467
I465
sS'cloak'
p468
I656
sS'kayak'
p469
I466
sS'snowboard'
p470
I467
sS'marker'
p471
I468
sS'hamburger'
p472
I469
sS'sledgehammer'
p473
I470
sS'streetcar'
p474
I471
sS'projector'
p475
I472
sS'working'
p476
I473
sS'lockers'
p477
I474
sS'tightly'
p478
I475
sS'vineyard'
p479
I476
sS'handler'
p480
I477
sS'intently'
p481
I478
sS'scratched'
p482
I479
sS'entrance'
p483
I480
sS'envelope'
p484
I481
sS'chocolate'
p485
I482
sS'olive'
p486
I483
sS'cases'
p487
I484
sS'blinds'
p488
I485
sS'mascot'
p489
I486
sS'fly'
p490
I487
sS'car'
p491
I488
sS'cap'
p492
I489
sS'cat'
p493
I490
sS'wands'
p494
I491
sS'soup'
p495
I1335
sS'can'
p496
I493
sS'cam'
p497
I494
sS'ferry'
p498
I495
sS'meatball'
p499
I496
sS'heart'
p500
I497
sS'dropper'
p501
I1360
sS'earphone'
p502
I499
sS'figure'
p503
I500
sS'frogs'
p504
I501
sS'chip'
p505
I502
sS'agent'
p506
I503
sS'parachute'
p507
I504
sS'drawer'
p508
I505
sS'capsules'
p509
I1548
sS'clothing'
p510
I507
sS'sailboat'
p511
I508
sS'necklaces'
p512
I509
sS'dinner'
p513
I357
sS'freezer'
p514
I511
sS'lounge'
p515
I512
sS'hamburgers'
p516
I953
sS'sword'
p517
I514
sS'elephant'
p518
I515
sS'pins'
p519
I516
sS't-shirts'
p520
I517
sS'map'
p521
I518
sS'product'
p522
I519
sS'laundry'
p523
I520
sS'mat'
p524
I521
sS'crashes'
p525
I522
sS'max'
p526
I523
sS'dive'
p527
I524
sS'motorway'
p528
I525
sS'date'
p529
I526
sS'dove'
p530
I527
sS'jellyfish'
p531
I528
sS'classroom'
p532
I529
sS'surfing'
p533
I530
sS'branches'
p534
I531
sS'drumsticks'
p535
I532
sS'wheelchair'
p536
I533
sS'mango'
p537
I534
sS'jail'
p538
I535
sS'basket'
p539
I536
sS'turnstile'
p540
I537
sS'wolves'
p541
I538
sS'gesture'
p542
I539
sS'shoes'
p543
I540
sS'ducklings'
p544
I541
sS'tablets'
p545
I542
sS'motions'
p546
I543
sS'shake'
p547
I544
sS'marshmallows'
p548
I545
sS'pointer'
p549
I546
sS'birds'
p550
I547
sS'statuettes'
p551
I548
sS'cola'
p552
I549
sS'group'
p553
I550
sS'accordion'
p554
I551
sS'chips'
p555
I1554
sS'platform'
p556
I553
sS'window'
p557
I554
sS'main'
p558
I555
sS'tiara'
p559
I556
sS'piglets'
p560
I557
sS'cutter'
p561
I558
sS'apron'
p562
I559
sS'lunch'
p563
I560
sS'tails'
p564
I561
sS'gate'
p565
I562
sS'bath'
p566
I366
sS'hall'
p567
I563
sS'barrow'
p568
I564
sS'wagon'
p569
I565
sS'scooters'
p570
I566
sS'drop'
p571
I567
sS'rock'
p572
I568
sS'turtle'
p573
I569
sS'trunks'
p574
I570
sS'elephants'
p575
I571
sS'staircase'
p576
I1468
sS'torch'
p577
I572
sS'goose'
p578
I573
sS'zebra'
p579
I574
sS'girl'
p580
I575
sS'pills'
p581
I576
sS'irons'
p582
I577
sS'canvas'
p583
I578
sS'container'
p584
I579
sS'squares'
p585
I580
sS'eagle'
p586
I581
sS'curbs'
p587
I582
sS'cars'
p588
I583
sS'cart'
p589
I584
sS'inhaler'
p590
I585
sS'headband'
p591
I586
sS'card'
p592
I588
sS'underwear'
p593
I589
sS'dinosaurs'
p594
I591
sS'backside'
p595
I592
sS'flare'
p596
I593
sS'headphones'
p597
I594
sS'cheese'
p598
I596
sS'mountainside'
p599
I597
sS'crib'
p600
I598
sS'one'
p601
I599
sS'rink'
p602
I600
sS'bobcat'
p603
I601
sS'ring'
p604
I602
sS'sheep'
p605
I604
sS'sheet'
p606
I605
sS'white'
p607
I606
sS'speaking'
p608
I607
sS'eyes'
p609
I608
sS'shawl'
p610
I609
sS'inmates'
p611
I610
sS'butt'
p612
I611
sS'flowers'
p613
I612
sS'holder'
p614
I613
sS'cracks'
p615
I614
sS'coats'
p616
I615
sS'knives'
p617
I616
sS'apples'
p618
I617
sS'cymbals'
p619
I618
sS'fruits'
p620
I619
sS'tractor'
p621
I620
sS'marijuana'
p622
I621
sS'alley'
p623
I622
sS'ant'
p624
I623
sS'pastry'
p625
I624
sS'breakfast'
p626
I625
sS'owls'
p627
I626
sS'zoo'
p628
I627
sS'snout'
p629
I628
sS'equipment'
p630
I629
sS'hookah'
p631
I630
sS'performance'
p632
I631
sS'tambourine'
p633
I632
sS'butterfly'
p634
I633
sS'hooves'
p635
I634
sS'track'
p636
I635
sS'buffet'
p637
I636
sS'sheets'
p638
I637
sS'boys'
p639
I638
sS'montage'
p640
I639
sS'napkin'
p641
I640
sS'drive'
p642
I641
sS'moose'
p643
I307
sS'stockings'
p644
I642
sS'hedgehog'
p645
I643
sS'shop'
p646
I644
sS'perch'
p647
I645
sS'shot'
p648
I646
sS'rottweiler'
p649
I909
sS'dandelions'
p650
I648
sS'shoe'
p651
I649
sS'slot'
p652
I650
sS'weapons'
p653
I681
sS'snack'
p654
I652
sS'dice'
p655
I653
sS'stair'
p656
I654
sS'cheeseburger'
p657
I655
sS'pump'
p658
I1049
sS'black'
p659
I658
sS'robe'
p660
I659
sS'pumpkin'
p661
I660
sS'bridge'
p662
I661
sS'rhinos'
p663
I662
sS'cannon'
p664
I663
sS'hedge'
p665
I664
sS'artist'
p666
I665
sS'penguins'
p667
I666
sS'bombs'
p668
I667
sS'tortilla'
p669
I590
sS'reels'
p670
I669
sS'microphones'
p671
I670
sS'concert'
p672
I603
sS'seat'
p673
I672
sS'cocktails'
p674
I673
sS'turntable'
p675
I674
sS'seal'
p676
I675
sS'dives'
p677
I676
sS'diver'
p678
I677
sS'palette'
p679
I678
sS'ways'
p680
I679
sS'ornament'
p681
I680
sS'spoons'
p682
I651
sS'outside'
p683
I682
sS'chimpanzees'
p684
I683
sS'skyscraper'
p685
I684
sS'screen'
p686
I685
sS'supermarket'
p687
I686
sS'guitar'
p688
I687
sS'jets'
p689
I688
sS'tub'
p690
I689
sS'comb'
p691
I690
sS'restroom'
p692
I691
sS'mane'
p693
I692
sS'holders'
p694
I693
sS'expression'
p695
I694
sS'stretches'
p696
I695
sS'stretcher'
p697
I696
sS'color'
p698
I697
sS'armchair'
p699
I698
sS'pot'
p700
I699
sS'jeans'
p701
I700
sS'pop'
p702
I701
sS'pole'
p703
I702
sS'boar'
p704
I703
sS'boat'
p705
I704
sS'sticks'
p706
I402
sS'lioness'
p707
I706
sS'stretch'
p708
I707
sS'toothpaste'
p709
I708
sS'coupe'
p710
I709
sS'workshop'
p711
I710
sS'helicopter'
p712
I711
sS'engine'
p713
I712
sS'lanes'
p714
I713
sS'squash'
p715
I714
sS'padlock'
p716
I715
sS'squirrels'
p717
I716
sS'case'
p718
I717
sS'turtles'
p719
I718
sS'winks'
p720
I719
sS'cash'
p721
I720
sS'trick'
p722
I721
sS'canoes'
p723
I722
sS'shops'
p724
I723
sS'slippers'
p725
I724
sS'vest'
p726
I725
sS'canoe'
p727
I726
sS'candies'
p728
I727
sS'purse'
p729
I728
sS'telephone'
p730
I729
sS'heels'
p731
I730
sS'helmet'
p732
I731
sS'missiles'
p733
I732
sS'paw'
p734
I733
sS'medic'
p735
I734
sS'bowl'
p736
I735
sS'figurine'
p737
I736
sS'catfish'
p738
I737
sS'pan'
p739
I738
sS'wires'
p740
I739
sS'barbel'
p741
I1010
sS'foam'
p742
I741
sS'seagulls'
p743
I1013
sS'drives'
p744
I743
sS'weed'
p745
I744
sS'cymbal'
p746
I745
sS'canister'
p747
I746
sS'clippers'
p748
I987
sS'statue'
p749
I1030
sS'wheels'
p750
I749
sS'hummingbird'
p751
I1044
sS'burrito'
p752
I1053
sS'groundhog'
p753
I752
sS'ranch'
p754
I753
sS'walls'
p755
I989
sS'breeze'
p756
I755
sS'bottle'
p757
I756
sS'foyer'
p758
I1087
sS'taxi'
p759
I758
sS'money'
p760
I759
sS'sights'
p761
I760
sS'griddle'
p762
I761
sS'sprayer'
p763
I762
sS'pirouetting'
p764
I763
sS'speed'
p765
I764
sS'instrument'
p766
I765
sS'decorator'
p767
I766
sS'pill'
p768
I767
sS'swim'
p769
I768
sS'mop'
p770
I769
sS'fridge'
p771
I770
sS'gestures'
p772
I771
sS'chainsaw'
p773
I772
sS'bandage'
p774
I773
sS'world'
p775
I774
sS'furniture'
p776
I775
sS'barbells'
p777
I776
sS'towel'
p778
I777
sS'bracelet'
p779
I778
sS'thighs'
p780
I1232
sS'claw'
p781
I780
sS'tower'
p782
I781
sS'kennel'
p783
I782
sS'auditorium'
p784
I783
sS'twelve'
p785
I784
sS'sneaker'
p786
I785
sS'grub'
p787
I786
sS'diving'
p788
I787
sS'pickles'
p789
I788
sS'wristband'
p790
I789
sS'tote'
p791
I790
sS'tube'
p792
I791
sS'cleanser'
p793
I792
sS'tuba'
p794
I793
sS'moon'
p795
I794
sS'cannabis'
p796
I795
sS'teardrop'
p797
I1307
sS'recorder'
p798
I1319
sS'knife'
p799
I798
sS'drums'
p800
I799
sS'stone'
p801
I800
sS'tease'
p802
I801
sS'jeep'
p803
I802
sS'island'
p804
I803
sS'mixer'
p805
I804
sS'gums'
p806
I805
sS'wolf'
p807
I806
sS'stand'
p808
I807
sS'ox'
p809
I808
sS'road'
p810
I809
sS'lands'
p811
I810
sS'headsets'
p812
I811
sS'garb'
p813
I812
sS'earring'
p814
I813
sS'harness'
p815
I814
sS'strip'
p816
I815
sS'foal'
p817
I740
sS'shells'
p818
I817
sS'cats'
p819
I818
sS'lions'
p820
I819
sS'stars'
p821
I820
sS'cloths'
p822
I821
sS'bubble'
p823
I822
sS'jug'
p824
I823
sS'kittens'
p825
I824
sS'eyeliner'
p826
I825
sS'cabinet'
p827
I826
sS'mice'
p828
I827
sS'swabs'
p829
I828
sS'thumps'
p830
I829
sS'appliance'
p831
I831
sS'bow-tie'
p832
I832
sS'strawberry'
p833
I833
sS'suitcase'
p834
I834
sS'blackbird'
p835
I835
sS'grass'
p836
I836
sS'toilet'
p837
I837
sS'vehicles'
p838
I838
sS'sunroof'
p839
I839
sS'deer'
p840
I840
sS'watches'
p841
I841
sS'pickax'
p842
I842
sS'ax'
p843
I843
sS'moves'
p844
I844
sS'beds'
p845
I406
sS'collie'
p846
I846
sS'tyrannosaurus'
p847
I407
sS'drivers'
p848
I848
sS'swords'
p849
I849
sS'roses'
p850
I850
sS'puppy'
p851
I851
sS'outfield'
p852
I852
sS'lapel'
p853
I853
sS'pillows'
p854
I854
sS'symbol'
p855
I855
sS'drift'
p856
I856
sS'herbs'
p857
I857
sS'podium'
p858
I858
sS'bullets'
p859
I859
sS'suited'
p860
I861
sS'torches'
p861
I862
sS'pool'
p862
I863
sS'alcohol'
p863
I864
sS'building'
p864
I865
sS'tricks'
p865
I866
sS'curve'
p866
I867
sS'gangway'
p867
I868
sS'strings'
p868
I870
sS'peacock'
p869
I871
sS'worms'
p870
I11
sS'spacecraft'
p871
I873
sS'disc'
p872
I874
sS'bulb'
p873
I1602
sS'dish'
p874
I27
sS'disk'
p875
I877
sS'carpet'
p876
I878
sS'apartment'
p877
I879
sS'tv'
p878
I880
sS'laughing'
p879
I779
sS'tail'
p880
I881
sS'woman'
p881
I882
sS'premium'
p882
I883
sS'song'
p883
I884
sS'screwdriver'
p884
I885
sS'baton'
p885
I886
sS'headgear'
p886
I111
sS'bubbles'
p887
I888
sS'blankly'
p888
I890
sS'dinosaur'
p889
I891
sS'saxophone'
p890
I892
sS'mammal'
p891
I893
sS'locomotive'
p892
I894
sS'cookies'
p893
I895
sS'rats'
p894
I896
sS'ten'
p895
I162
sS'tea'
p896
I898
sS'grabs'
p897
I899
sS'burger'
p898
I900
sS'design'
p899
I901
sS'pass'
p900
I902
sS'ribbon'
p901
I903
sS'creatures'
p902
I904
sS'dial'
p903
I905
sS'clock'
p904
I906
sS'sun'
p905
I907
sS'skid'
p906
I908
sS'unicycle'
p907
I910
sS'racing'
p908
I911
sS'guns'
p909
I912
sS'diapers'
p910
I913
sS'tracks'
p911
I914
sS'trunk'
p912
I915
sS'tortoise'
p913
I916
sS'miniature'
p914
I917
sS'airport'
p915
I918
sS'milkshake'
p916
I919
sS'hamster'
p917
I920
sS'pick'
p918
I921
sS'action'
p919
I922
sS'camcorder'
p920
I923
sS'trainer'
p921
I924
sS'limos'
p922
I925
sS'layer'
p923
I1608
sS'toys'
p924
I927
sS'suits'
p925
I1306
sS'dachshund'
p926
I929
sS'casket'
p927
I930
sS'donuts'
p928
I931
sS'poodle'
p929
I860
sS'raft'
p930
I933
sS'horses'
p931
I934
sS'diamond'
p932
I935
sS'door'
p933
I936
sS'flap'
p934
I937
sS'chimpanzee'
p935
I938
sS'flag'
p936
I939
sS'stethoscope'
p937
I940
sS'stick'
p938
I941
sS'coyote'
p939
I942
sS'mall'
p940
I943
sS'seagull'
p941
I944
sS'parasol'
p942
I945
sS'shark'
p943
I946
sS'pony'
p944
I947
sS'dragonfly'
p945
I948
sS'sunscreen'
p946
I949
sS'gallon'
p947
I950
sS'airplane'
p948
I951
sS'dress'
p949
I952
sS'earpiece'
p950
I513
sS'sequins'
p951
I954
sS'extinguisher'
p952
I955
sS'goal'
p953
I956
sS'speedboat'
p954
I957
sS'goat'
p955
I958
sS'wigs'
p956
I959
sS'creature'
p957
I960
sS'plant'
p958
I961
sS'sandwich'
p959
I962
sS'bags'
p960
I963
sS'waves'
p961
I964
sS'backyard'
p962
I965
sS'coat'
p963
I966
sS'racetrack'
p964
I967
sS'shore'
p965
I968
sS'chopsticks'
p966
I969
sS'egg'
p967
I970
sS'playing'
p968
I971
sS'pans'
p969
I972
sS'chicks'
p970
I973
sS'rifles'
p971
I974
sS'handlebars'
p972
I975
sS'stays'
p973
I976
sS'paper'
p974
I977
sS'dough'
p975
I978
sS'lasers'
p976
I671
sS'signs'
p977
I980
sS'clarinet'
p978
I981
sS'mattress'
p979
I982
sS'laces'
p980
I983
sS'sauce'
p981
I984
sS'someone'
p982
I985
sS'food'
p983
I986
sS'salamander'
p984
I747
sS'cupcake'
p985
I988
sS'snowball'
p986
I754
sS'foot'
p987
I990
sS'wash'
p988
I158
sS'nugget'
p989
I992
sS'man'
p990
I1498
sS'biscuits'
p991
I993
sS'trailer'
p992
I994
sS'lantern'
p993
I995
sS'dumbbells'
p994
I996
sS'accelerator'
p995
I997
sS'house'
p996
I998
sS'fish'
p997
I999
sS'foxes'
p998
I1000
sS'bouquets'
p999
I1001
sS'loops'
p1000
I1002
sS'harp'
p1001
I1003
sS'flower'
p1002
I1004
sS'lipstick'
p1003
I1005
sS'pigeon'
p1004
I1006
sS'dugout'
p1005
I1007
sS'fountain'
p1006
I1008
sS'hill'
p1007
I1009
sS'mittens'
p1008
I889
sS'highway'
p1009
I1011
sS'smock'
p1010
I1012
sS'driver'
p1011
I742
sS'pug'
p1012
I1014
sS'pub'
p1013
I1015
sS'bulls'
p1014
I1016
sS'cookie'
p1015
I1017
sS'acorn'
p1016
I1018
sS'put'
p1017
I1019
sS'pup'
p1018
I1020
sS'guy'
p1019
I436
sS'dishwasher'
p1020
I1022
sS'thread'
p1021
I1023
sS'seahorse'
p1022
I1024
sS'lemur'
p1023
I1025
sS'fruit'
p1024
I1026
sS'daisy'
p1025
I1027
sS'castle'
p1026
I1028
sS'porpoise'
p1027
I1029
sS'stairwell'
p1028
I748
sS'buffaloes'
p1029
I1031
sS'number'
p1030
I1032
sS'cups'
p1031
I1033
sS'speedometer'
p1032
I1034
sS'horse'
p1033
I1035
sS'jet'
p1034
I1036
sS'automobile'
p1035
I1037
sS'hamsters'
p1036
I1038
sS'broccoli'
p1037
I1579
sS'paint'
p1038
I1040
sS'leash'
p1039
I8
sS'station'
p1040
I1042
sS'stallions'
p1041
I1043
sS'show'
p1042
I647
sS'weave'
p1043
I750
sS'syrup'
p1044
I1045
sS'banana'
p1045
I1046
sS'store'
p1046
I1047
sS'catapult'
p1047
I1048
sS'needle'
p1048
I1050
sS'jordan'
p1049
I1051
sS'rifle'
p1050
I1052
sS'theater'
p1051
I751
sS'steaks'
p1052
I1054
sS'stairs'
p1053
I1055
sS'compartment'
p1054
I1056
sS'recording'
p1055
I1057
sS'stall'
p1056
I1058
sS'outdoors'
p1057
I1059
sS'dispenser'
p1058
I1060
sS'cleaner'
p1059
I1061
sS'uniforms'
p1060
I48
sS'chipmunk'
p1061
I1063
sS'juice'
p1062
I1064
sS'graffiti'
p1063
I1065
sS'wipers'
p1064
I1066
sS'lid'
p1065
I1067
sS'mountain'
p1066
I1068
sS'koala'
p1067
I1069
sS'dancing'
p1068
I1070
sS'pajamas'
p1069
I1331
sS'freshener'
p1070
I1072
sS'couch'
p1071
I1073
sS'lit'
p1072
I1074
sS'flares'
p1073
I1075
sS'lifts'
p1074
I1076
sS'sandwiches'
p1075
I1077
sS'nightie'
p1076
I1078
sS'gym'
p1077
I1079
sS'play'
p1078
I1080
sS'headset'
p1079
I1081
sS'eggs'
p1080
I1082
sS'singlet'
p1081
I1083
sS'cigarette'
p1082
I1084
sS'darts'
p1083
I1085
sS'machete'
p1084
I1086
sS'model'
p1085
I757
sS'refrigerator'
p1086
I1088
sS'mobile'
p1087
I1089
sS'cover'
p1088
I1090
sS'tongs'
p1089
I1091
sS'amphibian'
p1090
I1092
sS'barrel'
p1091
I1093
sS'tubes'
p1092
I1094
sS'stones'
p1093
I1095
sS'gold'
p1094
I1096
sS'barbell'
p1095
I1097
sS'housecoat'
p1096
I1098
sS'crayon'
p1097
I1099
sS'chock'
p1098
I1100
sS'blender'
p1099
I1101
sS'indicator'
p1100
I1102
sS'scooter'
p1101
I1103
sS'condom'
p1102
I1104
sS'circle'
p1103
I1105
sS'porcupine'
p1104
I1106
sS'triangle'
p1105
I1107
sS'dandelion'
p1106
I1108
sS'trees'
p1107
I1109
sS'ferret'
p1108
I1110
sS'basement'
p1109
I1111
sS'banner'
p1110
I1112
sS'motorcycles'
p1111
I1113
sS'sleeve'
p1112
I1114
sS'withe'
p1113
I1115
sS'tabby'
p1114
I1116
sS'lolly'
p1115
I1117
sS'gloves'
p1116
I1118
sS'corgi'
p1117
I1119
sS'river'
p1118
I1120
sS'bars'
p1119
I1121
sS'art'
p1120
I1122
sS'lion'
p1121
I1124
sS'sea'
p1122
I1125
sS'tender'
p1123
I1126
sS'close'
p1124
I1127
sS'outward'
p1125
I1128
sS'sportswear'
p1126
I1129
sS'barn'
p1127
I1130
sS'project'
p1128
I1131
sS'patties'
p1129
I1132
sS'gravestones'
p1130
I1133
sS'pictures'
p1131
I1134
sS'crosswalk'
p1132
I1135
sS'champagne'
p1133
I1136
sS'outfit'
p1134
I1137
sS'spray'
p1135
I1138
sS'zipper'
p1136
I1139
sS'prams'
p1137
I1140
sS'blazer'
p1138
I1141
sS'restaurant'
p1139
I1142
sS'eggplant'
p1140
I1143
sS'boxers'
p1141
I1144
sS'whole'
p1142
I1145
sS'guts'
p1143
I1642
sS'mini'
p1144
I184
sS'forklift'
p1145
I1147
sS'parakeets'
p1146
I872
sS'dances'
p1147
I1148
sS'bassinet'
p1148
I1062
sS'climbers'
p1149
I1150
sS'crisps'
p1150
I1151
sS'goats'
p1151
I1152
sS'belt'
p1152
I1153
sS'catwalk'
p1153
I1154
sS'suspenders'
p1154
I1155
sS'dun'
p1155
I1156
sS'stamp'
p1156
I1157
sS'peppers'
p1157
I1158
sS'brick'
p1158
I1159
sS'squirrel'
p1159
I1160
sS'racer'
p1160
I1161
sS'races'
p1161
I1162
sS'sleeves'
p1162
I1163
sS'ski'
p1163
I1649
sS'irises'
p1164
I1165
sS'crutch'
p1165
I1166
sS'rope'
p1166
I1167
sS'loop'
p1167
I1168
sS'moth'
p1168
I1169
sS'motors'
p1169
I64
sS'ducks'
p1170
I1171
sS'rig'
p1171
I1172
sS'rib'
p1172
I1173
sS'shirt'
p1173
I1174
sS'concoction'
p1174
I1175
sS'corridor'
p1175
I1176
sS'hallway'
p1176
I1177
sS'strips'
p1177
I1178
sS'snail'
p1178
I1179
sS'keys'
p1179
I1180
sS'cigar'
p1180
I1181
sS'desks'
p1181
I1182
sS'user'
p1182
I1183
sS'sandals'
p1183
I1184
sS'stack'
p1184
I1185
sS'beanie'
p1185
I1186
sS'noodle'
p1186
I1187
sS'person'
p1187
I1188
sS'flags'
p1188
I1189
sS'machinery'
p1189
I1190
sS'eyeglasses'
p1190
I1192
sS'carport'
p1191
I1193
sS'pigeons'
p1192
I1194
sS'desk'
p1193
I1655
sS'shape'
p1194
I1196
sS'jumpsuit'
p1195
I1197
sS'goblet'
p1196
I1198
sS'tablet'
p1197
I1199
sS'cup'
p1198
I1200
sS'workers'
p1199
I1201
sS'signals'
p1200
I1202
sS'cub'
p1201
I1203
sS'bin'
p1202
I1204
sS'doors'
p1203
I1205
sS'skateboards'
p1204
I1206
sS'bib'
p1205
I1207
sS'manatee'
p1206
I1208
sS'game'
p1207
I1209
sS'blackjack'
p1208
I1210
sS'wings'
p1209
I1211
sS'flannel'
p1210
I1212
sS'disks'
p1211
I1213
sS'glove'
p1212
I1214
sS'banknotes'
p1213
I1215
sS'eel'
p1214
I1216
sS'walrus'
p1215
I1217
sS'sprinklers'
p1216
I1218
sS'cones'
p1217
I374
sS'brakes'
p1218
I1220
sS'sorbet'
p1219
I1221
sS'lips'
p1220
I1222
sS'grenades'
p1221
I1223
sS'ornaments'
p1222
I1224
sS'mirror'
p1223
I1225
sS'candle'
p1224
I1226
sS'saucer'
p1225
I1227
sS'jewelry'
p1226
I1228
sS'pet'
p1227
I1229
sS'singing'
p1228
I1363
sS'pen'
p1229
I1231
sS'nose'
p1230
I705
sS'run'
p1231
I1233
sS'rapping'
p1232
I1234
sS'jumps'
p1233
I1235
sS'costumes'
p1234
I1236
sS'step'
p1235
I1237
sS'lounges'
p1236
I1238
sS'alleyway'
p1237
I1239
sS'raspberry'
p1238
I1240
sS'candy'
p1239
I1661
sS'goods'
p1240
I1241
sS'hatchet'
p1241
I1242
sS'gratings'
p1242
I1243
sS'range'
p1243
I1244
sS'block'
p1244
I1245
sS'seating'
p1245
I1246
sS'frames'
p1246
I1247
sS'rolls'
p1247
I1248
sS'jockey'
p1248
I1249
sS'yo-yo'
p1249
I1250
sS'arcade'
p1250
I1251
sS'batons'
p1251
I1252
sS'sock'
p1252
I1253
sS'sneaks'
p1253
I1254
sS'suit'
p1254
I1255
sS'mountains'
p1255
I1256
sS't-shirt'
p1256
I1257
sS'cloth'
p1257
I1258
sS'toucan'
p1258
I1259
sS'line'
p1259
I1261
sS'penguin'
p1260
I1262
sS'skull'
p1261
I1263
sS'fries'
p1262
I1264
sS'planet'
p1263
I1265
sS'cartwheel'
p1264
I1266
sS'groove'
p1265
I1267
sS'camp'
p1266
I209
sS'geese'
p1267
I1270
sS'curb'
p1268
I1271
sS'cafe'
p1269
I1272
sS'hyena'
p1270
I1273
sS'lemon'
p1271
I1274
sS'upstage'
p1272
I1275
sS'kirk'
p1273
I1276
sS'parlor'
p1274
I1277
sS'parakeet'
p1275
I1278
sS'aprons'
p1276
I1279
sS'mayonnaise'
p1277
I1280
sS'tarp'
p1278
I1281
sS'pandas'
p1279
I1282
sS'draw'
p1280
I1283
sS'mustard'
p1281
I1284
sS'robots'
p1282
I1285
sS'lens'
p1283
I1286
sS'insect'
p1284
I1287
sS'earphones'
p1285
I1288
sS'lane'
p1286
I1289
sS'fighter'
p1287
I1290
sS'blinks'
p1288
I1291
sS'beverage'
p1289
I1293
sS'dot'
p1290
I1294
sS'parrots'
p1291
I1378
sS'berries'
p1292
I1296
sS'scroll'
p1293
I1297
sS'desserts'
p1294
I1298
sS'groceries'
p1295
I1299
sS'snowmobile'
p1296
I1300
sS'dumbbell'
p1297
I1301
sS'windowsill'
p1298
I1302
sS'peanut'
p1299
I1303
sS'mosque'
p1300
I1304
sS'tadpole'
p1301
I1674
sS'mower'
p1302
I928
sS'stable'
p1303
I1308
sS'fences'
p1304
I1309
sS'garden'
p1305
I1310
sS'ukulele'
p1306
I1311
sS'ladle'
p1307
I1312
sS'dessert'
p1308
I1313
sS'kitty'
p1309
I1314
sS'wave'
p1310
I1315
sS'spoon'
p1311
I1316
sS'trough'
p1312
I1317
sS'llama'
p1313
I1318
sS'forks'
p1314
I797
sS'exits'
p1315
I1320
sS'button'
p1316
I1321
sS'race'
p1317
I1322
sS'snails'
p1318
I1323
sS'rack'
p1319
I1324
sS'booty'
p1320
I1325
sS'flashlights'
p1321
I1326
sS'crow'
p1322
I1327
sS'boots'
p1323
I1328
sS'jump'
p1324
I1329
sS'booth'
p1325
I1330
sS'spaghetti'
p1326
I1071
sS'cupcakes'
p1327
I1332
sS'plays'
p1328
I1333
sS'blobs'
p1329
I1334
sS'wallet'
p1330
I492
sS'espresso'
p1331
I1336
sS'clipboard'
p1332
I1337
sS'ammunition'
p1333
I1338
sS'bird'
p1334
I1339
sS'exercise'
p1335
I1340
sS'scenery'
p1336
I1341
sS'toast'
p1337
I1342
sS'kangaroo'
p1338
I1343
sS'commercial'
p1339
I1344
sS'scythe'
p1340
I1345
sS'objects'
p1341
I1346
sS'sink'
p1342
I1347
sS'pancake'
p1343
I1348
sS'cab'
p1344
I1349
sS'roof'
p1345
I1350
sS'shades'
p1346
I1351
sS'products'
p1347
I1352
sS'orangutan'
p1348
I1353
sS'popcorn'
p1349
I1354
sS'pajama'
p1350
I1355
sS'wig'
p1351
I1356
sS'shovel'
p1352
I1357
sS'apple'
p1353
I1358
sS'sparklers'
p1354
I1359
sS'performer'
p1355
I498
sS'duck'
p1356
I1361
sS'walruses'
p1357
I1362
sS'tools'
p1358
I1230
sS'gateway'
p1359
I1364
sS'ape'
p1360
I1365
sS'nest'
p1361
I1366
sS'sketchbook'
p1362
I1367
sS'chocolates'
p1363
I1368
sS'frog'
p1364
I1369
sS'crab'
p1365
I1370
sS'vehicle'
p1366
I1371
sS'eagles'
p1367
I1372
sS'pencil'
p1368
I1373
sS'pike'
p1369
I1686
sS'musician'
p1370
I1375
sS'missile'
p1371
I1376
sS'train'
p1372
I1377
sS'armadillo'
p1373
I1295
sS'rabbit'
p1374
I1379
sS'baby'
p1375
I1380
sS'women'
p1376
I1381
sS'balls'
p1377
I1382
sS'animals'
p1378
I1383
sS'salad'
p1379
I1384
sS'tunnel'
p1380
I1385
sS'challenge'
p1381
I1386
sS'donut'
p1382
I1387
sS'carrot'
p1383
I1396
sS'drill'
p1384
I1389
sS'drops'
p1385
I1390
sS'coffin'
p1386
I1391
sS'snacks'
p1387
I1392
sS'ferrets'
p1388
I1393
sS'lock'
p1389
I1394
sS'pieces'
p1390
I1395
sS'tag'
p1391
I1388
sS'bend'
p1392
I1397
sS'suds'
p1393
I1398
sS'bones'
p1394
I1399
sS'sunglasses'
p1395
I1400
sS'paws'
p1396
I1401
sS'trumpet'
p1397
I1402
sS'lamb'
p1398
I1403
sS'sit'
p1399
I1404
sS'skirt'
p1400
I1405
sS'bungee'
p1401
I1406
sS'six'
p1402
I1407
sS'formations'
p1403
I1408
sS'tightrope'
p1404
I1409
sS'lamp'
p1405
I1410
sS'husky'
p1406
I1740
sS'animal'
p1407
I1411
sS'typewriter'
p1408
I1412
sS'contraption'
p1409
I1413
sS'buildings'
p1410
I1414
sS'blocks'
p1411
I1415
sS'farm'
p1412
I1416
sS'watch'
p1413
I1417
sS'masks'
p1414
I1418
sS'paintball'
p1415
I1419
sS'notebook'
p1416
I1420
sS'ties'
p1417
I1421
sS'cabbage'
p1418
I1422
sS'hawk'
p1419
I1423
sS'tomato'
p1420
I1424
sS'sculptures'
p1421
I1425
sS'light'
p1422
I1426
sS'counter'
p1423
I1427
sS'lines'
p1424
I1428
sS'robot'
p1425
I1429
sS'bakery'
p1426
I1430
sS'necklace'
p1427
I1431
sS'martini'
p1428
I1432
sS'octopuses'
p1429
I1433
sS'move'
p1430
I1434
sS'spatula'
p1431
I1435
sS'costume'
p1432
I1436
sS'horns'
p1433
I1437
sS'iguana'
p1434
I1438
sS'twirls'
p1435
I1439
sS'sill'
p1436
I1440
sS'broom'
p1437
I1441
sS'ships'
p1438
I1442
sS'pugs'
p1439
I1443
sS'instruments'
p1440
I1444
sS'orange'
p1441
I1445
sS'flour'
p1442
I1446
sS'material'
p1443
I361
sS'runs'
p1444
I1448
sS'oranges'
p1445
I1449
sS'dock'
p1446
I1450
sS'snake'
p1447
I1451
sS'kiss'
p1448
I1452
sS'hands'
p1449
I1453
sS'front'
p1450
I1454
sS'jaguar'
p1451
I1455
sS'cage'
p1452
I1456
sS'tram'
p1453
I1457
sS'slide'
p1454
I1458
sS'lingerie'
p1455
I1459
sS'trap'
p1456
I1460
sS'180'
p1457
I1041
sS'tray'
p1458
I1462
sS'glasses'
p1459
I1463
sS'globe'
p1460
I1464
sS'puppets'
p1461
I1465
sS'sweatshirt'
p1462
I1466
sS'hippopotamus'
p1463
I1467
sS'cocktail'
p1464
I1123
sS'armor'
p1465
I1469
sS'terrapins'
p1466
I1470
sS'performs'
p1467
I1471
sS'wick'
p1468
I1472
sS'red'
p1469
I1473
sS'buds'
p1470
I816
sS'umbrella'
p1471
I1474
sS'knuckles'
p1472
I1702
sS'pendant'
p1473
I1476
sS'dumpster'
p1474
I1477
sS'retriever'
p1475
I1478
sS'backwards'
p1476
I1479
sS'spill'
p1477
I1480
sS'mortar'
p1478
I1481
sS'skateboard'
p1479
I1482
sS'stride'
p1480
I1483
sS'pigs'
p1481
I1484
sS'ashtray'
p1482
I1558
sS'sabers'
p1483
I1485
sS'scarf'
p1484
I1486
sS'bouquet'
p1485
I1487
sS'sack'
p1486
I1488
sS'bonnet'
p1487
I1489
sS'puppet'
p1488
I1490
sS'blows'
p1489
I1491
sS'braces'
p1490
I147
sS'monkey'
p1491
I1493
sS'bears'
p1492
I1494
sS'wrapper'
p1493
I1495
sS'decorations'
p1494
I1496
sS'motorcar'
p1495
I1497
sS'chases'
p1496
I178
sS'spaceship'
p1497
I1499
sS'shell'
p1498
I191
sS'gear'
p1499
I1501
sS'shorts'
p1500
I1502
sS'bulldog'
p1501
I1503
sS'shelf'
p1502
I1504
sS'xylophone'
p1503
I1505
sS'motorcycle'
p1504
I1506
sS'photograph'
p1505
I1507
sS'shampoo'
p1506
I1508
sS'bed'
p1507
I1509
sS'bee'
p1508
I1510
sS'firework'
p1509
I1511
sS'candles'
p1510
I1512
sS'sculpture'
p1511
I1513
sS'wakes'
p1512
I1514
sS'platypus'
p1513
I1515
sS'carrots'
p1514
I1516
sS'tide'
p1515
I1517
sS'clove'
p1516
I309
sS'dishes'
p1517
I1519
sS'truck'
p1518
I1520
sS'divers'
p1519
I335
sS'manor'
p1520
I1522
sS'passionately'
p1521
I1523
sS'firecrackers'
p1522
I1524
sS'petals'
p1523
I1525
sS'eight'
p1524
I1526
sS'sedan'
p1525
I368
sS'lobby'
p1526
I1622
sS'cellphone'
p1527
I1528
sS'stereo'
p1528
I1529
sS'face'
p1529
I1530
sS'pipe'
p1530
I1531
sS'painting'
p1531
I1532
sS'bedroom'
p1532
I446
sS'portfolio'
p1533
I1534
sS'chicken'
p1534
I1535
sS'shield'
p1535
I1536
sS'taps'
p1536
I1537
sS'tire'
p1537
I1538
sS'jar'
p1538
I1539
sS'stamps'
p1539
I1540
sS'buttons'
p1540
I1541
sS'bases'
p1541
I1542
sS'tape'
p1542
I1543
sS'employee'
p1543
I1544
sS'piano'
p1544
I1545
sS'photographs'
p1545
I1546
sS'cube'
p1546
I1547
sS'handle'
p1547
I506
sS'bear'
p1548
I1549
sS'beam'
p1549
I1550
sS'cubs'
p1550
I1551
sS'beak'
p1551
I1552
sS'bronco'
p1552
I1553
sS'handgun'
p1553
I552
sS'gray'
p1554
I1555
sS'hoses'
p1555
I1556
sS'trucks'
p1556
I1557
sS'belts'
p1557
I869
sS'mascara'
p1558
I1559
sS'saucers'
p1559
I595
sS'bucket'
p1560
I1561
sS'frame'
p1561
I1562
sS'humans'
p1562
I1563
sS'computer'
p1563
I1564
sS'driveway'
p1564
I1565
sS'tuxedos'
p1565
I1566
sS'wire'
p1566
I1567
sS'closet'
p1567
I1568
sS'purses'
p1568
I1569
sS'routine'
p1569
I1570
sS'chipmunks'
p1570
I1571
sS'pistol'
p1571
I1572
sS'pants'
p1572
I668
sS'opening'
p1573
I1574
sS'beverages'
p1574
I1575
sS'butts'
p1575
I1576
sS'courtyard'
p1576
I1577
sS'key'
p1577
I1578
sS'mailbox'
p1578
I1580
sS'drum'
p1579
I1581
sS'ramp'
p1580
I1582
sS'drug'
p1581
I1583
sS'doorway'
p1582
I1584
sS'puff'
p1583
I1585
sS'wall'
p1584
I1586
sS'denim'
p1585
I1587
sS'overcoat'
p1586
I1588
sS'gong'
p1587
I1589
sS'table'
p1588
I1590
sS'pullover'
p1589
I1591
sS'sari'
p1590
I1592
sS'gondola'
p1591
I1593
sS'treat'
p1592
I1594
sS'curtain'
p1593
I1595
sS'feather'
p1594
I1596
sS'antlers'
p1595
I1597
sS'mike'
p1596
I1598
sS'airplanes'
p1597
I1599
sS'axle'
p1598
I1600
sS'bull'
p1599
I1601
sS'smoking'
p1600
I875
sS'plaid'
p1601
I1603
sS'laser'
p1602
I1604
sS'corset'
p1603
I1605
sS'runway'
p1604
I1606
sS'bathtub'
p1605
I1607
sS'stuffing'
p1606
I926
sS'cereals'
p1607
I1609
sS'squid'
p1608
I1610
sS'surface'
p1609
I1611
sS'rooster'
p1610
I1612
sS'sheath'
p1611
I1613
sS'balloon'
p1612
I1614
sS'headlight'
p1613
I1615
sS'flasks'
p1614
I1616
sS'shuttle'
p1615
I1617
sS'party'
p1616
I1618
sS'pull-ups'
p1617
I1619
sS'ball'
p1618
I1620
sS'drink'
p1619
I1621
sS'collar'
p1620
I1039
sS'tighter'
p1621
I1623
sS'gutter'
p1622
I1624
sS'surfboard'
p1623
I1625
sS'shotgun'
p1624
I1626
sS'weapon'
p1625
I1627
sS'drone'
p1626
I1628
sS'twirl'
p1627
I1629
sS'bandanna'
p1628
I1630
sS'guitarist'
p1629
I1732
sS'bananas'
p1630
I1632
sS'rocket'
p1631
I1633
sS'camel'
p1632
I1634
sS'cloaks'
p1633
I1635
sS'hurdle'
p1634
I1636
sS'skill'
p1635
I1637
sS'lettuce'
p1636
I991
sS'transportation'
p1637
I1638
sS'flashlight'
p1638
I1639
sS'console'
p1639
I1640
sS'panther'
p1640
I1641
sS'bell'
p1641
I1268
sS'sky'
p1642
I1643
sS'lake'
p1643
I1644
sS'bench'
p1644
I1645
sS'crack'
p1645
I1646
sS'morgue'
p1646
I1647
sS'jars'
p1647
I1648
sS'balloons'
p1648
I1164
sS'knob'
p1649
I1650
sS'ledge'
p1650
I1651
sS'budgie'
p1651
I1652
sS'dryer'
p1652
I1653
sS'five'
p1653
I1654
sS'raincoats'
p1654
I1195
sS'propeller'
p1655
I1656
sS'pier'
p1656
I1657
sS'flamingo'
p1657
I1658
sS'chairs'
p1658
I1659
sS'sofa'
p1659
I1660
sS'clown'
p1660
I587
sS'garage'
p1661
I1662
sS'dancer'
p1662
I1149
sS'chick'
p1663
I1663
sS'works'
p1664
I1664
sS'heel'
p1665
I1665
sS'shed'
p1666
I1666
sS'footage'
p1667
I1667
sS'library'
p1668
I1668
sS'hair'
p1669
I1669
sS'almonds'
p1670
I1670
sS'home'
p1671
I1671
sS'leaf'
p1672
I1672
sS'kettle'
p1673
I1673
sS'floss'
p1674
I1305
sS'cradle'
p1675
I1675
sS'saucepan'
p1676
I1676
sS'earrings'
p1677
I1677
sS'kangaroos'
p1678
I1678
sS'leader'
p1679
I1679
sS'stairway'
p1680
I1680
sS'pepper'
p1681
I1681
sS'hose'
p1682
I1682
sS'whiskers'
p1683
I1683
sS'pasta'
p1684
I1684
sS'throne'
p1685
I1685
sS'iris'
p1686
I1374
sS'bills'
p1687
I1461
sS'boards'
p1688
I1687
sS'biscuit'
p1689
I1688
sS'nightclub'
p1690
I1689
sS'lizards'
p1691
I1690
sS'seeds'
p1692
I1691
sS'rug'
p1693
I1692
sS'puppies'
p1694
I1693
sS'swimming'
p1695
I1694
sS'owl'
p1696
I1695
sS'bugle'
p1697
I1696
sS'letters'
p1698
I1697
sS'skates'
p1699
I1447
sS'socks'
p1700
I1698
sS'headphone'
p1701
I1699
sS'guard'
p1702
I1700
sS'ketchup'
p1703
I1701
sS'uncontrollably'
p1704
I1475
sS'gerbil'
p1705
I1703
sS'vegetables'
p1706
I1704
sS'drumstick'
p1707
I1705
sS'cliff'
p1708
I1706
sS'cricket'
p1709
I1707
sS'buy'
p1710
I1708
sS'capsule'
p1711
I1709
sS'bus'
p1712
I1710
sS'sweatband'
p1713
I1711
sS'fountains'
p1714
I1712
sS'strawberries'
p1715
I1713
sS'bun'
p1716
I1714
sS'nut'
p1717
I1715
sS'bookshelf'
p1718
I1716
sS'bug'
p1719
I1717
sS'carriage'
p1720
I1718
sS'cello'
p1721
I1719
sS'monument'
p1722
I1720
sS'cake'
p1723
I1721
sS'piece'
p1724
I1722
sS'rabbits'
p1725
I1723
sS'pin'
p1726
I1724
sS'mask'
p1727
I1725
sS'handset'
p1728
I1726
sS'pie'
p1729
I1727
sS'pig'
p1730
I1728
sS'pix'
p1731
I1729
sS'pit'
p1732
I1730
sS'balcony'
p1733
I1731
sS'45'
p1734
I1631
sS'boot'
p1735
I1733
sS'smears'
p1736
I1734
sS'oar'
p1737
I1735
sS'branch'
p1738
I1260
sS'dresses'
p1739
I1737
sS'frisbee'
p1740
I1738
sS'star'
p1741
I1739
sS'peeks'
p1742
I796
sS'candyfloss'
p1743
I1741
sS'veil'
p1744
I1742
sS'prize'
p1745
I1191
sS'tomcat'
p1746
I1744
sS'laundromat'
p1747
I1745
s.