(dp1
I0
S'ladybird'
p2
sI1
S'hats'
p3
sI2
S'yellow'
p4
sI3
S'four'
p5
sI4
S'hanging'
p6
sI5
S'trolley'
p7
sI6
S'glider'
p8
sI7
S'trousers'
p9
sI8
S'leash'
p10
sI9
S'blanket'
p11
sI10
S'rise'
p12
sI11
S'worms'
p13
sI12
S'confetti'
p14
sI13
S'monkeys'
p15
sI14
S'hula-hoop'
p16
sI15
S'whisk'
p17
sI16
S'parrot'
p18
sI17
S'skills'
p19
sI18
S'crotch'
p20
sI19
S'employees'
p21
sI20
S'venus'
p22
sI21
S'clothes'
p23
sI22
S'bicycle'
p24
sI23
S'phones'
p25
sI24
S'feathers'
p26
sI25
S'horn'
p27
sI26
S'tires'
p28
sI27
S'dish'
p29
sI28
S'gator'
p30
sI29
S'street'
p31
sI30
S'cactus'
p32
sI31
S'panda'
p33
sI32
S'machines'
p34
sI33
S'blue'
p35
sI34
S'revolver'
p36
sI35
S'lights'
p37
sI36
S'glaciers'
p38
sI37
S'net'
p39
sI38
S'helmets'
p40
sI39
S'sinks'
p41
sI40
S'pancakes'
p42
sI41
S'men'
p43
sI42
S'studio'
p44
sI43
S'stares'
p45
sI44
S'crossbow'
p46
sI45
S'luggage'
p47
sI46
S'leaves'
p48
sI47
S'smoke'
p49
sI48
S'uniforms'
p50
sI49
S'climber'
p51
sI50
S'straw'
p52
sI51
S'seven'
p53
sI52
S'strap'
p54
sI53
S'jackets'
p55
sI54
S'gorillas'
p56
sI55
S'cocaine'
p57
sI56
S'bra'
p58
sI57
S'scaffolding'
p59
sI58
S'sweater'
p60
sI59
S'coins'
p61
sI60
S'barks'
p62
sI61
S'call'
p63
sI62
S'calf'
p64
sI63
S'refection'
p65
sI64
S'motors'
p66
sI65
S'crossbar'
p67
sI66
S'phone'
p68
sI67
S'hole'
p69
sI68
S'blindfold'
p70
sI69
S'room'
p71
sI70
S'blade'
p72
sI71
S'worm'
p73
sI72
S'candlestick'
p74
sI73
S'locker'
p75
sI74
S'locket'
p76
sI75
S'grenade'
p77
sI76
S'cone'
p78
sI77
S'vodka'
p79
sI78
S'wand'
p80
sI79
S'dolphin'
p81
sI80
S'woodpecker'
p82
sI81
S'hog'
p83
sI82
S'nuts'
p84
sI83
S'machine'
p85
sI84
S'boats'
p86
sI85
S'cheetah'
p87
sI86
S'beach'
p88
sI87
S'pizza'
p89
sI88
S'poker'
p90
sI89
S'briefcase'
p91
sI90
S'mouths'
p92
sI91
S'ladder'
p93
sI92
S'lab'
p94
sI93
S'possum'
p95
sI94
S'passageway'
p96
sI95
S'sparkler'
p97
sI96
S'vase'
p98
sI97
S'parallel'
p99
sI98
S'headdress'
p100
sI99
S'fedora'
p101
sI100
S'cigarettes'
p102
sI101
S'green'
p103
sI102
S'ambulance'
p104
sI103
S'wing'
p105
sI104
S'backdrop'
p106
sI105
S'wine'
p107
sI106
S'salon'
p108
sI107
S'popsicle'
p109
sI108
S'office'
p110
sI109
S'pelican'
p111
sI110
S'muffin'
p112
sI111
S'headgear'
p113
sI112
S'oven'
p114
sI113
S'keyboard'
p115
sI114
S'windshield'
p116
sI115
S'hook'
p117
sI116
S'fir'
p118
sI117
S'harmonica'
p119
sI118
S'backpack'
p120
sI119
S'avocado'
p121
sI120
S'crew'
p122
sI121
S'fin'
p123
sI122
S'coffee'
p124
sI123
S'beakers'
p125
sI124
S'workout'
p126
sI125
S'collide'
p127
sI126
S'band'
p128
sI127
S'caterpillar'
p129
sI128
S'giraffe'
p130
sI129
S'effects'
p131
sI130
S'bank'
p132
sI131
S'bread'
p133
sI132
S'meat'
p134
sI133
S'potatoes'
p135
sI134
S'rocks'
p136
sI135
S'volcano'
p137
sI136
S'meal'
p138
sI137
S'tumbleweed'
p139
sI138
S'snakes'
p140
sI139
S'garment'
p141
sI140
S'spider'
p142
sI141
S'sled'
p143
sI142
S'waffle'
p144
sI143
S'poncho'
p145
sI144
S'whip'
p146
sI145
S'rv'
p147
sI146
S'cameras'
p148
sI147
S'braces'
p149
sI148
S'washer'
p150
sI149
S'barrier'
p151
sI150
S'carcass'
p152
sI151
S'dracula'
p153
sI152
S'pumpkins'
p154
sI153
S'hand'
p155
sI154
S'lollipop'
p156
sI155
S'aisle'
p157
sI156
S'dentures'
p158
sI157
S'hoop'
p159
sI158
S'wash'
p160
sI159
S'scissors'
p161
sI160
S'hood'
p162
sI161
S'toy'
p163
sI162
S'ten'
p164
sI163
S'elevator'
p165
sI164
S'master'
p166
sI165
S'blossoms'
p167
sI166
S'critter'
p168
sI167
S'legs'
p169
sI168
S'dogs'
p170
sI169
S'flamethrower'
p171
sI170
S'curtains'
p172
sI171
S'ceiling'
p173
sI172
S'bacon'
p174
sI173
S'tool'
p175
sI174
S'cereal'
p176
sI175
S'crawl'
p177
sI176
S'stocking'
p178
sI177
S'boarding'
p179
sI178
S'chases'
p180
sI179
S'handcuffs'
p181
sI180
S'tree'
p182
sI181
S'scenes'
p183
sI182
S'shower'
p184
sI183
S'hologram'
p185
sI184
S'mini'
p186
sI185
S'handkerchief'
p187
sI186
S'runner'
p188
sI187
S'ram'
p189
sI188
S'paddles'
p190
sI189
S'ginger'
p191
sI190
S'rat'
p192
sI191
S'shell'
p193
sI192
S'rotors'
p194
sI193
S'spade'
p195
sI194
S'ray'
p196
sI195
S'necktie'
p197
sI196
S'bleachers'
p198
sI197
S'racers'
p199
sI198
S'chest'
p200
sI199
S'chess'
p201
sI200
S'rodents'
p202
sI201
S'paintbrush'
p203
sI202
S'circles'
p204
sI203
S'blouse'
p205
sI204
S'object'
p206
sI205
S'llamas'
p207
sI206
S'exercises'
p208
sI207
S'coin'
p209
sI208
S'singer'
p210
sI209
S'camp'
p211
sI210
S'dog'
p212
sI211
S'doves'
p213
sI212
S'chariot'
p214
sI213
S'bomb'
p215
sI214
S'queen'
p216
sI215
S'colors'
p217
sI216
S'earth'
p218
sI217
S'sharks'
p219
sI218
S'capes'
p220
sI219
S'touches'
p221
sI220
S'geyser'
p222
sI221
S'spits'
p223
sI222
S'cougar'
p224
sI223
S'bush'
p225
sI224
S'excitedly'
p226
sI225
S'rice'
p227
sI226
S'rectangle'
p228
sI227
S'plate'
p229
sI228
S'cartwheels'
p230
sI229
S'stop'
p231
sI230
S'pocket'
p232
sI231
S'watermelon'
p233
sI232
S'cushion'
p234
sI233
S'bat'
p235
sI234
S'bar'
p236
sI235
S'covering'
p237
sI236
S'tights'
p238
sI237
S'boarder'
p239
sI238
S'pretzel'
p240
sI239
S'bag'
p241
sI240
S'discs'
p242
sI241
S'gears'
p243
sI242
S'steak'
p244
sI243
S'ears'
p245
sI244
S'liquor'
p246
sI245
S'noodles'
p247
sI246
S'hammer'
p248
sI247
S'pebbles'
p249
sI248
S'feline'
p250
sI249
S'rings'
p251
sI250
S'mud'
p252
sI251
S'mug'
p253
sI252
S'finger'
p254
sI253
S'pets'
p255
sI254
S'yogurt'
p256
sI255
S'baboon'
p257
sI256
S'shields'
p258
sI257
S'360'
p259
sI258
S'claws'
p260
sI259
S'lotion'
p261
sI260
S'toothbrush'
p262
sI261
S'aquarium'
p263
sI262
S'wheelbarrow'
p264
sI263
S'modeling'
p265
sI264
S'convertible'
p266
sI265
S'kitchen'
p267
sI266
S'cot'
p268
sI267
S'cow'
p269
sI268
S'cob'
p270
sI269
S'receiver'
p271
sI270
S'pita'
p272
sI271
S'lenses'
p273
sI272
S'spear'
p274
sI273
S'elf'
p275
sI274
S'lanterns'
p276
sI275
S'towels'
p277
sI276
S'trust'
p278
sI277
S'headlights'
p279
sI278
S'bathroom'
p280
sI279
S'ropes'
p281
sI280
S'three'
p282
sI281
S'blower'
p283
sI282
S'submarine'
p284
sI283
S'beer'
p285
sI284
S'trigger'
p286
sI285
S'stadium'
p287
sI286
S'dots'
p288
sI287
S'drugs'
p289
sI288
S'lift'
p290
sI289
S'teapot'
p291
sI290
S'tank'
p292
sI291
S'lizard'
p293
sI292
S'property'
p294
sI293
S'anchor'
p295
sI294
S'cylinder'
p296
sI295
S'cane'
p297
sI296
S'handrail'
p298
sI297
S'sticker'
p299
sI298
S'cans'
p300
sI299
S'violin'
p301
sI300
S'mouse'
p302
sI301
S'crusaders'
p303
sI302
S'bottles'
p304
sI303
S'vegetable'
p305
sI304
S'couple'
p306
sI305
S'bells'
p307
sI306
S'wheel'
p308
sI307
S'moose'
p309
sI308
S'rail'
p310
sI309
S'clove'
p311
sI310
S'rain'
p312
sI311
S'kit'
p313
sI312
S'waterfall'
p314
sI313
S'bandannas'
p315
sI314
S'butter'
p316
sI315
S'ocean'
p317
sI316
S'toque'
p318
sI317
S'laptop'
p319
sI318
S'rodent'
p320
sI319
S'serviette'
p321
sI320
S'goggles'
p322
sI321
S'human'
p323
sI322
S'spectacles'
p324
sI323
S'hills'
p325
sI324
S'character'
p326
sI325
S'hay'
p327
sI326
S'spread'
p328
sI327
S'board'
p329
sI328
S'prison'
p330
sI329
S'hat'
p331
sI330
S'caps'
p332
sI331
S'boxes'
p333
sI332
S'spanner'
p334
sI333
S'cape'
p335
sI334
S'gift'
p336
sI335
S'divers'
p337
sI336
S'pavement'
p338
sI337
S'steps'
p339
sI338
S'right'
p340
sI339
S'deal'
p341
sI340
S'crown'
p342
sI341
S'crows'
p343
sI342
S'intern'
p344
sI343
S'purple'
p345
sI344
S'fox'
p346
sI345
S'rhino'
p347
sI346
S'FRAMEQAtile'
p348
sI347
S'treadmill'
p349
sI348
S'stingray'
p350
sI349
S'cord'
p351
sI350
S'peel'
p352
sI351
S'corn'
p353
sI352
S'trampoline'
p354
sI353
S'lamps'
p355
sI354
S'opossums'
p356
sI355
S'ribs'
p357
sI356
S'choke'
p358
sI357
S'dinner'
p359
sI358
S'crucifix'
p360
sI359
S'octopus'
p361
sI360
S'hospital'
p362
sI361
S'material'
p363
sI362
S'budgerigar'
p364
sI363
S'float'
p365
sI364
S'chimp'
p366
sI365
S'woodchucks'
p367
sI366
S'bath'
p368
sI367
S'down'
p369
sI368
S'sedan'
p370
sI369
S'bats'
p371
sI370
S'wrap'
p372
sI371
S'cafeteria'
p373
sI372
S'cubicle'
p374
sI373
S'rounds'
p375
sI374
S'cones'
p376
sI375
S'wan'
p377
sI376
S'fabric'
p378
sI377
S'fight'
p379
sI378
S'fork'
p380
sI379
S'fireworks'
p381
sI380
S'landing'
p382
sI381
S'diaper'
p383
sI382
S'otter'
p384
sI383
S'inside'
p385
sI384
S'coverings'
p386
sI385
S'boomerang'
p387
sI386
S'shooter'
p388
sI387
S'shimmies'
p389
sI388
S'covers'
p390
sI389
S'swatter'
p391
sI390
S'ship'
p392
sI391
S'lees'
p393
sI392
S'floor'
p394
sI393
S'stake'
p395
sI394
S'tip'
p396
sI395
S'dace'
p397
sI396
S'warehouse'
p398
sI397
S'tie'
p399
sI398
S'ribbons'
p400
sI399
S'roll'
p401
sI400
S'picture'
p402
sI401
S'lollipops'
p403
sI402
S'sticks'
p404
sI403
S'pizzas'
p405
sI404
S'bullet'
p406
sI405
S'glass'
p407
sI406
S'beds'
p408
sI407
S'tyrannosaurus'
p409
sI408
S'gown'
p410
sI409
S'dance'
p411
sI410
S'skis'
p412
sI411
S'switches'
p413
sI412
S'crocodile'
p414
sI413
S'skate'
p415
sI414
S'chair'
p416
sI415
S'toothpick'
p417
sI416
S'milk'
p418
sI417
S'varnish'
p419
sI418
S'flask'
p420
sI419
S'technique'
p421
sI420
S'bicycles'
p422
sI421
S'marks'
p423
sI422
S'melon'
p424
sI423
S'brown'
p425
sI424
S'string'
p426
sI425
S'kitten'
p427
sI426
S'tortillas'
p428
sI427
S'tricycle'
p429
sI428
S'malamute'
p430
sI429
S'turns'
p431
sI430
S'gun'
p432
sI431
S'gum'
p433
sI432
S'subway'
p434
sI433
S'guitars'
p435
sI434
S'team'
p436
sI435
S'lever'
p437
sI436
S'guy'
p438
sI437
S'dip'
p439
sI438
S'round'
p440
sI439
S'backhoe'
p441
sI440
S'bulldozer'
p442
sI441
S'work'
p443
sI442
S'temples'
p444
sI443
S'bock'
p445
sI444
S'attic'
p446
sI445
S'trails'
p447
sI446
S'bedroom'
p448
sI447
S'sign'
p449
sI448
S'shirts'
p450
sI449
S'drinks'
p451
sI450
S'cargo'
p452
sI451
S'wildebeest'
p453
sI452
S'uniform'
p454
sI453
S'tarantula'
p455
sI454
S'orangutans'
p456
sI455
S'makeup'
p457
sI456
S'perpendicular'
p458
sI457
S'water'
p459
sI458
S'goldfish'
p460
sI459
S'box'
p461
sI460
S'boy'
p462
sI461
S'bot'
p463
sI462
S'bow'
p464
sI463
S'boa'
p465
sI464
S'pillow'
p466
sI465
S'tuxedo'
p467
sI466
S'kayak'
p468
sI467
S'snowboard'
p469
sI468
S'marker'
p470
sI469
S'hamburger'
p471
sI470
S'sledgehammer'
p472
sI471
S'streetcar'
p473
sI472
S'projector'
p474
sI473
S'working'
p475
sI474
S'lockers'
p476
sI475
S'tightly'
p477
sI476
S'vineyard'
p478
sI477
S'handler'
p479
sI478
S'intently'
p480
sI479
S'scratched'
p481
sI480
S'entrance'
p482
sI481
S'envelope'
p483
sI482
S'chocolate'
p484
sI483
S'olive'
p485
sI484
S'cases'
p486
sI485
S'blinds'
p487
sI486
S'mascot'
p488
sI487
S'fly'
p489
sI488
S'car'
p490
sI489
S'cap'
p491
sI490
S'cat'
p492
sI491
S'wands'
p493
sI492
S'wallet'
p494
sI493
S'can'
p495
sI494
S'cam'
p496
sI495
S'ferry'
p497
sI496
S'meatball'
p498
sI497
S'heart'
p499
sI498
S'performer'
p500
sI499
S'earphone'
p501
sI500
S'figure'
p502
sI501
S'frogs'
p503
sI502
S'chip'
p504
sI503
S'agent'
p505
sI504
S'parachute'
p506
sI505
S'drawer'
p507
sI506
S'handle'
p508
sI507
S'clothing'
p509
sI508
S'sailboat'
p510
sI509
S'necklaces'
p511
sI510
S'magazine'
p512
sI511
S'freezer'
p513
sI512
S'lounge'
p514
sI513
S'earpiece'
p515
sI514
S'sword'
p516
sI515
S'elephant'
p517
sI516
S'pins'
p518
sI517
S't-shirts'
p519
sI518
S'map'
p520
sI519
S'product'
p521
sI520
S'laundry'
p522
sI521
S'mat'
p523
sI522
S'crashes'
p524
sI523
S'max'
p525
sI524
S'dive'
p526
sI525
S'motorway'
p527
sI526
S'date'
p528
sI527
S'dove'
p529
sI528
S'jellyfish'
p530
sI529
S'classroom'
p531
sI530
S'surfing'
p532
sI531
S'branches'
p533
sI532
S'drumsticks'
p534
sI533
S'wheelchair'
p535
sI534
S'mango'
p536
sI535
S'jail'
p537
sI536
S'basket'
p538
sI537
S'turnstile'
p539
sI538
S'wolves'
p540
sI539
S'gesture'
p541
sI540
S'shoes'
p542
sI541
S'ducklings'
p543
sI542
S'tablets'
p544
sI543
S'motions'
p545
sI544
S'shake'
p546
sI545
S'marshmallows'
p547
sI546
S'pointer'
p548
sI547
S'birds'
p549
sI548
S'statuettes'
p550
sI549
S'cola'
p551
sI550
S'group'
p552
sI551
S'accordion'
p553
sI552
S'handgun'
p554
sI553
S'platform'
p555
sI554
S'window'
p556
sI555
S'main'
p557
sI556
S'tiara'
p558
sI557
S'piglets'
p559
sI558
S'cutter'
p560
sI559
S'apron'
p561
sI560
S'lunch'
p562
sI561
S'tails'
p563
sI562
S'gate'
p564
sI563
S'hall'
p565
sI564
S'barrow'
p566
sI565
S'wagon'
p567
sI566
S'scooters'
p568
sI567
S'drop'
p569
sI568
S'rock'
p570
sI569
S'turtle'
p571
sI570
S'trunks'
p572
sI571
S'elephants'
p573
sI572
S'torch'
p574
sI573
S'goose'
p575
sI574
S'zebra'
p576
sI575
S'girl'
p577
sI576
S'pills'
p578
sI577
S'irons'
p579
sI578
S'canvas'
p580
sI579
S'container'
p581
sI580
S'squares'
p582
sI581
S'eagle'
p583
sI582
S'curbs'
p584
sI583
S'cars'
p585
sI584
S'cart'
p586
sI585
S'inhaler'
p587
sI586
S'headband'
p588
sI587
S'clown'
p589
sI588
S'card'
p590
sI589
S'underwear'
p591
sI590
S'tortilla'
p592
sI591
S'dinosaurs'
p593
sI592
S'backside'
p594
sI593
S'flare'
p595
sI594
S'headphones'
p596
sI595
S'saucers'
p597
sI596
S'cheese'
p598
sI597
S'mountainside'
p599
sI598
S'crib'
p600
sI599
S'one'
p601
sI600
S'rink'
p602
sI601
S'bobcat'
p603
sI602
S'ring'
p604
sI603
S'concert'
p605
sI604
S'sheep'
p606
sI605
S'sheet'
p607
sI606
S'white'
p608
sI607
S'speaking'
p609
sI608
S'eyes'
p610
sI609
S'shawl'
p611
sI610
S'inmates'
p612
sI611
S'butt'
p613
sI612
S'flowers'
p614
sI613
S'holder'
p615
sI614
S'cracks'
p616
sI615
S'coats'
p617
sI616
S'knives'
p618
sI617
S'apples'
p619
sI618
S'cymbals'
p620
sI619
S'fruits'
p621
sI620
S'tractor'
p622
sI621
S'marijuana'
p623
sI622
S'alley'
p624
sI623
S'ant'
p625
sI624
S'pastry'
p626
sI625
S'breakfast'
p627
sI626
S'owls'
p628
sI627
S'zoo'
p629
sI628
S'snout'
p630
sI629
S'equipment'
p631
sI630
S'hookah'
p632
sI631
S'performance'
p633
sI632
S'tambourine'
p634
sI633
S'butterfly'
p635
sI634
S'hooves'
p636
sI635
S'track'
p637
sI636
S'buffet'
p638
sI637
S'sheets'
p639
sI638
S'boys'
p640
sI639
S'montage'
p641
sI640
S'napkin'
p642
sI641
S'drive'
p643
sI642
S'stockings'
p644
sI643
S'hedgehog'
p645
sI644
S'shop'
p646
sI645
S'perch'
p647
sI646
S'shot'
p648
sI647
S'show'
p649
sI648
S'dandelions'
p650
sI649
S'shoe'
p651
sI650
S'slot'
p652
sI651
S'spoons'
p653
sI652
S'snack'
p654
sI653
S'dice'
p655
sI654
S'stair'
p656
sI655
S'cheeseburger'
p657
sI656
S'cloak'
p658
sI657
S'skids'
p659
sI658
S'black'
p660
sI659
S'robe'
p661
sI660
S'pumpkin'
p662
sI661
S'bridge'
p663
sI662
S'rhinos'
p664
sI663
S'cannon'
p665
sI664
S'hedge'
p666
sI665
S'artist'
p667
sI666
S'penguins'
p668
sI667
S'bombs'
p669
sI668
S'pants'
p670
sI669
S'reels'
p671
sI670
S'microphones'
p672
sI671
S'lasers'
p673
sI672
S'seat'
p674
sI673
S'cocktails'
p675
sI674
S'turntable'
p676
sI675
S'seal'
p677
sI676
S'dives'
p678
sI677
S'diver'
p679
sI678
S'palette'
p680
sI679
S'ways'
p681
sI680
S'ornament'
p682
sI681
S'weapons'
p683
sI682
S'outside'
p684
sI683
S'chimpanzees'
p685
sI684
S'skyscraper'
p686
sI685
S'screen'
p687
sI686
S'supermarket'
p688
sI687
S'guitar'
p689
sI688
S'jets'
p690
sI689
S'tub'
p691
sI690
S'comb'
p692
sI691
S'restroom'
p693
sI692
S'mane'
p694
sI693
S'holders'
p695
sI694
S'expression'
p696
sI695
S'stretches'
p697
sI696
S'stretcher'
p698
sI697
S'color'
p699
sI698
S'armchair'
p700
sI699
S'pot'
p701
sI700
S'jeans'
p702
sI701
S'pop'
p703
sI702
S'pole'
p704
sI703
S'boar'
p705
sI704
S'boat'
p706
sI705
S'nose'
p707
sI706
S'lioness'
p708
sI707
S'stretch'
p709
sI708
S'toothpaste'
p710
sI709
S'coupe'
p711
sI710
S'workshop'
p712
sI711
S'helicopter'
p713
sI712
S'engine'
p714
sI713
S'lanes'
p715
sI714
S'squash'
p716
sI715
S'padlock'
p717
sI716
S'squirrels'
p718
sI717
S'case'
p719
sI718
S'turtles'
p720
sI719
S'winks'
p721
sI720
S'cash'
p722
sI721
S'trick'
p723
sI722
S'canoes'
p724
sI723
S'shops'
p725
sI724
S'slippers'
p726
sI725
S'vest'
p727
sI726
S'canoe'
p728
sI727
S'candies'
p729
sI728
S'purse'
p730
sI729
S'telephone'
p731
sI730
S'heels'
p732
sI731
S'helmet'
p733
sI732
S'missiles'
p734
sI733
S'paw'
p735
sI734
S'medic'
p736
sI735
S'bowl'
p737
sI736
S'figurine'
p738
sI737
S'catfish'
p739
sI738
S'pan'
p740
sI739
S'wires'
p741
sI740
S'foal'
p742
sI741
S'foam'
p743
sI742
S'driver'
p744
sI743
S'drives'
p745
sI744
S'weed'
p746
sI745
S'cymbal'
p747
sI746
S'canister'
p748
sI747
S'salamander'
p749
sI748
S'stairwell'
p750
sI749
S'wheels'
p751
sI750
S'weave'
p752
sI751
S'theater'
p753
sI752
S'groundhog'
p754
sI753
S'ranch'
p755
sI754
S'snowball'
p756
sI755
S'breeze'
p757
sI756
S'bottle'
p758
sI757
S'model'
p759
sI758
S'taxi'
p760
sI759
S'money'
p761
sI760
S'sights'
p762
sI761
S'griddle'
p763
sI762
S'sprayer'
p764
sI763
S'pirouetting'
p765
sI764
S'speed'
p766
sI765
S'instrument'
p767
sI766
S'decorator'
p768
sI767
S'pill'
p769
sI768
S'swim'
p770
sI769
S'mop'
p771
sI770
S'fridge'
p772
sI771
S'gestures'
p773
sI772
S'chainsaw'
p774
sI773
S'bandage'
p775
sI774
S'world'
p776
sI775
S'furniture'
p777
sI776
S'barbells'
p778
sI777
S'towel'
p779
sI778
S'bracelet'
p780
sI779
S'laughing'
p781
sI780
S'claw'
p782
sI781
S'tower'
p783
sI782
S'kennel'
p784
sI783
S'auditorium'
p785
sI784
S'twelve'
p786
sI785
S'sneaker'
p787
sI786
S'grub'
p788
sI787
S'diving'
p789
sI788
S'pickles'
p790
sI789
S'wristband'
p791
sI790
S'tote'
p792
sI791
S'tube'
p793
sI792
S'cleanser'
p794
sI793
S'tuba'
p795
sI794
S'moon'
p796
sI795
S'cannabis'
p797
sI796
S'peeks'
p798
sI797
S'forks'
p799
sI798
S'knife'
p800
sI799
S'drums'
p801
sI800
S'stone'
p802
sI801
S'tease'
p803
sI802
S'jeep'
p804
sI803
S'island'
p805
sI804
S'mixer'
p806
sI805
S'gums'
p807
sI806
S'wolf'
p808
sI807
S'stand'
p809
sI808
S'ox'
p810
sI809
S'road'
p811
sI810
S'lands'
p812
sI811
S'headsets'
p813
sI812
S'garb'
p814
sI813
S'earring'
p815
sI814
S'harness'
p816
sI815
S'strip'
p817
sI816
S'buds'
p818
sI817
S'shells'
p819
sI818
S'cats'
p820
sI819
S'lions'
p821
sI820
S'stars'
p822
sI821
S'cloths'
p823
sI822
S'bubble'
p824
sI823
S'jug'
p825
sI824
S'kittens'
p826
sI825
S'eyeliner'
p827
sI826
S'cabinet'
p828
sI827
S'mice'
p829
sI828
S'swabs'
p830
sI829
S'thumps'
p831
sI830
S'potato'
p832
sI831
S'appliance'
p833
sI832
S'bow-tie'
p834
sI833
S'strawberry'
p835
sI834
S'suitcase'
p836
sI835
S'blackbird'
p837
sI836
S'grass'
p838
sI837
S'toilet'
p839
sI838
S'vehicles'
p840
sI839
S'sunroof'
p841
sI840
S'deer'
p842
sI841
S'watches'
p843
sI842
S'pickax'
p844
sI843
S'ax'
p845
sI844
S'moves'
p846
sI845
S'jacket'
p847
sI846
S'collie'
p848
sI847
S'gorilla'
p849
sI848
S'drivers'
p850
sI849
S'swords'
p851
sI850
S'roses'
p852
sI851
S'puppy'
p853
sI852
S'outfield'
p854
sI853
S'lapel'
p855
sI854
S'pillows'
p856
sI855
S'symbol'
p857
sI856
S'drift'
p858
sI857
S'herbs'
p859
sI858
S'podium'
p860
sI859
S'bullets'
p861
sI860
S'poodle'
p862
sI861
S'suited'
p863
sI862
S'torches'
p864
sI863
S'pool'
p865
sI864
S'alcohol'
p866
sI865
S'building'
p867
sI866
S'tricks'
p868
sI867
S'curve'
p869
sI868
S'gangway'
p870
sI869
S'belts'
p871
sI870
S'strings'
p872
sI871
S'peacock'
p873
sI872
S'parakeets'
p874
sI873
S'spacecraft'
p875
sI874
S'disc'
p876
sI875
S'smoking'
p877
sI876
S'talks'
p878
sI877
S'disk'
p879
sI878
S'carpet'
p880
sI879
S'apartment'
p881
sI880
S'tv'
p882
sI881
S'tail'
p883
sI882
S'woman'
p884
sI883
S'premium'
p885
sI884
S'song'
p886
sI885
S'screwdriver'
p887
sI886
S'baton'
p888
sI887
S'fall'
p889
sI888
S'bubbles'
p890
sI889
S'mittens'
p891
sI890
S'blankly'
p892
sI891
S'dinosaur'
p893
sI892
S'saxophone'
p894
sI893
S'mammal'
p895
sI894
S'locomotive'
p896
sI895
S'cookies'
p897
sI896
S'rats'
p898
sI897
S'fence'
p899
sI898
S'tea'
p900
sI899
S'grabs'
p901
sI900
S'burger'
p902
sI901
S'design'
p903
sI902
S'pass'
p904
sI903
S'ribbon'
p905
sI904
S'creatures'
p906
sI905
S'dial'
p907
sI906
S'clock'
p908
sI907
S'sun'
p909
sI908
S'skid'
p910
sI909
S'rottweiler'
p911
sI910
S'unicycle'
p912
sI911
S'racing'
p913
sI912
S'guns'
p914
sI913
S'diapers'
p915
sI914
S'tracks'
p916
sI915
S'trunk'
p917
sI916
S'tortoise'
p918
sI917
S'miniature'
p919
sI918
S'airport'
p920
sI919
S'milkshake'
p921
sI920
S'hamster'
p922
sI921
S'pick'
p923
sI922
S'action'
p924
sI923
S'camcorder'
p925
sI924
S'trainer'
p926
sI925
S'limos'
p927
sI926
S'stuffing'
p928
sI927
S'toys'
p929
sI928
S'mower'
p930
sI929
S'dachshund'
p931
sI930
S'casket'
p932
sI931
S'donuts'
p933
sI932
S'two'
p934
sI933
S'raft'
p935
sI934
S'horses'
p936
sI935
S'diamond'
p937
sI936
S'door'
p938
sI937
S'flap'
p939
sI938
S'chimpanzee'
p940
sI939
S'flag'
p941
sI940
S'stethoscope'
p942
sI941
S'stick'
p943
sI942
S'coyote'
p944
sI943
S'mall'
p945
sI944
S'seagull'
p946
sI945
S'parasol'
p947
sI946
S'shark'
p948
sI947
S'pony'
p949
sI948
S'dragonfly'
p950
sI949
S'sunscreen'
p951
sI950
S'gallon'
p952
sI951
S'airplane'
p953
sI952
S'dress'
p954
sI953
S'hamburgers'
p955
sI954
S'sequins'
p956
sI955
S'extinguisher'
p957
sI956
S'goal'
p958
sI957
S'speedboat'
p959
sI958
S'goat'
p960
sI959
S'wigs'
p961
sI960
S'creature'
p962
sI961
S'plant'
p963
sI962
S'sandwich'
p964
sI963
S'bags'
p965
sI964
S'waves'
p966
sI965
S'backyard'
p967
sI966
S'coat'
p968
sI967
S'racetrack'
p969
sI968
S'shore'
p970
sI969
S'chopsticks'
p971
sI970
S'egg'
p972
sI971
S'playing'
p973
sI972
S'pans'
p974
sI973
S'chicks'
p975
sI974
S'rifles'
p976
sI975
S'handlebars'
p977
sI976
S'stays'
p978
sI977
S'paper'
p979
sI978
S'dough'
p980
sI979
S'pane'
p981
sI980
S'signs'
p982
sI981
S'clarinet'
p983
sI982
S'mattress'
p984
sI983
S'laces'
p985
sI984
S'sauce'
p986
sI985
S'someone'
p987
sI986
S'food'
p988
sI987
S'clippers'
p989
sI988
S'cupcake'
p990
sI989
S'walls'
p991
sI990
S'foot'
p992
sI991
S'lettuce'
p993
sI992
S'nugget'
p994
sI993
S'biscuits'
p995
sI994
S'trailer'
p996
sI995
S'lantern'
p997
sI996
S'dumbbells'
p998
sI997
S'accelerator'
p999
sI998
S'house'
p1000
sI999
S'fish'
p1001
sI1000
S'foxes'
p1002
sI1001
S'bouquets'
p1003
sI1002
S'loops'
p1004
sI1003
S'harp'
p1005
sI1004
S'flower'
p1006
sI1005
S'lipstick'
p1007
sI1006
S'pigeon'
p1008
sI1007
S'dugout'
p1009
sI1008
S'fountain'
p1010
sI1009
S'hill'
p1011
sI1010
S'barbel'
p1012
sI1011
S'highway'
p1013
sI1012
S'smock'
p1014
sI1013
S'seagulls'
p1015
sI1014
S'pug'
p1016
sI1015
S'pub'
p1017
sI1016
S'bulls'
p1018
sI1017
S'cookie'
p1019
sI1018
S'acorn'
p1020
sI1019
S'put'
p1021
sI1020
S'pup'
p1022
sI1021
S'sidewalk'
p1023
sI1022
S'dishwasher'
p1024
sI1023
S'thread'
p1025
sI1024
S'seahorse'
p1026
sI1025
S'lemur'
p1027
sI1026
S'fruit'
p1028
sI1027
S'daisy'
p1029
sI1028
S'castle'
p1030
sI1029
S'porpoise'
p1031
sI1030
S'statue'
p1032
sI1031
S'buffaloes'
p1033
sI1032
S'number'
p1034
sI1033
S'cups'
p1035
sI1034
S'speedometer'
p1036
sI1035
S'horse'
p1037
sI1036
S'jet'
p1038
sI1037
S'automobile'
p1039
sI1038
S'hamsters'
p1040
sI1039
S'collar'
p1041
sI1040
S'paint'
p1042
sI1041
S'180'
p1043
sI1042
S'station'
p1044
sI1043
S'stallions'
p1045
sI1044
S'hummingbird'
p1046
sI1045
S'syrup'
p1047
sI1046
S'banana'
p1048
sI1047
S'store'
p1049
sI1048
S'catapult'
p1050
sI1049
S'pump'
p1051
sI1050
S'needle'
p1052
sI1051
S'jordan'
p1053
sI1052
S'rifle'
p1054
sI1053
S'burrito'
p1055
sI1054
S'steaks'
p1056
sI1055
S'stairs'
p1057
sI1056
S'compartment'
p1058
sI1057
S'recording'
p1059
sI1058
S'stall'
p1060
sI1059
S'outdoors'
p1061
sI1060
S'dispenser'
p1062
sI1061
S'cleaner'
p1063
sI1062
S'bassinet'
p1064
sI1063
S'chipmunk'
p1065
sI1064
S'juice'
p1066
sI1065
S'graffiti'
p1067
sI1066
S'wipers'
p1068
sI1067
S'lid'
p1069
sI1068
S'mountain'
p1070
sI1069
S'koala'
p1071
sI1070
S'dancing'
p1072
sI1071
S'spaghetti'
p1073
sI1072
S'freshener'
p1074
sI1073
S'couch'
p1075
sI1074
S'lit'
p1076
sI1075
S'flares'
p1077
sI1076
S'lifts'
p1078
sI1077
S'sandwiches'
p1079
sI1078
S'nightie'
p1080
sI1079
S'gym'
p1081
sI1080
S'play'
p1082
sI1081
S'headset'
p1083
sI1082
S'eggs'
p1084
sI1083
S'singlet'
p1085
sI1084
S'cigarette'
p1086
sI1085
S'darts'
p1087
sI1086
S'machete'
p1088
sI1087
S'foyer'
p1089
sI1088
S'refrigerator'
p1090
sI1089
S'mobile'
p1091
sI1090
S'cover'
p1092
sI1091
S'tongs'
p1093
sI1092
S'amphibian'
p1094
sI1093
S'barrel'
p1095
sI1094
S'tubes'
p1096
sI1095
S'stones'
p1097
sI1096
S'gold'
p1098
sI1097
S'barbell'
p1099
sI1098
S'housecoat'
p1100
sI1099
S'crayon'
p1101
sI1100
S'chock'
p1102
sI1101
S'blender'
p1103
sI1102
S'indicator'
p1104
sI1103
S'scooter'
p1105
sI1104
S'condom'
p1106
sI1105
S'circle'
p1107
sI1106
S'porcupine'
p1108
sI1107
S'triangle'
p1109
sI1108
S'dandelion'
p1110
sI1109
S'trees'
p1111
sI1110
S'ferret'
p1112
sI1111
S'basement'
p1113
sI1112
S'banner'
p1114
sI1113
S'motorcycles'
p1115
sI1114
S'sleeve'
p1116
sI1115
S'withe'
p1117
sI1116
S'tabby'
p1118
sI1117
S'lolly'
p1119
sI1118
S'gloves'
p1120
sI1119
S'corgi'
p1121
sI1120
S'river'
p1122
sI1121
S'bars'
p1123
sI1122
S'art'
p1124
sI1123
S'cocktail'
p1125
sI1124
S'lion'
p1126
sI1125
S'sea'
p1127
sI1126
S'tender'
p1128
sI1127
S'close'
p1129
sI1128
S'outward'
p1130
sI1129
S'sportswear'
p1131
sI1130
S'barn'
p1132
sI1131
S'project'
p1133
sI1132
S'patties'
p1134
sI1133
S'gravestones'
p1135
sI1134
S'pictures'
p1136
sI1135
S'crosswalk'
p1137
sI1136
S'champagne'
p1138
sI1137
S'outfit'
p1139
sI1138
S'spray'
p1140
sI1139
S'zipper'
p1141
sI1140
S'prams'
p1142
sI1141
S'blazer'
p1143
sI1142
S'restaurant'
p1144
sI1143
S'eggplant'
p1145
sI1144
S'boxers'
p1146
sI1145
S'whole'
p1147
sI1146
S'rag'
p1148
sI1147
S'forklift'
p1149
sI1148
S'dances'
p1150
sI1149
S'dancer'
p1151
sI1150
S'climbers'
p1152
sI1151
S'crisps'
p1153
sI1152
S'goats'
p1154
sI1153
S'belt'
p1155
sI1154
S'catwalk'
p1156
sI1155
S'suspenders'
p1157
sI1156
S'dun'
p1158
sI1157
S'stamp'
p1159
sI1158
S'peppers'
p1160
sI1159
S'brick'
p1161
sI1160
S'squirrel'
p1162
sI1161
S'racer'
p1163
sI1162
S'races'
p1164
sI1163
S'sleeves'
p1165
sI1164
S'balloons'
p1166
sI1165
S'irises'
p1167
sI1166
S'crutch'
p1168
sI1167
S'rope'
p1169
sI1168
S'loop'
p1170
sI1169
S'moth'
p1171
sI1170
S'demon'
p1172
sI1171
S'ducks'
p1173
sI1172
S'rig'
p1174
sI1173
S'rib'
p1175
sI1174
S'shirt'
p1176
sI1175
S'concoction'
p1177
sI1176
S'corridor'
p1178
sI1177
S'hallway'
p1179
sI1178
S'strips'
p1180
sI1179
S'snail'
p1181
sI1180
S'keys'
p1182
sI1181
S'cigar'
p1183
sI1182
S'desks'
p1184
sI1183
S'user'
p1185
sI1184
S'sandals'
p1186
sI1185
S'stack'
p1187
sI1186
S'beanie'
p1188
sI1187
S'noodle'
p1189
sI1188
S'person'
p1190
sI1189
S'flags'
p1191
sI1190
S'machinery'
p1192
sI1191
S'prize'
p1193
sI1192
S'eyeglasses'
p1194
sI1193
S'carport'
p1195
sI1194
S'pigeons'
p1196
sI1195
S'raincoats'
p1197
sI1196
S'shape'
p1198
sI1197
S'jumpsuit'
p1199
sI1198
S'goblet'
p1200
sI1199
S'tablet'
p1201
sI1200
S'cup'
p1202
sI1201
S'workers'
p1203
sI1202
S'signals'
p1204
sI1203
S'cub'
p1205
sI1204
S'bin'
p1206
sI1205
S'doors'
p1207
sI1206
S'skateboards'
p1208
sI1207
S'bib'
p1209
sI1208
S'manatee'
p1210
sI1209
S'game'
p1211
sI1210
S'blackjack'
p1212
sI1211
S'wings'
p1213
sI1212
S'flannel'
p1214
sI1213
S'disks'
p1215
sI1214
S'glove'
p1216
sI1215
S'banknotes'
p1217
sI1216
S'eel'
p1218
sI1217
S'walrus'
p1219
sI1218
S'sprinklers'
p1220
sI1219
S'piglet'
p1221
sI1220
S'brakes'
p1222
sI1221
S'sorbet'
p1223
sI1222
S'lips'
p1224
sI1223
S'grenades'
p1225
sI1224
S'ornaments'
p1226
sI1225
S'mirror'
p1227
sI1226
S'candle'
p1228
sI1227
S'saucer'
p1229
sI1228
S'jewelry'
p1230
sI1229
S'pet'
p1231
sI1230
S'tools'
p1232
sI1231
S'pen'
p1233
sI1232
S'thighs'
p1234
sI1233
S'run'
p1235
sI1234
S'rapping'
p1236
sI1235
S'jumps'
p1237
sI1236
S'costumes'
p1238
sI1237
S'step'
p1239
sI1238
S'lounges'
p1240
sI1239
S'alleyway'
p1241
sI1240
S'raspberry'
p1242
sI1241
S'goods'
p1243
sI1242
S'hatchet'
p1244
sI1243
S'gratings'
p1245
sI1244
S'range'
p1246
sI1245
S'block'
p1247
sI1246
S'seating'
p1248
sI1247
S'frames'
p1249
sI1248
S'rolls'
p1250
sI1249
S'jockey'
p1251
sI1250
S'yo-yo'
p1252
sI1251
S'arcade'
p1253
sI1252
S'batons'
p1254
sI1253
S'sock'
p1255
sI1254
S'sneaks'
p1256
sI1255
S'suit'
p1257
sI1256
S'mountains'
p1258
sI1257
S't-shirt'
p1259
sI1258
S'cloth'
p1260
sI1259
S'toucan'
p1261
sI1260
S'branch'
p1262
sI1261
S'line'
p1263
sI1262
S'penguin'
p1264
sI1263
S'skull'
p1265
sI1264
S'fries'
p1266
sI1265
S'planet'
p1267
sI1266
S'cartwheel'
p1268
sI1267
S'groove'
p1269
sI1268
S'bell'
p1270
sI1269
S'duckling'
p1271
sI1270
S'geese'
p1272
sI1271
S'curb'
p1273
sI1272
S'cafe'
p1274
sI1273
S'hyena'
p1275
sI1274
S'lemon'
p1276
sI1275
S'upstage'
p1277
sI1276
S'kirk'
p1278
sI1277
S'parlor'
p1279
sI1278
S'parakeet'
p1280
sI1279
S'aprons'
p1281
sI1280
S'mayonnaise'
p1282
sI1281
S'tarp'
p1283
sI1282
S'pandas'
p1284
sI1283
S'draw'
p1285
sI1284
S'mustard'
p1286
sI1285
S'robots'
p1287
sI1286
S'lens'
p1288
sI1287
S'insect'
p1289
sI1288
S'earphones'
p1290
sI1289
S'lane'
p1291
sI1290
S'fighter'
p1292
sI1291
S'blinks'
p1293
sI1292
S'satellite'
p1294
sI1293
S'beverage'
p1295
sI1294
S'dot'
p1296
sI1295
S'armadillo'
p1297
sI1296
S'berries'
p1298
sI1297
S'scroll'
p1299
sI1298
S'desserts'
p1300
sI1299
S'groceries'
p1301
sI1300
S'snowmobile'
p1302
sI1301
S'dumbbell'
p1303
sI1302
S'windowsill'
p1304
sI1303
S'peanut'
p1305
sI1304
S'mosque'
p1306
sI1305
S'floss'
p1307
sI1306
S'suits'
p1308
sI1307
S'teardrop'
p1309
sI1308
S'stable'
p1310
sI1309
S'fences'
p1311
sI1310
S'garden'
p1312
sI1311
S'ukulele'
p1313
sI1312
S'ladle'
p1314
sI1313
S'dessert'
p1315
sI1314
S'kitty'
p1316
sI1315
S'wave'
p1317
sI1316
S'spoon'
p1318
sI1317
S'trough'
p1319
sI1318
S'llama'
p1320
sI1319
S'recorder'
p1321
sI1320
S'exits'
p1322
sI1321
S'button'
p1323
sI1322
S'race'
p1324
sI1323
S'snails'
p1325
sI1324
S'rack'
p1326
sI1325
S'booty'
p1327
sI1326
S'flashlights'
p1328
sI1327
S'crow'
p1329
sI1328
S'boots'
p1330
sI1329
S'jump'
p1331
sI1330
S'booth'
p1332
sI1331
S'pajamas'
p1333
sI1332
S'cupcakes'
p1334
sI1333
S'plays'
p1335
sI1334
S'blobs'
p1336
sI1335
S'soup'
p1337
sI1336
S'espresso'
p1338
sI1337
S'clipboard'
p1339
sI1338
S'ammunition'
p1340
sI1339
S'bird'
p1341
sI1340
S'exercise'
p1342
sI1341
S'scenery'
p1343
sI1342
S'toast'
p1344
sI1343
S'kangaroo'
p1345
sI1344
S'commercial'
p1346
sI1345
S'scythe'
p1347
sI1346
S'objects'
p1348
sI1347
S'sink'
p1349
sI1348
S'pancake'
p1350
sI1349
S'cab'
p1351
sI1350
S'roof'
p1352
sI1351
S'shades'
p1353
sI1352
S'products'
p1354
sI1353
S'orangutan'
p1355
sI1354
S'popcorn'
p1356
sI1355
S'pajama'
p1357
sI1356
S'wig'
p1358
sI1357
S'shovel'
p1359
sI1358
S'apple'
p1360
sI1359
S'sparklers'
p1361
sI1360
S'dropper'
p1362
sI1361
S'duck'
p1363
sI1362
S'walruses'
p1364
sI1363
S'singing'
p1365
sI1364
S'gateway'
p1366
sI1365
S'ape'
p1367
sI1366
S'nest'
p1368
sI1367
S'sketchbook'
p1369
sI1368
S'chocolates'
p1370
sI1369
S'frog'
p1371
sI1370
S'crab'
p1372
sI1371
S'vehicle'
p1373
sI1372
S'eagles'
p1374
sI1373
S'pencil'
p1375
sI1374
S'iris'
p1376
sI1375
S'musician'
p1377
sI1376
S'missile'
p1378
sI1377
S'train'
p1379
sI1378
S'parrots'
p1380
sI1379
S'rabbit'
p1381
sI1380
S'baby'
p1382
sI1381
S'women'
p1383
sI1382
S'balls'
p1384
sI1383
S'animals'
p1385
sI1384
S'salad'
p1386
sI1385
S'tunnel'
p1387
sI1386
S'challenge'
p1388
sI1387
S'donut'
p1389
sI1388
S'tag'
p1390
sI1389
S'drill'
p1391
sI1390
S'drops'
p1392
sI1391
S'coffin'
p1393
sI1392
S'snacks'
p1394
sI1393
S'ferrets'
p1395
sI1394
S'lock'
p1396
sI1395
S'pieces'
p1397
sI1396
S'carrot'
p1398
sI1397
S'bend'
p1399
sI1398
S'suds'
p1400
sI1399
S'bones'
p1401
sI1400
S'sunglasses'
p1402
sI1401
S'paws'
p1403
sI1402
S'trumpet'
p1404
sI1403
S'lamb'
p1405
sI1404
S'sit'
p1406
sI1405
S'skirt'
p1407
sI1406
S'bungee'
p1408
sI1407
S'six'
p1409
sI1408
S'formations'
p1410
sI1409
S'tightrope'
p1411
sI1410
S'lamp'
p1412
sI1411
S'animal'
p1413
sI1412
S'typewriter'
p1414
sI1413
S'contraption'
p1415
sI1414
S'buildings'
p1416
sI1415
S'blocks'
p1417
sI1416
S'farm'
p1418
sI1417
S'watch'
p1419
sI1418
S'masks'
p1420
sI1419
S'paintball'
p1421
sI1420
S'notebook'
p1422
sI1421
S'ties'
p1423
sI1422
S'cabbage'
p1424
sI1423
S'hawk'
p1425
sI1424
S'tomato'
p1426
sI1425
S'sculptures'
p1427
sI1426
S'light'
p1428
sI1427
S'counter'
p1429
sI1428
S'lines'
p1430
sI1429
S'robot'
p1431
sI1430
S'bakery'
p1432
sI1431
S'necklace'
p1433
sI1432
S'martini'
p1434
sI1433
S'octopuses'
p1435
sI1434
S'move'
p1436
sI1435
S'spatula'
p1437
sI1436
S'costume'
p1438
sI1437
S'horns'
p1439
sI1438
S'iguana'
p1440
sI1439
S'twirls'
p1441
sI1440
S'sill'
p1442
sI1441
S'broom'
p1443
sI1442
S'ships'
p1444
sI1443
S'pugs'
p1445
sI1444
S'instruments'
p1446
sI1445
S'orange'
p1447
sI1446
S'flour'
p1448
sI1447
S'skates'
p1449
sI1448
S'runs'
p1450
sI1449
S'oranges'
p1451
sI1450
S'dock'
p1452
sI1451
S'snake'
p1453
sI1452
S'kiss'
p1454
sI1453
S'hands'
p1455
sI1454
S'front'
p1456
sI1455
S'jaguar'
p1457
sI1456
S'cage'
p1458
sI1457
S'tram'
p1459
sI1458
S'slide'
p1460
sI1459
S'lingerie'
p1461
sI1460
S'trap'
p1462
sI1461
S'bills'
p1463
sI1462
S'tray'
p1464
sI1463
S'glasses'
p1465
sI1464
S'globe'
p1466
sI1465
S'puppets'
p1467
sI1466
S'sweatshirt'
p1468
sI1467
S'hippopotamus'
p1469
sI1468
S'staircase'
p1470
sI1469
S'armor'
p1471
sI1470
S'terrapins'
p1472
sI1471
S'performs'
p1473
sI1472
S'wick'
p1474
sI1473
S'red'
p1475
sI1474
S'umbrella'
p1476
sI1475
S'uncontrollably'
p1477
sI1476
S'pendant'
p1478
sI1477
S'dumpster'
p1479
sI1478
S'retriever'
p1480
sI1479
S'backwards'
p1481
sI1480
S'spill'
p1482
sI1481
S'mortar'
p1483
sI1482
S'skateboard'
p1484
sI1483
S'stride'
p1485
sI1484
S'pigs'
p1486
sI1485
S'sabers'
p1487
sI1486
S'scarf'
p1488
sI1487
S'bouquet'
p1489
sI1488
S'sack'
p1490
sI1489
S'bonnet'
p1491
sI1490
S'puppet'
p1492
sI1491
S'blows'
p1493
sI1492
S'umbrellas'
p1494
sI1493
S'monkey'
p1495
sI1494
S'bears'
p1496
sI1495
S'wrapper'
p1497
sI1496
S'decorations'
p1498
sI1497
S'motorcar'
p1499
sI1498
S'man'
p1500
sI1499
S'spaceship'
p1501
sI1500
S'headbands'
p1502
sI1501
S'gear'
p1503
sI1502
S'shorts'
p1504
sI1503
S'bulldog'
p1505
sI1504
S'shelf'
p1506
sI1505
S'xylophone'
p1507
sI1506
S'motorcycle'
p1508
sI1507
S'photograph'
p1509
sI1508
S'shampoo'
p1510
sI1509
S'bed'
p1511
sI1510
S'bee'
p1512
sI1511
S'firework'
p1513
sI1512
S'candles'
p1514
sI1513
S'sculpture'
p1515
sI1514
S'wakes'
p1516
sI1515
S'platypus'
p1517
sI1516
S'carrots'
p1518
sI1517
S'tide'
p1519
sI1518
S'microphone'
p1520
sI1519
S'dishes'
p1521
sI1520
S'truck'
p1522
sI1521
S'soap'
p1523
sI1522
S'manor'
p1524
sI1523
S'passionately'
p1525
sI1524
S'firecrackers'
p1526
sI1525
S'petals'
p1527
sI1526
S'eight'
p1528
sI1527
S'device'
p1529
sI1528
S'cellphone'
p1530
sI1529
S'stereo'
p1531
sI1530
S'face'
p1532
sI1531
S'pipe'
p1533
sI1532
S'painting'
p1534
sI1533
S'yolks'
p1535
sI1534
S'portfolio'
p1536
sI1535
S'chicken'
p1537
sI1536
S'shield'
p1538
sI1537
S'taps'
p1539
sI1538
S'tire'
p1540
sI1539
S'jar'
p1541
sI1540
S'stamps'
p1542
sI1541
S'buttons'
p1543
sI1542
S'bases'
p1544
sI1543
S'tape'
p1545
sI1544
S'employee'
p1546
sI1545
S'piano'
p1547
sI1546
S'photographs'
p1548
sI1547
S'cube'
p1549
sI1548
S'capsules'
p1550
sI1549
S'bear'
p1551
sI1550
S'beam'
p1552
sI1551
S'cubs'
p1553
sI1552
S'beak'
p1554
sI1553
S'bronco'
p1555
sI1554
S'chips'
p1556
sI1555
S'gray'
p1557
sI1556
S'hoses'
p1558
sI1557
S'trucks'
p1559
sI1558
S'ashtray'
p1560
sI1559
S'mascara'
p1561
sI1560
S'looks'
p1562
sI1561
S'bucket'
p1563
sI1562
S'frame'
p1564
sI1563
S'humans'
p1565
sI1564
S'computer'
p1566
sI1565
S'driveway'
p1567
sI1566
S'tuxedos'
p1568
sI1567
S'wire'
p1569
sI1568
S'closet'
p1570
sI1569
S'purses'
p1571
sI1570
S'routine'
p1572
sI1571
S'chipmunks'
p1573
sI1572
S'pistol'
p1574
sI1573
S'tent'
p1575
sI1574
S'opening'
p1576
sI1575
S'beverages'
p1577
sI1576
S'butts'
p1578
sI1577
S'courtyard'
p1579
sI1578
S'key'
p1580
sI1579
S'broccoli'
p1581
sI1580
S'mailbox'
p1582
sI1581
S'drum'
p1583
sI1582
S'ramp'
p1584
sI1583
S'drug'
p1585
sI1584
S'doorway'
p1586
sI1585
S'puff'
p1587
sI1586
S'wall'
p1588
sI1587
S'denim'
p1589
sI1588
S'overcoat'
p1590
sI1589
S'gong'
p1591
sI1590
S'table'
p1592
sI1591
S'pullover'
p1593
sI1592
S'sari'
p1594
sI1593
S'gondola'
p1595
sI1594
S'treat'
p1596
sI1595
S'curtain'
p1597
sI1596
S'feather'
p1598
sI1597
S'antlers'
p1599
sI1598
S'mike'
p1600
sI1599
S'airplanes'
p1601
sI1600
S'axle'
p1602
sI1601
S'bull'
p1603
sI1602
S'bulb'
p1604
sI1603
S'plaid'
p1605
sI1604
S'laser'
p1606
sI1605
S'corset'
p1607
sI1606
S'runway'
p1608
sI1607
S'bathtub'
p1609
sI1608
S'layer'
p1610
sI1609
S'cereals'
p1611
sI1610
S'squid'
p1612
sI1611
S'surface'
p1613
sI1612
S'rooster'
p1614
sI1613
S'sheath'
p1615
sI1614
S'balloon'
p1616
sI1615
S'headlight'
p1617
sI1616
S'flasks'
p1618
sI1617
S'shuttle'
p1619
sI1618
S'party'
p1620
sI1619
S'pull-ups'
p1621
sI1620
S'ball'
p1622
sI1621
S'drink'
p1623
sI1622
S'lobby'
p1624
sI1623
S'tighter'
p1625
sI1624
S'gutter'
p1626
sI1625
S'surfboard'
p1627
sI1626
S'shotgun'
p1628
sI1627
S'weapon'
p1629
sI1628
S'drone'
p1630
sI1629
S'twirl'
p1631
sI1630
S'bandanna'
p1632
sI1631
S'45'
p1633
sI1632
S'bananas'
p1634
sI1633
S'rocket'
p1635
sI1634
S'camel'
p1636
sI1635
S'cloaks'
p1637
sI1636
S'hurdle'
p1638
sI1637
S'skill'
p1639
sI1638
S'transportation'
p1640
sI1639
S'flashlight'
p1641
sI1640
S'console'
p1642
sI1641
S'panther'
p1643
sI1642
S'guts'
p1644
sI1643
S'sky'
p1645
sI1644
S'lake'
p1646
sI1645
S'bench'
p1647
sI1646
S'crack'
p1648
sI1647
S'morgue'
p1649
sI1648
S'jars'
p1650
sI1649
S'ski'
p1651
sI1650
S'knob'
p1652
sI1651
S'ledge'
p1653
sI1652
S'budgie'
p1654
sI1653
S'dryer'
p1655
sI1654
S'five'
p1656
sI1655
S'desk'
p1657
sI1656
S'propeller'
p1658
sI1657
S'pier'
p1659
sI1658
S'flamingo'
p1660
sI1659
S'chairs'
p1661
sI1660
S'sofa'
p1662
sI1661
S'candy'
p1663
sI1662
S'garage'
p1664
sI1663
S'chick'
p1665
sI1664
S'works'
p1666
sI1665
S'heel'
p1667
sI1666
S'shed'
p1668
sI1667
S'footage'
p1669
sI1668
S'library'
p1670
sI1669
S'hair'
p1671
sI1670
S'almonds'
p1672
sI1671
S'home'
p1673
sI1672
S'leaf'
p1674
sI1673
S'kettle'
p1675
sI1674
S'tadpole'
p1676
sI1675
S'cradle'
p1677
sI1676
S'saucepan'
p1678
sI1677
S'earrings'
p1679
sI1678
S'kangaroos'
p1680
sI1679
S'leader'
p1681
sI1680
S'stairway'
p1682
sI1681
S'pepper'
p1683
sI1682
S'hose'
p1684
sI1683
S'whiskers'
p1685
sI1684
S'pasta'
p1686
sI1685
S'throne'
p1687
sI1686
S'pike'
p1688
sI1687
S'boards'
p1689
sI1688
S'biscuit'
p1690
sI1689
S'nightclub'
p1691
sI1690
S'lizards'
p1692
sI1691
S'seeds'
p1693
sI1692
S'rug'
p1694
sI1693
S'puppies'
p1695
sI1694
S'swimming'
p1696
sI1695
S'owl'
p1697
sI1696
S'bugle'
p1698
sI1697
S'letters'
p1699
sI1698
S'socks'
p1700
sI1699
S'headphone'
p1701
sI1700
S'guard'
p1702
sI1701
S'ketchup'
p1703
sI1702
S'knuckles'
p1704
sI1703
S'gerbil'
p1705
sI1704
S'vegetables'
p1706
sI1705
S'drumstick'
p1707
sI1706
S'cliff'
p1708
sI1707
S'cricket'
p1709
sI1708
S'buy'
p1710
sI1709
S'capsule'
p1711
sI1710
S'bus'
p1712
sI1711
S'sweatband'
p1713
sI1712
S'fountains'
p1714
sI1713
S'strawberries'
p1715
sI1714
S'bun'
p1716
sI1715
S'nut'
p1717
sI1716
S'bookshelf'
p1718
sI1717
S'bug'
p1719
sI1718
S'carriage'
p1720
sI1719
S'cello'
p1721
sI1720
S'monument'
p1722
sI1721
S'cake'
p1723
sI1722
S'piece'
p1724
sI1723
S'rabbits'
p1725
sI1724
S'pin'
p1726
sI1725
S'mask'
p1727
sI1726
S'handset'
p1728
sI1727
S'pie'
p1729
sI1728
S'pig'
p1730
sI1729
S'pix'
p1731
sI1730
S'pit'
p1732
sI1731
S'balcony'
p1733
sI1732
S'guitarist'
p1734
sI1733
S'boot'
p1735
sI1734
S'smears'
p1736
sI1735
S'oar'
p1737
sI1736
S'meteor'
p1738
sI1737
S'dresses'
p1739
sI1738
S'frisbee'
p1740
sI1739
S'star'
p1741
sI1740
S'husky'
p1742
sI1741
S'candyfloss'
p1743
sI1742
S'veil'
p1744
sI1743
S'dolphins'
p1745
sI1744
S'tomcat'
p1746
sI1745
S'laundromat'
p1747
s.