(dp1
I0
S'.'
sI1
S'UNK'
p2
sI2
S'fawn'
p3
sI3
S'somethiing'
p4
sI4
S'croutches'
p5
sI5
S'copy'
p6
sI6
S'yellow'
p7
sI7
S'four'
p8
sI8
S'protest'
p9
sI9
S'woods'
p10
sI10
S'sleep'
p11
sI11
S'asian'
p12
sI12
S'railing'
p13
sI13
S'captain'
p14
sI14
S'lace'
p15
sI15
S'increase'
p16
sI16
S'railslide'
p17
sI17
S'swab'
p18
sI18
S'swan'
p19
sI19
S'eyehole'
p20
sI20
S'teapot'
p21
sI21
S'tickle'
p22
sI22
S'swat'
p23
sI23
S'unroll'
p24
sI24
S'bike'
p25
sI25
S'swap'
p26
sI26
S'daze'
p27
sI27
S'under'
p28
sI28
S'sway'
p29
sI29
S'hats'
p30
sI30
S'fists'
p31
sI31
S'swivel'
p32
sI32
S'stright'
p33
sI33
S'aroun'
p34
sI34
S'dispense'
p35
sI35
S'blanket'
p36
sI36
S'rise'
p37
sI37
S'costume'
p38
sI38
S'vase'
p39
sI39
S'smack'
p40
sI40
S'suspenseful'
p41
sI41
S'confetti'
p42
sI42
S'asphalt'
p43
sI43
S'fireplace'
p44
sI44
S'rowards'
p45
sI45
S'disturb'
p46
sI46
S'whisk'
p47
sI47
S'motorcyclist'
p48
sI48
S'wooden'
p49
sI49
S'pinch'
p50
sI50
S'disc'
p51
sI51
S'crotch'
p52
sI52
S'manikin'
p53
sI53
S'ups'
p54
sI54
S'clothes'
p55
sI55
S'enjoy'
p56
sI56
S'chew'
p57
sI57
S'bicycle'
p58
sI58
S'tired'
p59
sI59
S'vechicle'
p60
sI60
S'bacon'
p61
sI61
S'horn'
p62
sI62
S'nail'
p63
sI63
S'bannister'
p64
sI64
S'second'
p65
sI65
S'street'
p66
sI66
S'manner'
p67
sI67
S'levitate'
p68
sI68
S'expressive'
p69
sI69
S'panda'
p70
sI70
S'blue'
p71
sI71
S'hide'
p72
sI72
S'wreck'
p73
sI73
S'solemn'
p74
sI74
S'stars'
p75
sI75
S'fingers'
p76
sI76
S'lampshade'
p77
sI77
S'lights'
p78
sI78
S'aother'
p79
sI79
S'mischievous'
p80
sI80
S'above'
p81
sI81
S'cars'
p82
sI82
S'new'
p83
sI83
S'net'
p84
sI84
S'seeks'
p85
sI85
S'pressed'
p86
sI86
S'crunch'
p87
sI87
S'kicked'
p88
sI88
S'crouch'
p89
sI89
S'smeone'
p90
sI90
S'reporter'
p91
sI91
S'pancakes'
p92
sI92
S'men'
p93
sI93
S'disposable'
p94
sI94
S'dustpan'
p95
sI95
S'vapors'
p96
sI96
S'studio'
p97
sI97
S'active'
p98
sI98
S'path'
p99
sI99
S'crossbow'
p100
sI100
S'dry'
p101
sI101
S'substance'
p102
sI102
S'daughter'
p103
sI103
S'luggage'
p104
sI104
S'items'
p105
sI105
S'study'
p106
sI106
S'changed'
p107
sI107
S'actress'
p108
sI108
S'bunked'
p109
sI109
S'gymnast'
p110
sI110
S'smoke'
p111
sI111
S'military'
p112
sI112
S'changes'
p113
sI113
S'intrigue'
p114
sI114
S'eyebrows'
p115
sI115
S'blowtorch'
p116
sI116
S'hunch'
p117
sI117
S'straw'
p118
sI118
S'cand'
p119
sI119
S'strap'
p120
sI120
S'brought'
p121
sI121
S'visible'
p122
sI122
S'smacked'
p123
sI123
S'sledder'
p124
sI124
S'stern'
p125
sI125
S'forwad'
p126
sI126
S'glance'
p127
sI127
S'cocaine'
p128
sI128
S'bra'
p129
sI129
S'opponents'
p130
sI130
S'raide'
p131
sI131
S'headband'
p132
sI132
S'plop'
p133
sI133
S'fingernails'
p134
sI134
S'alligator'
p135
sI135
S'orb'
p136
sI136
S'sweater'
p137
sI137
S'gloss'
p138
sI138
S'exhort'
p139
sI139
S'arms'
p140
sI140
S'insult'
p141
sI141
S'untie'
p142
sI142
S'calm'
p143
sI143
S'h'
sI144
S'strike'
p144
sI145
S'type'
p145
sI146
S'sticker'
p146
sI147
S'breathe'
p147
sI148
S'phonr'
p148
sI149
S'relax'
p149
sI150
S'drumbells'
p150
sI151
S'hurt'
p151
sI152
S'lunge'
p152
sI153
S'phone'
p153
sI154
S'backwards'
p154
sI155
S'adult'
p155
sI156
S'breaths'
p156
sI157
S'stumps'
p157
sI158
S'muss'
p158
sI159
S'allies'
p159
sI160
S'hole'
p160
sI161
S'hold'
p161
sI162
S'pouch'
p162
sI163
S'blindfold'
p163
sI164
S'shoot'
p164
sI165
S'peekaboo'
p165
sI166
S'word'
p166
sI167
S'room'
p167
sI168
S'onstage'
p168
sI169
S'blade'
p169
sI170
S'somber'
p170
sI171
S'explotion'
p171
sI172
S'roof'
p172
sI173
S'straddle'
p173
sI174
S'performation'
p174
sI175
S'locker'
p175
sI176
S'rim'
p176
sI177
S'eyemask'
p177
sI178
S'shelve'
p178
sI179
S'elbow'
p179
sI180
S'exhale'
p180
sI181
S'untampered'
p181
sI182
S'my'
p182
sI183
S'grenade'
p183
sI184
S'cans'
p184
sI185
S'loosen'
p185
sI186
S'transition'
p186
sI187
S'foodie'
p187
sI188
S'wand'
p188
sI189
S'give'
p189
sI190
S'dolphin'
p190
sI191
S'laughs'
p191
sI192
S'aroud'
p192
sI193
S'motocycle'
p193
sI194
S'suffocated'
p194
sI195
S'ready'
p195
sI196
S'foods'
p196
sI197
S'yorkie'
p197
sI198
S'times'
p198
sI199
S'end'
p199
sI200
S'pogo'
p200
sI201
S'agony'
p201
sI202
S'travel'
p202
sI203
S'song'
p203
sI204
S'machine'
p204
sI205
S'far'
p205
sI206
S'hot'
p206
sI207
S'drummer'
p207
sI208
S'hop'
p208
sI209
S'answer'
p209
sI210
S'disappoint'
p210
sI211
S'beach'
p211
sI212
S'rightwards'
p212
sI213
S'pizza'
p213
sI214
S'badly'
p214
sI215
S'unlighted'
p215
sI216
S'mouths'
p216
sI217
S'mess'
p217
sI218
S'ladder'
p218
sI219
S'after'
p219
sI220
S'stroller'
p220
sI221
S'despondent'
p221
sI222
S'less'
p222
sI223
S'dinosaurs'
p223
sI224
S'wrong'
p224
sI225
S'jumping'
p225
sI226
S'poked'
p226
sI227
S'lay'
p227
sI228
S'curiosity'
p228
sI229
S'sparkler'
p229
sI230
S'president'
p230
sI231
S'dough'
p231
sI232
S'arch'
p232
sI233
S'parallel'
p233
sI234
S'shirt'
p234
sI235
S'attempt'
p235
sI236
S'third'
p236
sI237
S'spout'
p237
sI238
S'greet'
p238
sI239
S'cigaretter'
p239
sI240
S'wink'
p240
sI241
S'maintain'
p241
sI242
S'green'
p242
sI243
S'waitress'
p243
sI244
S'goodbye'
p244
sI245
S'ambulance'
p245
sI246
S'smooke'
p246
sI247
S'operate'
p247
sI248
S'wing'
p248
sI249
S'wind'
p249
sI250
S'wine'
p250
sI251
S'cymbols'
p251
sI252
S'blind'
p252
sI253
S'deform'
p253
sI254
S'office'
p254
sI255
S'deck'
p255
sI256
S'pothole'
p256
sI257
S'defenders'
p257
sI258
S'over'
p258
sI259
S'clench'
p259
sI260
S'uncross'
p260
sI261
S'russian'
p261
sI262
S'handcuff'
p262
sI263
S'ghastly'
p263
sI264
S'keyboard'
p264
sI265
S'strangle'
p265
sI266
S'windshield'
p266
sI267
S'hook'
p267
sI268
S'before'
p268
sI269
S'beside'
p269
sI270
S'robed'
p270
sI271
S'oncoming'
p271
sI272
S'fit'
p272
sI273
S'reflection'
p273
sI274
S'somewhere'
p274
sI275
S'screaming'
p275
sI276
S'fix'
p276
sI277
S'avocado'
p277
sI278
S','
sI279
S'levatate'
p278
sI280
S'segway'
p279
sI281
S'fade'
p280
sI282
S'sabre'
p281
sI283
S'carve'
p282
sI284
S'hidden'
p283
sI285
S'fin'
p284
sI286
S'overcome'
p285
sI287
S'split'
p286
sI288
S'then'
p287
sI289
S'them'
p288
sI290
S'widely'
p289
sI291
S'animate'
p290
sI292
S'workout'
p291
sI293
S'collide'
p292
sI294
S'offroad'
p293
sI295
S'break'
p294
sI296
S'band'
p295
sI297
S'bang'
p296
sI298
S'giraffe'
p297
sI299
S'reaches'
p298
sI300
S'they'
p299
sI301
S'interrupt'
p300
sI302
S'blink'
p301
sI303
S'silver'
p302
sI304
S'group'
p303
sI305
S'bread'
p304
sI306
S'bonnet'
p305
sI307
S'erotically'
p306
sI308
S'meat'
p307
sI309
S'defecate'
p308
sI310
S'l'
sI311
S'explode'
p309
sI312
S'faraway'
p310
sI313
S'turtleman'
p311
sI314
S'victory'
p312
sI315
S'arrow'
p313
sI316
S'each'
p314
sI317
S'puppet'
p315
sI318
S'went'
p316
sI319
S'bong'
p317
sI320
S'side'
p318
sI321
S'bone'
p319
sI322
S'mean'
p320
sI323
S'exertion'
p321
sI324
S'calmly'
p322
sI325
S'covered'
p323
sI326
S'laying'
p324
sI327
S'spider'
p325
sI328
S'sled'
p326
sI329
S'waffle'
p327
sI330
S'navy'
p328
sI331
S'ring'
p329
sI332
S'whip'
p330
sI333
S'clothe'
p331
sI334
S'pounce'
p332
sI335
S'large'
p333
sI336
S'rv'
p334
sI337
S'snail'
p335
sI338
S'driving'
p336
sI339
S'oprah'
p337
sI340
S'haired'
p338
sI341
S'cameras'
p339
sI342
S'sparkly'
p340
sI343
S'content'
p341
sI344
S'celling'
p342
sI345
S'surprise'
p343
sI346
S'washer'
p344
sI347
S'forth'
p345
sI348
S'sliding'
p346
sI349
S'bald'
p347
sI350
S'splashed'
p348
sI351
S'turning'
p349
sI352
S'barrier'
p350
sI353
S'resume'
p351
sI354
S'hang'
p352
sI355
S'waddle'
p353
sI356
S'free'
p354
sI357
S'headlights'
p355
sI358
S'rain'
p356
sI359
S'hoodie'
p357
sI360
S'kit'
p358
sI361
S'lollipop'
p359
sI362
S'devishly'
p360
sI363
S'fret'
p361
sI364
S'drench'
p362
sI365
S'aisle'
p363
sI366
S'starts'
p364
sI367
S'chiar'
p365
sI368
S'atm'
p366
sI369
S'shush'
p367
sI370
S'atv'
p368
sI371
S'licked'
p369
sI372
S'disturbed'
p370
sI373
S'dentures'
p371
sI374
S'soda'
p372
sI375
S'onto'
p373
sI376
S'caught'
p374
sI377
S'teh'
p375
sI378
S'dime'
p376
sI379
S'wasp'
p377
sI380
S'hoop'
p378
sI381
S'puck'
p379
sI382
S'accidentally'
p380
sI383
S'handsprings'
p381
sI384
S'wash'
p382
sI385
S'spinning'
p383
sI386
S'another'
p384
sI387
S'unsnap'
p385
sI388
S'comforter'
p386
sI389
S'force'
p387
sI390
S'ditch'
p388
sI391
S'electronic'
p389
sI392
S'hood'
p390
sI393
S'bitten'
p391
sI394
S'toy'
p392
sI395
S'lolypop'
p393
sI396
S'hydrant'
p394
sI397
S'attach'
p395
sI398
S'pensively'
p396
sI399
S'top'
p397
sI400
S'footballer'
p398
sI401
S'girls'
p399
sI402
S'elevator'
p400
sI403
S'overhead'
p401
sI404
S'fumble'
p402
sI405
S'wildly'
p403
sI406
S'critter'
p404
sI407
S'legs'
p405
sI408
S'dogs'
p406
sI409
S'listen'
p407
sI410
S'totter'
p408
sI411
S'ceiling'
p409
sI412
S'solemnly'
p410
sI413
S'collapse'
p411
sI414
S'telekinetic'
p412
sI415
S'happily'
p413
sI416
S'tool'
p414
sI417
S'serve'
p415
sI418
S'beanie'
p416
sI419
S'sneaky'
p417
sI420
S'extended'
p418
sI421
S'stoic'
p419
sI422
S'cereal'
p420
sI423
S'wardrobe'
p421
sI424
S'crawl'
p422
sI425
S'stocking'
p423
sI426
S'character'
p424
sI427
S'distance'
p425
sI428
S'chases'
p426
sI429
S'dissapears'
p427
sI430
S'handcuffs'
p428
sI431
S'tree'
p429
sI432
S'seated'
p430
sI433
S'final'
p431
sI434
S'project'
p432
sI435
S'idle'
p433
sI436
S'silly'
p434
sI437
S'mermaid'
p435
sI438
S'uncaring'
p436
sI439
S'tackled'
p437
sI440
S'prankster'
p438
sI441
S'bridge'
p439
sI442
S'donkey'
p440
sI443
S'handkerchief'
p441
sI444
S'seep'
p442
sI445
S'runner'
p443
sI446
S'ram'
p444
sI447
S'mind'
p445
sI448
S'raw'
p446
sI449
S'rat'
p447
sI450
S'seed'
p448
sI451
S'pompoms'
p449
sI452
S'infront'
p450
sI453
S'rap'
p451
sI454
S'dumbells'
p452
sI455
S'picks'
p453
sI456
S'lettuce'
p454
sI457
S'contents'
p455
sI458
S'ray'
p456
sI459
S'triangle'
p457
sI460
S'ponder'
p458
sI461
S'escalator'
p459
sI462
S'person'
p460
sI463
S'bleachers'
p461
sI464
S'soaked'
p462
sI465
S'snow'
p463
sI466
S'chest'
p464
sI467
S'contact'
p465
sI468
S'bunkbed'
p466
sI469
S'ribbon'
p467
sI470
S'doors'
p468
sI471
S'sleeper'
p469
sI472
S'panties'
p470
sI473
S'rides'
p471
sI474
S'rider'
p472
sI475
S'circles'
p473
sI476
S'blouse'
p474
sI477
S'wrists'
p475
sI478
S'thrilled'
p476
sI479
S'object'
p477
sI480
S'phonograph'
p478
sI481
S'dial'
p479
sI482
S'fencing'
p480
sI483
S'mouth'
p481
sI484
S'letter'
p482
sI485
S'coin'
p483
sI486
S'jean'
p484
sI487
S'glow'
p485
sI488
S'dummy'
p486
sI489
S'singer'
p487
sI490
S'don'
p488
sI491
S'pointe'
p489
sI492
S'nostrils'
p490
sI493
S'partition'
p491
sI494
S'metal'
p492
sI495
S'dog'
p493
sI496
S'dorcas'
p494
sI497
S'competitors'
p495
sI498
S'points'
p496
sI499
S'sun'
p497
sI500
S'pointy'
p498
sI501
S'pretty'
p499
sI502
S'scotch'
p500
sI503
S'scream'
p501
sI504
S'dot'
p502
sI505
S'yank'
p503
sI506
S'saying'
p504
sI507
S'bomb'
p505
sI508
S'subtly'
p506
sI509
S'o'
sI510
S'insects'
p507
sI511
S'crust'
p508
sI512
S'queen'
p509
sI513
S'bloody'
p510
sI514
S'serenely'
p511
sI515
S'chord'
p512
sI516
S'radio'
p513
sI517
S'continuosly'
p514
sI518
S'subtle'
p515
sI519
S'peddle'
p516
sI520
S'unattached'
p517
sI521
S'annoyance'
p518
sI522
S'toast'
p519
sI523
S'crush'
p520
sI524
S'touches'
p521
sI525
S'flowers'
p522
sI526
S'menu'
p523
sI527
S'bust'
p524
sI528
S'sugar'
p525
sI529
S'bush'
p526
sI530
S'simultaneously'
p527
sI531
S'knuckle'
p528
sI532
S'touched'
p529
sI533
S'disgust'
p530
sI534
S'plash'
p531
sI535
S'disguested'
p532
sI536
S'folder'
p533
sI537
S'eyen'
p534
sI538
S'goalie'
p535
sI539
S'rectangle'
p536
sI540
S'wearing'
p537
sI541
S'do'
p538
sI542
S'mixture'
p539
sI543
S'sunglasses'
p540
sI544
S'agape'
p541
sI545
S'sleepy'
p542
sI546
S'toll'
p543
sI547
S'stop'
p544
sI548
S'coast'
p545
sI549
S'pocket'
p546
sI550
S'watermelon'
p547
sI551
S'cushion'
p548
sI552
S'altogether'
p549
sI553
S'report'
p550
sI554
S'having'
p551
sI555
S'audinence'
p552
sI556
S'runs'
p553
sI557
S'bar'
p554
sI558
S'unlatch'
p555
sI559
S'covering'
p556
sI560
S'angery'
p557
sI561
S'tights'
p558
sI562
S'dipping'
p559
sI563
S'guns'
p560
sI564
S'bag'
p561
sI565
S'bad'
p562
sI566
S'inactive'
p563
sI567
S'coke'
p564
sI568
S'shots'
p565
sI569
S'rival'
p566
sI570
S'release'
p567
sI571
S'steak'
p568
sI572
S'steal'
p569
sI573
S'steam'
p570
sI574
S'ears'
p571
sI575
S'respond'
p572
sI576
S'playstation'
p573
sI577
S'fair'
p574
sI578
S'imitate'
p575
sI579
S'graduate'
p576
sI580
S'liquor'
p577
sI581
S'testing'
p578
sI582
S'eleven'
p579
sI583
S'nun'
p580
sI584
S'hush'
p581
sI585
S'intertwine'
p582
sI586
S'fail'
p583
sI587
S'weird'
p584
sI588
S'noodles'
p585
sI589
S'hammer'
p586
sI590
S'screams'
p587
sI591
S'brazil'
p588
sI592
S'away'
p589
sI593
S'sail'
p590
sI594
S'gentleman'
p591
sI595
S'shaved'
p592
sI596
S'artificial'
p593
sI597
S'ringo'
p594
sI598
S'mud'
p595
sI599
S'startle'
p596
sI600
S'score'
p597
sI601
S'finger'
p598
sI602
S'hopefully'
p599
sI603
S'yogurt'
p600
sI604
S'baboon'
p601
sI605
S'approach'
p602
sI606
S'pirate'
p603
sI607
S'360'
p604
sI608
S'warrior'
p605
sI609
S'we'
p606
sI610
S'wears'
p607
sI611
S'extend'
p608
sI612
S'nature'
p609
sI613
S'blaster'
p610
sI614
S'ask'
p611
sI615
S'expectantly'
p612
sI616
S'handful'
p613
sI617
S'veil'
p614
sI618
S'gang'
p615
sI619
S'contort'
p616
sI620
S'lotion'
p617
sI621
S'toothbrush'
p618
sI622
S'snak'
p619
sI623
S'wear'
p620
sI624
S'unfold'
p621
sI625
S'wheelbarrow'
p622
sI626
S'cocconut'
p623
sI627
S'news'
p624
sI628
S'picking'
p625
sI629
S'packages'
p626
sI630
S'apron'
p627
sI631
S'roller'
p628
sI632
S'kitchen'
p629
sI633
S'faced'
p630
sI634
S'cop'
p631
sI635
S'accident'
p632
sI636
S'cot'
p633
sI637
S'cow'
p634
sI638
S'disdain'
p635
sI639
S'observant'
p636
sI640
S'against'
p637
sI641
S'facet'
p638
sI642
S'players'
p639
sI643
S'choked'
p640
sI644
S'crank'
p641
sI645
S'faces'
p642
sI646
S'uni'
p643
sI647
S'argue'
p644
sI648
S'disappears'
p645
sI649
S'con'
p646
sI650
S'widen'
p647
sI651
S'pose'
p648
sI652
S'appeared'
p649
sI653
S'strech'
p650
sI654
S'helplessly'
p651
sI655
S'gopher'
p652
sI656
S'ollies'
p653
sI657
S'2nd'
p654
sI658
S'flames'
p655
sI659
S'inquisitive'
p656
sI660
S'wider'
p657
sI661
S'blonde'
p658
sI662
S'hysterically'
p659
sI663
S'conference'
p660
sI664
S'putt'
p661
sI665
S'bathroom'
p662
sI666
S'puts'
p663
sI667
S'forard'
p664
sI668
S'fingets'
p665
sI669
S'beel'
p666
sI670
S'three'
p667
sI671
S'erect'
p668
sI672
S'quickly'
p669
sI673
S'tensioned'
p670
sI674
S'beer'
p671
sI675
S'trigger'
p672
sI676
S'interest'
p673
sI677
S'basic'
p674
sI678
S'yoyo'
p675
sI679
S'fry'
p676
sI680
S'containers'
p677
sI681
S'teenager'
p678
sI682
S'baloon'
p679
sI683
S'life'
p680
sI684
S'deeper'
p681
sI685
S'spit'
p682
sI686
S'attacked'
p683
sI687
S'skiis'
p684
sI688
S'dismiss'
p685
sI689
S'excite'
p686
sI690
S'teenagers'
p687
sI691
S'attacker'
p688
sI692
S'lift'
p689
sI693
S'hoist'
p690
sI694
S'alley'
p691
sI695
S'chile'
p692
sI696
S'child'
p693
sI697
S'catch'
p694
sI698
S'comfortable'
p695
sI699
S'spin'
p696
sI700
S'carriage'
p697
sI701
S'terse'
p698
sI702
S'chill'
p699
sI703
S'save'
p700
sI704
S'tank'
p701
sI705
S'drumset'
p702
sI706
S'shrink'
p703
sI707
S'taper'
p704
sI708
S'cracker'
p705
sI709
S'air'
p706
sI710
S'aim'
p707
sI711
S'ugly'
p708
sI712
S'lizard'
p709
sI713
S'finder'
p710
sI714
S'coffin'
p711
sI715
S'thrash'
p712
sI716
S'sticked'
p713
sI717
S'prostrate'
p714
sI718
S'reunion'
p715
sI719
S'leaves'
p716
sI720
S'cab'
p717
sI721
S'forwar'
p718
sI722
S'cylinder'
p719
sI723
S'cane'
p720
sI724
S'handrail'
p721
sI725
S'is'
p722
sI726
S'it'
p723
sI727
S'sting'
p724
sI728
S'player'
p725
sI729
S'tissue'
p726
sI730
S'cone'
p727
sI731
S'in'
p728
sI732
S'violin'
p729
sI733
S"girls'"
p730
sI734
S'mouse'
p731
sI735
S'id'
p732
sI736
S'disappear'
p733
sI737
S'if'
p734
sI738
S'grown'
p735
sI739
S'growl'
p736
sI740
S'bottles'
p737
sI741
S'descent'
p738
sI742
S'credit'
p739
sI743
S'perform'
p740
sI744
S'things'
p741
sI745
S'make'
p742
sI746
S'toaster'
p743
sI747
S'forehead'
p744
sI748
S'grapple'
p745
sI749
S'upon'
p746
sI750
S'descend'
p747
sI751
S'vegetable'
p748
sI752
S'several'
p749
sI753
S'bunny'
p750
sI754
S'bells'
p751
sI755
S'wheel'
p752
sI756
S'outstretch'
p753
sI757
S'moose'
p754
sI758
S'basketballs'
p755
sI759
S'fuss'
p756
sI760
S'rail'
p757
sI761
S'evil'
p758
sI762
S'hand'
p759
sI763
S'photographers'
p760
sI764
S'hooded'
p761
sI765
S'someting'
p762
sI766
S'bouncy'
p763
sI767
S'unicorn'
p764
sI768
S'funitures'
p765
sI769
S'thoughts'
p766
sI770
S'kid'
p767
sI771
S'butter'
p768
sI772
S'buckle'
p769
sI773
S'smokes'
p770
sI774
S'pause'
p771
sI775
S'deal'
p772
sI776
S'ocean'
p773
sI777
S'boxer'
p774
sI778
S'tombstone'
p775
sI779
S'mother'
p776
sI780
S'hearts'
p777
sI781
S'the'
p778
sI782
S'smoked'
p779
sI783
S'musical'
p780
sI784
S'left'
p781
sI785
S'snowman'
p782
sI786
S'trainer'
p783
sI787
S'appease'
p784
sI788
S'just'
p785
sI789
S'kinky'
p786
sI790
S'photo'
p787
sI791
S'laptop'
p788
sI792
S'moonwalk'
p789
sI793
S'pushups'
p790
sI794
S'rodent'
p791
sI795
S'disguise'
p792
sI796
S'thumbs'
p793
sI797
S'human'
p794
sI798
S'shuffle'
p795
sI799
S'yes'
p796
sI800
S'brandish'
p797
sI801
S'divide'
p798
sI802
S'vomitting'
p799
sI803
S'adding'
p800
sI804
S'handshake'
p801
sI805
S'spectacles'
p802
sI806
S'nudge'
p803
sI807
S'ham'
p804
sI808
S'furry'
p805
sI809
S'ease'
p806
sI810
S'elf'
p807
sI811
S'tattoo'
p808
sI812
S'hay'
p809
sI813
S'shout'
p810
sI814
S'spread'
p811
sI815
S'banger'
p812
sI816
S'board'
p813
sI817
S'has'
p814
sI818
S'hat'
p815
sI819
S'erratically'
p816
sI820
S'ingredient'
p817
sI821
S'turquoise'
p818
sI822
S'knock'
p819
sI823
S'feets'
p820
sI824
S'angrily'
p821
sI825
S'dismount'
p822
sI826
S'beast'
p823
sI827
S'background'
p824
sI828
S'destroy'
p825
sI829
S'cape'
p826
sI830
S'shadow'
p827
sI831
S'replace'
p828
sI832
S'retreat'
p829
sI833
S'apart'
p830
sI834
S'shoulder'
p831
sI835
S'seductive'
p832
sI836
S'scan'
p833
sI837
S'gift'
p834
sI838
S'diving'
p835
sI839
S'visor'
p836
sI840
S'nude'
p837
sI841
S'hunt'
p838
sI842
S'zoom'
p839
sI843
S'cooler'
p840
sI844
S'pavement'
p841
sI845
S'steps'
p842
sI846
S'officer'
p843
sI847
S'zombies'
p844
sI848
S'night'
p845
sI849
S'security'
p846
sI850
S'pillar'
p847
sI851
S'butterfly'
p848
sI852
S'right'
p849
sI853
S'old'
p850
sI854
S'crowd'
p851
sI855
S'people'
p852
sI856
S'understand'
p853
sI857
S'crown'
p854
sI858
S'dead'
p855
sI859
S'hoodlie'
p856
sI860
S'scrabble'
p857
sI861
S'escape'
p858
sI862
S'multiple'
p859
sI863
S'bore'
p860
sI864
S'creep'
p861
sI865
S'congratulate'
p862
sI866
S'for'
p863
sI867
S'bottom'
p864
sI868
S'purple'
p865
sI869
S'entering'
p866
sI870
S'opposite'
p867
sI871
S'fox'
p868
sI872
S'ice'
p869
sI873
S'rhino'
p870
sI874
S'sledge'
p871
sI875
S'fog'
p872
sI876
S'trunks'
p873
sI877
S'motorist'
p874
sI878
S'treadmill'
p875
sI879
S'skateboarder'
p876
sI880
S'christmas'
p877
sI881
S'cord'
p878
sI882
S'peek'
p879
sI883
S'shakes'
p880
sI884
S'bold'
p881
sI885
S'peel'
p882
sI886
S'corn'
p883
sI887
S'burn'
p884
sI888
S'disappeared'
p885
sI889
S'sift'
p886
sI890
S'criminals'
p887
sI891
S'relationship'
p888
sI892
S'burp'
p889
sI893
S'defensive'
p890
sI894
S'peer'
p891
sI895
S'post'
p892
sI896
S'bury'
p893
sI897
S'yoko'
p894
sI898
S'plug'
p895
sI899
S'slither'
p896
sI900
S'yelling'
p897
sI901
S'compeletes'
p898
sI902
S'attacks'
p899
sI903
S'v'
sI904
S'choke'
p900
sI905
S'rolled'
p901
sI906
S'intertwined'
p902
sI907
S'magazine'
p903
sI908
S'spins'
p904
sI909
S'horizon'
p905
sI910
S'hocky'
p906
sI911
S'twitch'
p907
sI912
S'slightly'
p908
sI913
S'hospital'
p909
sI914
S'meerkat'
p910
sI915
S'jacques'
p911
sI916
S'this'
p912
sI917
S'sob'
p913
sI918
S'mircophone'
p914
sI919
S'somekind'
p915
sI920
S'sock'
p916
sI921
S'selfie'
p917
sI922
S'float'
p918
sI923
S'matchstick'
p919
sI924
S'bath'
p920
sI925
S'down'
p921
sI926
S'fumes'
p922
sI927
S'escaltor'
p923
sI928
S'raises'
p924
sI929
S'wrap'
p925
sI930
S'shoots'
p926
sI931
S'frightened'
p927
sI932
S'stumble'
p928
sI933
S'strangely'
p929
sI934
S'unclip'
p930
sI935
S'cigarrett'
p931
sI936
S'fabric'
p932
sI937
S'wag'
p933
sI938
S'support'
p934
sI939
S'wad'
p935
sI940
S'transform'
p936
sI941
S'fight'
p937
sI942
S'forhead'
p938
sI943
S'stuck'
p939
sI944
S'been'
p940
sI945
S'way'
p941
sI946
S'faceplants'
p942
sI947
S'music'
p943
sI948
S'was'
p944
sI949
S'halls'
p945
sI950
S'ten'
p946
sI951
S'teddybear'
p947
sI952
S'questionable'
p948
sI953
S'head'
p949
sI954
S'pirouette'
p950
sI955
S'offer'
p951
sI956
S'proudly'
p952
sI957
S'spirit'
p953
sI958
S'fireworks'
p954
sI959
S'removes'
p955
sI960
S'landing'
p956
sI961
S'back'
p957
sI962
S'bags'
p958
sI963
S'heat'
p959
sI964
S'uncle'
p960
sI965
S'diaper'
p961
sI966
S'contempt'
p962
sI967
S'restraints'
p963
sI968
S'astonished'
p964
sI969
S'turtle'
p965
sI970
S'digusted'
p966
sI971
S'otter'
p967
sI972
S'chandelier'
p968
sI973
S'mouthed'
p969
sI974
S'megaphone'
p970
sI975
S'slope'
p971
sI976
S'goggle'
p972
sI977
S'inside'
p973
sI978
S'attached'
p974
sI979
S'lips'
p975
sI980
S'devices'
p976
sI981
S'tell'
p977
sI982
S'decorate'
p978
sI983
S'how'
p979
sI984
S'smashed'
p980
sI985
S'emotional'
p981
sI986
S'mountain'
p982
sI987
S'daddy'
p983
sI988
S'trim'
p984
sI989
S'passenger'
p985
sI990
S'later'
p986
sI991
S'sticks'
p987
sI992
S'toss'
p988
sI993
S'stain'
p989
sI994
S'covers'
p990
sI995
S'sticky'
p991
sI996
S'soothe'
p992
sI997
S'exist'
p993
sI998
S'revitalize'
p994
sI999
S'candle'
p995
sI1000
S'swatter'
p996
sI1001
S'floating'
p997
sI1002
S'annoying'
p998
sI1003
S'mold'
p999
sI1004
S'check'
p1000
sI1005
S'forwared'
p1001
sI1006
S'looked'
p1002
sI1007
S'engines'
p1003
sI1008
S'leer'
p1004
sI1009
S'saber'
p1005
sI1010
S'dotted'
p1006
sI1011
S'no'
p1007
sI1012
S'stake'
p1008
sI1013
S'when'
p1009
sI1014
S'ne'
p1010
sI1015
S'actor'
p1011
sI1016
S'til'
p1012
sI1017
S'rioters'
p1013
sI1018
S'tin'
p1014
sI1019
S'interested'
p1015
sI1020
S'holding'
p1016
sI1021
S'papers'
p1017
sI1022
S'test'
p1018
sI1023
S'tie'
p1019
sI1024
S'smell'
p1020
sI1025
S'roll'
p1021
sI1026
S'realize'
p1022
sI1027
S'scowl'
p1023
sI1028
S'node'
p1024
sI1029
S'picture'
p1025
sI1030
S"'s"
p1026
sI1031
S'brothers'
p1027
sI1032
S'sling'
p1028
sI1033
S'models'
p1029
sI1034
S'slink'
p1030
sI1035
S'football'
p1031
sI1036
S'fell'
p1032
sI1037
S'award'
p1033
sI1038
S'nods'
p1034
sI1039
S'scores'
p1035
sI1040
S'rolling'
p1036
sI1041
S'stoke'
p1037
sI1042
S'swimsuit'
p1038
sI1043
S'gets'
p1039
sI1044
S'tugboat'
p1040
sI1045
S'younger'
p1041
sI1046
S'undisturbed'
p1042
sI1047
S'bullet'
p1043
sI1048
S'glass'
p1044
sI1049
S'assume'
p1045
sI1050
S'vigorously'
p1046
sI1051
S'flag'
p1047
sI1052
S'together'
p1048
sI1053
S'jacket'
p1049
sI1054
S'gorilla'
p1050
sI1055
S'gyrate'
p1051
sI1056
S'classmate'
p1052
sI1057
S'teeth'
p1053
sI1058
S'push'
p1054
sI1059
S'serious'
p1055
sI1060
S'rib'
p1056
sI1061
S'backward'
p1057
sI1062
S'worried'
p1058
sI1063
S'neighbors'
p1059
sI1064
S'gown'
p1060
sI1065
S'coach'
p1061
sI1066
S'newbie'
p1062
sI1067
S'doctor'
p1063
sI1068
S'chain'
p1064
sI1069
S'dance'
p1065
sI1070
S'skip'
p1066
sI1071
S'relieve'
p1067
sI1072
S'rod'
p1068
sI1073
S'focus'
p1069
sI1074
S'sympathetic'
p1070
sI1075
S'snip'
p1071
sI1076
S'crocodile'
p1072
sI1077
S'skate'
p1073
sI1078
S'skim'
p1074
sI1079
S'microwave'
p1075
sI1080
S'skin'
p1076
sI1081
S'trashcan'
p1077
sI1082
S'chair'
p1078
sI1083
S'skid'
p1079
sI1084
S'spike'
p1080
sI1085
S'row'
p1081
sI1086
S'varnish'
p1082
sI1087
S'grape'
p1083
sI1088
S'somthing'
p1084
sI1089
S'cupped'
p1085
sI1090
S'flask'
p1086
sI1091
S'hump'
p1087
sI1092
S'flash'
p1088
sI1093
S'father'
p1089
sI1094
S'dorsum'
p1090
sI1095
S'thighs'
p1091
sI1096
S'amaze'
p1092
sI1097
S'charge'
p1093
sI1098
S'vee'
p1094
sI1099
S'diktat'
p1095
sI1100
S'stove'
p1096
sI1101
S'eybrows'
p1097
sI1102
S'brown'
p1098
sI1103
S'smartphone'
p1099
sI1104
S'string'
p1100
sI1105
S'jerk'
p1101
sI1106
S'fawcet'
p1102
sI1107
S'sloppy'
p1103
sI1108
S'vaccuum'
p1104
sI1109
S'kitten'
p1105
sI1110
S'cook'
p1106
sI1111
S'join'
p1107
sI1112
S'airing'
p1108
sI1113
S'blast'
p1109
sI1114
S'cool'
p1110
sI1115
S'dim'
p1111
sI1116
S'stapler'
p1112
sI1117
S'nectar'
p1113
sI1118
S'level'
p1114
sI1119
S'tear'
p1115
sI1120
S'turns'
p1116
sI1121
S'dig'
p1117
sI1122
S'posts'
p1118
sI1123
S'gun'
p1119
sI1124
S'gum'
p1120
sI1125
S'leave'
p1121
sI1126
S'item'
p1122
sI1127
S'fornt'
p1123
sI1128
S'settle'
p1124
sI1129
S'grimace'
p1125
sI1130
S'guitars'
p1126
sI1131
S'team'
p1127
sI1132
S'quick'
p1128
sI1133
S'lever'
p1129
sI1134
S'guy'
p1130
sI1135
S'dip'
p1131
sI1136
S'round'
p1132
sI1137
S'unaware'
p1133
sI1138
S'parked'
p1134
sI1139
S'shave'
p1135
sI1140
S'upper'
p1136
sI1141
S'work'
p1137
sI1142
S'temples'
p1138
sI1143
S'tougher'
p1139
sI1144
S'attic'
p1140
sI1145
S'sigh'
p1141
sI1146
S'agitate'
p1142
sI1147
S'sign'
p1143
sI1148
S'heavyweight'
p1144
sI1149
S'shirts'
p1145
sI1150
S'run'
p1146
sI1151
S'fear'
p1147
sI1152
S'drinks'
p1148
sI1153
S'headset'
p1149
sI1154
S'stands'
p1150
sI1155
S'convulse'
p1151
sI1156
S'melt'
p1152
sI1157
S'uniform'
p1153
sI1158
S'wriggle'
p1154
sI1159
S'cuddle'
p1155
sI1160
S'falling'
p1156
sI1161
S'ground'
p1157
sI1162
S'badge'
p1158
sI1163
S'wheelies'
p1159
sI1164
S'satisfy'
p1160
sI1165
S'trampoline'
p1161
sI1166
S'explosion'
p1162
sI1167
S'makeup'
p1163
sI1168
S'rug'
p1164
sI1169
S'water'
p1165
sI1170
S'contemplate'
p1166
sI1171
S'gnaw'
p1167
sI1172
S'baseball'
p1168
sI1173
S'address'
p1169
sI1174
S'alone'
p1170
sI1175
S'along'
p1171
sI1176
S'cork'
p1172
sI1177
S'teacher'
p1173
sI1178
S'change'
p1174
sI1179
S'wait'
p1175
sI1180
S'box'
p1176
sI1181
S'boy'
p1177
sI1182
S'beanbag'
p1178
sI1183
S'arc'
p1179
sI1184
S'shove'
p1180
sI1185
S'aloft'
p1181
sI1186
S'shift'
p1182
sI1187
S'scooters'
p1183
sI1188
S'horrified'
p1184
sI1189
S'bow'
p1185
sI1190
S'brighten'
p1186
sI1191
S'raccoon'
p1187
sI1192
S'bob'
p1188
sI1193
S'amrs'
p1189
sI1194
S'pillow'
p1190
sI1195
S'massage'
p1191
sI1196
S'sewer'
p1192
sI1197
S'emerge'
p1193
sI1198
S'breathtaking'
p1194
sI1199
S'love'
p1195
sI1200
S'somersaults'
p1196
sI1201
S'jar'
p1197
sI1202
S'pony'
p1198
sI1203
S'jolt'
p1199
sI1204
S'uphill'
p1200
sI1205
S'keeper'
p1201
sI1206
S'snowboard'
p1202
sI1207
S'fake'
p1203
sI1208
S'touchdown'
p1204
sI1209
S'quiver'
p1205
sI1210
S'forefront'
p1206
sI1211
S'should'
p1207
sI1212
S'bended'
p1208
sI1213
S'streetcar'
p1209
sI1214
S'working'
p1210
sI1215
S'perk'
p1211
sI1216
S'headstone'
p1212
sI1217
S'angry'
p1213
sI1218
S'dangle'
p1214
sI1219
S'dude'
p1215
sI1220
S'only'
p1216
sI1221
S'tightly'
p1217
sI1222
S'intense'
p1218
sI1223
S'live'
p1219
sI1224
S'prey'
p1220
sI1225
S'somersault'
p1221
sI1226
S'tape'
p1222
sI1227
S'sharpen'
p1223
sI1228
S'thru'
p1224
sI1229
S'squid'
p1225
sI1230
S'intently'
p1226
sI1231
S'scratched'
p1227
sI1232
S'trophy'
p1228
sI1233
S'entrance'
p1229
sI1234
S'gloved'
p1230
sI1235
S'club'
p1231
sI1236
S'flying'
p1232
sI1237
S'getting'
p1233
sI1238
S'envelope'
p1234
sI1239
S'chocolate'
p1235
sI1240
S'everywhere'
p1236
sI1241
S'fingered'
p1237
sI1242
S'eyeglass'
p1238
sI1243
S'piano'
p1239
sI1244
S'mascot'
p1240
sI1245
S'fly'
p1241
sI1246
S'collision'
p1242
sI1247
S'car'
p1243
sI1248
S'pretend'
p1244
sI1249
S'beaver'
p1245
sI1250
S'cat'
p1246
sI1251
S'strain'
p1247
sI1252
S'meow'
p1248
sI1253
S'sour'
p1249
sI1254
S'can'
p1250
sI1255
S'cam'
p1251
sI1256
S'cal'
p1252
sI1257
S'following'
p1253
sI1258
S'making'
p1254
sI1259
S'abandon'
p1255
sI1260
S'interstate'
p1256
sI1261
S'bites'
p1257
sI1262
S'champion'
p1258
sI1263
S'heart'
p1259
sI1264
S'crazy'
p1260
sI1265
S'performer'
p1261
sI1266
S'earphone'
p1262
sI1267
S'grassy'
p1263
sI1268
S'figure'
p1264
sI1269
S'chis'
p1265
sI1270
S'chip'
p1266
sI1271
S'confused'
p1267
sI1272
S'expectant'
p1268
sI1273
S'parachute'
p1269
sI1274
S'drawer'
p1270
sI1275
S'stroke'
p1271
sI1276
S'abort'
p1272
sI1277
S'chin'
p1273
sI1278
S'dropped'
p1274
sI1279
S'pond'
p1275
sI1280
S'topple'
p1276
sI1281
S'pong'
p1277
sI1282
S'pink'
p1278
sI1283
S'indifferent'
p1279
sI1284
S'plyometrics'
p1280
sI1285
S'rubix'
p1281
sI1286
S'savor'
p1282
sI1287
S'tilt'
p1283
sI1288
S'ping'
p1284
sI1289
S'cloak'
p1285
sI1290
S'freezer'
p1286
sI1291
S'write'
p1287
sI1292
S'till'
p1288
sI1293
S'emotionless'
p1289
sI1294
S'earpiece'
p1290
sI1295
S'sword'
p1291
sI1296
S'elephant'
p1292
sI1297
S'tile'
p1293
sI1298
S'speaks'
p1294
sI1299
S'fingle'
p1295
sI1300
S'holdig'
p1296
sI1301
S'map'
p1297
sI1302
S'mat'
p1298
sI1303
S'cocktail'
p1299
sI1304
S'broad'
p1300
sI1305
S'dive'
p1301
sI1306
S'spot'
p1302
sI1307
S'staris'
p1303
sI1308
S'disgusted'
p1304
sI1309
S'crashed'
p1305
sI1310
S'birthday'
p1306
sI1311
S'carmera'
p1307
sI1312
S'mad'
p1308
sI1313
S'noise'
p1309
sI1314
S'downword'
p1310
sI1315
S'tablecloth'
p1311
sI1316
S'guys'
p1312
sI1317
S'wagging'
p1313
sI1318
S'lifting'
p1314
sI1319
S'man'
p1315
sI1320
S'classroom'
p1316
sI1321
S'stress'
p1317
sI1322
S'pins'
p1318
sI1323
S'natural'
p1319
sI1324
S'neck'
p1320
sI1325
S'liquid'
p1321
sI1326
S'beam'
p1322
sI1327
S'drumsticks'
p1323
sI1328
S'amuse'
p1324
sI1329
S'payphone'
p1325
sI1330
S'fine'
p1326
sI1331
S'st'
p1327
sI1332
S'q'
sI1333
S'switch'
p1328
sI1334
S'truck'
p1329
sI1335
S'deposit'
p1330
sI1336
S'dimple'
p1331
sI1337
S'basket'
p1332
sI1338
S'tall'
p1333
sI1339
S'pulled'
p1334
sI1340
S'crumple'
p1335
sI1341
S'talk'
p1336
sI1342
S'shoes'
p1337
sI1343
S'blocker'
p1338
sI1344
S'gournd'
p1339
sI1345
S'flips'
p1340
sI1346
S'playful'
p1341
sI1347
S'course'
p1342
sI1348
S'counterclockwise'
p1343
sI1349
S'shake'
p1344
sI1350
S'horrify'
p1345
sI1351
S'still'
p1346
sI1352
S'birds'
p1347
sI1353
S'froze'
p1348
sI1354
S'limbs'
p1349
sI1355
S'police'
p1350
sI1356
S'thumb'
p1351
sI1357
S'curly'
p1352
sI1358
S'acknowledge'
p1353
sI1359
S'duplex'
p1354
sI1360
S'handgun'
p1355
sI1361
S'cheerleaders'
p1356
sI1362
S'groud'
p1357
sI1363
S'platform'
p1358
sI1364
S'window'
p1359
sI1365
S'suspicion'
p1360
sI1366
S'thump'
p1361
sI1367
S'mail'
p1362
sI1368
S'main'
p1363
sI1369
S'tiara'
p1364
sI1370
S'kissy'
p1365
sI1371
S'busy'
p1366
sI1372
S'roses'
p1367
sI1373
S'halt'
p1368
sI1374
S'fling'
p1369
sI1375
S'nod'
p1370
sI1376
S'extinguished'
p1371
sI1377
S'shatter'
p1372
sI1378
S'solomn'
p1373
sI1379
S'rearview'
p1374
sI1380
S'underneath'
p1375
sI1381
S'interview'
p1376
sI1382
S'gate'
p1377
sI1383
S'not'
p1378
sI1384
S'hall'
p1379
sI1385
S'possess'
p1380
sI1386
S'wagon'
p1381
sI1387
S'execute'
p1382
sI1388
S'aersol'
p1383
sI1389
S'clutch'
p1384
sI1390
S'drop'
p1385
sI1391
S'arrows'
p1386
sI1392
S'synchronize'
p1387
sI1393
S'nodding'
p1388
sI1394
S'triceps'
p1389
sI1395
S'hijack'
p1390
sI1396
S'quarter'
p1391
sI1397
S'individually'
p1392
sI1398
S'square'
p1393
sI1399
S'retrieve'
p1394
sI1400
S'elephants'
p1395
sI1401
S'torch'
p1396
sI1402
S'plant'
p1397
sI1403
S'goose'
p1398
sI1404
S'soy'
p1399
sI1405
S'unlock'
p1400
sI1406
S'unwrapped'
p1401
sI1407
S'skydiver'
p1402
sI1408
S'challenge'
p1403
sI1409
S'cigare'
p1404
sI1410
S'girl'
p1405
sI1411
S'calling'
p1406
sI1412
S'pills'
p1407
sI1413
S'es'
p1408
sI1414
S'briefcase'
p1409
sI1415
S'troll'
p1410
sI1416
S'naked'
p1411
sI1417
S'canvas'
p1412
sI1418
S'container'
p1413
sI1419
S'opened'
p1414
sI1420
S'space'
p1415
sI1421
S'lavishly'
p1416
sI1422
S'skates'
p1417
sI1423
S'rolls'
p1418
sI1424
S'looking'
p1419
sI1425
S'seriously'
p1420
sI1426
S'leaving'
p1421
sI1427
S'scope'
p1422
sI1428
S'catapult'
p1423
sI1429
S'formula'
p1424
sI1430
S'eyebraws'
p1425
sI1431
S'shows'
p1426
sI1432
S'maneuver'
p1427
sI1433
S'goth'
p1428
sI1434
S'hula'
p1429
sI1435
S'monster'
p1430
sI1436
S'thong'
p1431
sI1437
S'sideways'
p1432
sI1438
S'envelop'
p1433
sI1439
S'cart'
p1434
sI1440
S'kitechen'
p1435
sI1441
S'bumps'
p1436
sI1442
S'mime'
p1437
sI1443
S'lab'
p1438
sI1444
S'intensely'
p1439
sI1445
S'notary'
p1440
sI1446
S'inhaler'
p1441
sI1447
S'cough'
p1442
sI1448
S'sandwhich'
p1443
sI1449
S'clown'
p1444
sI1450
S'card'
p1445
sI1451
S'care'
p1446
sI1452
S'underwear'
p1447
sI1453
S'eyebral'
p1448
sI1454
S'question'
p1449
sI1455
S'waiter'
p1450
sI1456
S'flare'
p1451
sI1457
S'telekinetically'
p1452
sI1458
S'headphones'
p1453
sI1459
S'tries'
p1454
sI1460
S'ostrich'
p1455
sI1461
S'motion'
p1456
sI1462
S'turn'
p1457
sI1463
S'plane'
p1458
sI1464
S'place'
p1459
sI1465
S'silently'
p1460
sI1466
S'swing'
p1461
sI1467
S'skiing'
p1462
sI1468
S'view'
p1463
sI1469
S'think'
p1464
sI1470
S'teammates'
p1465
sI1471
S'first'
p1466
sI1472
S'emotion'
p1467
sI1473
S'cheese'
p1468
sI1474
S'suspend'
p1469
sI1475
S'zag'
p1470
sI1476
S'coming'
p1471
sI1477
S'flipping'
p1472
sI1478
S'one'
p1473
sI1479
S'beige'
p1474
sI1480
S'long'
p1475
sI1481
S'directly'
p1476
sI1482
S'carry'
p1477
sI1483
S'message'
p1478
sI1484
S'open'
p1479
sI1485
S"'em"
p1480
sI1486
S'guitarists'
p1481
sI1487
S'sheep'
p1482
sI1488
S'city'
p1483
sI1489
S'little'
p1484
sI1490
S'rightmost'
p1485
sI1491
S'sheet'
p1486
sI1492
S'silent'
p1487
sI1493
S'lap'
p1488
sI1494
S'bite'
p1489
sI1495
S'puppies'
p1490
sI1496
S'whits'
p1491
sI1497
S'flutter'
p1492
sI1498
S'pirates'
p1493
sI1499
S'checker'
p1494
sI1500
S'rein'
p1495
sI1501
S'carousel'
p1496
sI1502
S'typing'
p1497
sI1503
S'white'
p1498
sI1504
S'bits'
p1499
sI1505
S'frame'
p1500
sI1506
S'friend'
p1501
sI1507
S'gives'
p1502
sI1508
S'eyes'
p1503
sI1509
S'hug'
p1504
sI1510
S'that'
p1505
sI1511
S'memo'
p1506
sI1512
S'waistline'
p1507
sI1513
S'snatch'
p1508
sI1514
S'padding'
p1509
sI1515
S'eyed'
p1510
sI1516
S'butt'
p1511
sI1517
S'grunt'
p1512
sI1518
S'photographic'
p1513
sI1519
S'boyfriend'
p1514
sI1520
S'11'
p1515
sI1521
S'wide'
p1516
sI1522
S'cower'
p1517
sI1523
S'poolstick'
p1518
sI1524
S'karate'
p1519
sI1525
S'knives'
p1520
sI1526
S'nieghbor'
p1521
sI1527
S'cymbals'
p1522
sI1528
S'extinguish'
p1523
sI1529
S'happy'
p1524
sI1530
S'dissapointed'
p1525
sI1531
S'tractor'
p1526
sI1532
S'and'
p1527
sI1533
S'fork'
p1528
sI1534
S'coconut'
p1529
sI1535
S'lick'
p1530
sI1536
S'angel'
p1531
sI1537
S'flyswatter'
p1532
sI1538
S'turned'
p1533
sI1539
S'slap'
p1534
sI1540
S'sad'
p1535
sI1541
S'say'
p1536
sI1542
S'slam'
p1537
sI1543
S'camouflages'
p1538
sI1544
S'pastry'
p1539
sI1545
S'anger'
p1540
sI1546
S'recover'
p1541
sI1547
S'saw'
p1542
sI1548
S'any'
p1543
sI1549
S'batting'
p1544
sI1550
S'speakers'
p1545
sI1551
S'squat'
p1546
sI1552
S'form'
p1547
sI1553
S'cigarettes'
p1548
sI1554
S'stabalized'
p1549
sI1555
S'snowy'
p1550
sI1556
S'downwards'
p1551
sI1557
S'aside'
p1552
sI1558
S'shocked'
p1553
sI1559
S'note'
p1554
sI1560
S'equipment'
p1555
sI1561
S'excitiement'
p1556
sI1562
S'take'
p1557
sI1563
S'batman'
p1558
sI1564
S'upside'
p1559
sI1565
S'tambourine'
p1560
sI1566
S'channel'
p1561
sI1567
S'surf'
p1562
sI1568
S'begin'
p1563
sI1569
S'printer'
p1564
sI1570
S'pain'
p1565
sI1571
S'trace'
p1566
sI1572
S'normal'
p1567
sI1573
S'track'
p1568
sI1574
S'sidways'
p1569
sI1575
S'tensionly'
p1570
sI1576
S'enter'
p1571
sI1577
S'falls'
p1572
sI1578
S'sunglass'
p1573
sI1579
S'multiply'
p1574
sI1580
S'knee'
p1575
sI1581
S'awestrucked'
p1576
sI1582
S'america'
p1577
sI1583
S'pages'
p1578
sI1584
S'lawn'
p1579
sI1585
S'vapor'
p1580
sI1586
S'dragonfly'
p1581
sI1587
S'boys'
p1582
sI1588
S'napkin'
p1583
sI1589
S'steady'
p1584
sI1590
S'drive'
p1585
sI1591
S'arounds'
p1586
sI1592
S'crooked'
p1587
sI1593
S'reaction'
p1588
sI1594
S'aerosol'
p1589
sI1595
S'squint'
p1590
sI1596
S'slaves'
p1591
sI1597
S'axe'
p1592
sI1598
S'hear'
p1593
sI1599
S'hedgehog'
p1594
sI1600
S'salt'
p1595
sI1601
S'sunset'
p1596
sI1602
S'corrie'
p1597
sI1603
S'tuba'
p1598
sI1604
S'shop'
p1599
sI1605
S'perch'
p1600
sI1606
S'walking'
p1601
sI1607
S'drastically'
p1602
sI1608
S'shot'
p1603
sI1609
S'show'
p1604
sI1610
S'glaze'
p1605
sI1611
S'trun'
p1606
sI1612
S'mcirophone'
p1607
sI1613
S'elevate'
p1608
sI1614
S'bright'
p1609
sI1615
S'shoe'
p1610
sI1616
S'corner'
p1611
sI1617
S'aggressive'
p1612
sI1618
S'groung'
p1613
sI1619
S'crane'
p1614
sI1620
S'trot'
p1615
sI1621
S'slot'
p1616
sI1622
S'dogtag'
p1617
sI1623
S'slow'
p1618
sI1624
S'stair'
p1619
sI1625
S'title'
p1620
sI1626
S'gourd'
p1621
sI1627
S'eyebrowns'
p1622
sI1628
S'pump'
p1623
sI1629
S'gulp'
p1624
sI1630
S'foward'
p1625
sI1631
S'oponent'
p1626
sI1632
S'wood'
p1627
sI1633
S'black'
p1628
sI1634
S'hockey'
p1629
sI1635
S'incredulous'
p1630
sI1636
S'outrage'
p1631
sI1637
S'identification'
p1632
sI1638
S'robe'
p1633
sI1639
S'cheeck'
p1634
sI1640
S'pumpkin'
p1635
sI1641
S'hippo'
p1636
sI1642
S'yogart'
p1637
sI1643
S'correctly'
p1638
sI1644
S'get'
p1639
sI1645
S'cannon'
p1640
sI1646
S'stomp'
p1641
sI1647
S'between'
p1642
sI1648
S'wheelie'
p1643
sI1649
S'nearly'
p1644
sI1650
S'submerge'
p1645
sI1651
S'hedge'
p1646
sI1652
S'celebrate'
p1647
sI1653
S'reveal'
p1648
sI1654
S'batan'
p1649
sI1655
S'artist'
p1650
sI1656
S'leather'
p1651
sI1657
S'median'
p1652
sI1658
S'checks'
p1653
sI1659
S'joker'
p1654
sI1660
S'jacuzzi'
p1655
sI1661
S'primp'
p1656
sI1662
S'uncover'
p1657
sI1663
S'tent'
p1658
sI1664
S'where'
p1659
sI1665
S"friends'"
p1660
sI1666
S'picnic'
p1661
sI1667
S'milling'
p1662
sI1668
S'burst'
p1663
sI1669
S'sleeves'
p1664
sI1670
S'sear'
p1665
sI1671
S'twin'
p1666
sI1672
S'sqats'
p1667
sI1673
S'seat'
p1668
sI1674
S'asleep'
p1669
sI1675
S'egde'
p1670
sI1676
S'seal'
p1671
sI1677
S'separately'
p1672
sI1678
S'smashes'
p1673
sI1679
S'acrobatically'
p1674
sI1680
S'concern'
p1675
sI1681
S'kibble'
p1676
sI1682
S'man4'
p1677
sI1683
S'parent'
p1678
sI1684
S'bicyclist'
p1679
sI1685
S'ways'
p1680
sI1686
S'opening'
p1681
sI1687
S'ornament'
p1682
sI1688
S'label'
p1683
sI1689
S'teacup'
p1684
sI1690
S'firewood'
p1685
sI1691
S'outside'
p1686
sI1692
S'behine'
p1687
sI1693
S'hiss'
p1688
sI1694
S'enjoys'
p1689
sI1695
S'across'
p1690
sI1696
S'whipped'
p1691
sI1697
S'notice'
p1692
sI1698
S'checkered'
p1693
sI1699
S'warding'
p1694
sI1700
S'vertical'
p1695
sI1701
S'screen'
p1696
sI1702
S'pluck'
p1697
sI1703
S'guitar'
p1698
sI1704
S'concentrate'
p1699
sI1705
S'awards'
p1700
sI1706
S'straght'
p1701
sI1707
S'boomerang'
p1702
sI1708
S'singers'
p1703
sI1709
S'20'
p1704
sI1710
S'tub'
p1705
sI1711
S'comb'
p1706
sI1712
S'come'
p1707
sI1713
S'tug'
p1708
sI1714
S'oust'
p1709
sI1715
S'mans'
p1710
sI1716
S'parapet'
p1711
sI1717
S'tuck'
p1712
sI1718
S'many'
p1713
sI1719
S'quiet'
p1714
sI1720
S'flipped'
p1715
sI1721
S'surpise'
p1716
sI1722
S'loudly'
p1717
sI1723
S'disappointment'
p1718
sI1724
S'wheels'
p1719
sI1725
S'expression'
p1720
sI1726
S'backpack'
p1721
sI1727
S'comes'
p1722
sI1728
S'nearby'
p1723
sI1729
S'concert'
p1724
sI1730
S'stretcher'
p1725
sI1731
S'pols'
p1726
sI1732
S'color'
p1727
sI1733
S'pow'
p1728
sI1734
S'pot'
p1729
sI1735
S'jeans'
p1730
sI1736
S'pop'
p1731
sI1737
S'pole'
p1732
sI1738
S'pacifier'
p1733
sI1739
S'micrphone'
p1734
sI1740
S'poll'
p1735
sI1741
S'spark'
p1736
sI1742
S'boat'
p1737
sI1743
S'arts'
p1738
sI1744
S'drower'
p1739
sI1745
S'teammate'
p1740
sI1746
S'stripped'
p1741
sI1747
S'teddy'
p1742
sI1748
S'stretch'
p1743
sI1749
S'wobble'
p1744
sI1750
S'invert'
p1745
sI1751
S'undershirt'
p1746
sI1752
S'bulding'
p1747
sI1753
S'mark'
p1748
sI1754
S'breath'
p1749
sI1755
S'cotton'
p1750
sI1756
S'workshop'
p1751
sI1757
S'peaceful'
p1752
sI1758
S'helicopter'
p1753
sI1759
S'reflex'
p1754
sI1760
S'engine'
p1755
sI1761
S'direction'
p1756
sI1762
S'lanes'
p1757
sI1763
S'gray'
p1758
sI1764
S'mischievious'
p1759
sI1765
S'lauughs'
p1760
sI1766
S'hits'
p1761
sI1767
S'sheeks'
p1762
sI1768
S'tiger'
p1763
sI1769
S'suplex'
p1764
sI1770
S'observe'
p1765
sI1771
S'wake'
p1766
sI1772
S'muscular'
p1767
sI1773
S'foggy'
p1768
sI1774
S'attentive'
p1769
sI1775
S'dribble'
p1770
sI1776
S'those'
p1771
sI1777
S'case'
p1772
sI1778
S'intensley'
p1773
sI1779
S'spiderman'
p1774
sI1780
S'mount'
p1775
sI1781
S'polls'
p1776
sI1782
S'straighten'
p1777
sI1783
S'trick'
p1778
sI1784
S'cast'
p1779
sI1785
S'ratchet'
p1780
sI1786
S'newspaper'
p1781
sI1787
S'mound'
p1782
sI1788
S'cock'
p1783
sI1789
S'taking'
p1784
sI1790
S'leftt'
p1785
sI1791
S'vest'
p1786
sI1792
S'manequin'
p1787
sI1793
S'canoe'
p1788
sI1794
S'brow'
p1789
sI1795
S'prayer'
p1790
sI1796
S'purse'
p1791
sI1797
S'coffee'
p1792
sI1798
S'speedway'
p1793
sI1799
S'sleeping'
p1794
sI1800
S'parse'
p1795
sI1801
S'middle'
p1796
sI1802
S'exhertion'
p1797
sI1803
S'punched'
p1798
sI1804
S'dangerously'
p1799
sI1805
S'heels'
p1800
sI1806
S'somebody'
p1801
sI1807
S'spooked'
p1802
sI1808
S'property'
p1803
sI1809
S'stickers'
p1804
sI1810
S'ship'
p1805
sI1811
S'worry'
p1806
sI1812
S'movements'
p1807
sI1813
S'helmet'
p1808
sI1814
S'different'
p1809
sI1815
S'missiles'
p1810
sI1816
S'pat'
p1811
sI1817
S'paw'
p1812
sI1818
S'throwing'
p1813
sI1819
S'bowl'
p1814
sI1820
S'lits'
p1815
sI1821
S'trip'
p1816
sI1822
S'speech'
p1817
sI1823
S'pushup'
p1818
sI1824
S'sucker'
p1819
sI1825
S'unconsious'
p1820
sI1826
S'stepped'
p1821
sI1827
S'halfpipe'
p1822
sI1828
S'isle'
p1823
sI1829
S'pan'
p1824
sI1830
S'nuzzle'
p1825
sI1831
S'exhaust'
p1826
sI1832
S'similing'
p1827
sI1833
S'finish'
p1828
sI1834
S'closest'
p1829
sI1835
S'crutches'
p1830
sI1836
S'applaud'
p1831
sI1837
S'nest'
p1832
sI1838
S'assist'
p1833
sI1839
S'driver'
p1834
sI1840
S'drives'
p1835
sI1841
S'deflate'
p1836
sI1842
S'companion'
p1837
sI1843
S'cheers'
p1838
sI1844
S'persons'
p1839
sI1845
S'running'
p1840
sI1846
S'fruit'
p1841
sI1847
S'tamborine'
p1842
sI1848
S'volley'
p1843
sI1849
S'outstretched'
p1844
sI1850
S'cartoon'
p1845
sI1851
S'weave'
p1846
sI1852
S'nunchucks'
p1847
sI1853
S'theater'
p1848
sI1854
S'whose'
p1849
sI1855
S'groundhog'
p1850
sI1856
S'floor'
p1851
sI1857
S'walls'
p1852
sI1858
S'strawberry'
p1853
sI1859
S'spoonful'
p1854
sI1860
S'without'
p1855
sI1861
S'relief'
p1856
sI1862
S'bottle'
p1857
sI1863
S'pitbull'
p1858
sI1864
S'chopstick'
p1859
sI1865
S'model'
p1860
sI1866
S'amazed'
p1861
sI1867
S'prowl'
p1862
sI1868
S'being'
p1863
sI1869
S'tip'
p1864
sI1870
S'emerald'
p1865
sI1871
S'dancers'
p1866
sI1872
S'neon'
p1867
sI1873
S'annoied'
p1868
sI1874
S'rest'
p1869
sI1875
S'kill'
p1870
sI1876
S'handed'
p1871
sI1877
S'mongoose'
p1872
sI1878
S'touch'
p1873
sI1879
S'polish'
p1874
sI1880
S'speed'
p1875
sI1881
S'kneeling'
p1876
sI1882
S'marker'
p1877
sI1883
S'halfway'
p1878
sI1884
S'blow'
p1879
sI1885
S'snowboarder'
p1880
sI1886
S'provocatively'
p1881
sI1887
S'womans'
p1882
sI1888
S'\\?'
p1883
sI1889
S'measure'
p1884
sI1890
S'seems'
p1885
sI1891
S'pallet'
p1886
sI1892
S'instrument'
p1887
sI1893
S'blackboard'
p1888
sI1894
S'pile'
p1889
sI1895
S'bank'
p1890
sI1896
S'hind'
p1891
sI1897
S'headboard'
p1892
sI1898
S'bullpup'
p1893
sI1899
S'ross'
p1894
sI1900
S'swim'
p1895
sI1901
S'hover'
p1896
sI1902
S'frown'
p1897
sI1903
S'read'
p1898
sI1904
S'mop'
p1899
sI1905
S'mow'
p1900
sI1906
S'fridge'
p1901
sI1907
S'dart'
p1902
sI1908
S'dark'
p1903
sI1909
S'tensed'
p1904
sI1910
S'chainsaw'
p1905
sI1911
S'snarl'
p1906
sI1912
S'traffic'
p1907
sI1913
S'spank'
p1908
sI1914
S'mom'
p1909
sI1915
S'vacuum'
p1910
sI1916
S'mob'
p1911
sI1917
S'railroad'
p1912
sI1918
S'cd'
p1913
sI1919
S'lady'
p1914
sI1920
S'rear'
p1915
sI1921
S'furniture'
p1916
sI1922
S'vertically'
p1917
sI1923
S'clam'
p1918
sI1924
S'towel'
p1919
sI1925
S'stranger'
p1920
sI1926
S'brightness'
p1921
sI1927
S'bracelet'
p1922
sI1928
S'streamers'
p1923
sI1929
S'lightning'
p1924
sI1930
S'facing'
p1925
sI1931
S"fives'"
p1926
sI1932
S'audience'
p1927
sI1933
S'nose'
p1928
sI1934
S'clay'
p1929
sI1935
S'claw'
p1930
sI1936
S'downward'
p1931
sI1937
S'passionate'
p1932
sI1938
S'stationary'
p1933
sI1939
S'clap'
p1934
sI1940
S'shimmy'
p1935
sI1941
S'fives'
p1936
sI1942
S'doll'
p1937
sI1943
S'ascend'
p1938
sI1944
S'interlock'
p1939
sI1945
S'eagle'
p1940
sI1946
S'erase'
p1941
sI1947
S'unraveling'
p1942
sI1948
S'images'
p1943
sI1949
S'canteen'
p1944
sI1950
S'intact'
p1945
sI1951
S'flowerhaed'
p1946
sI1952
S'provided'
p1947
sI1953
S'slice'
p1948
sI1954
S'palms'
p1949
sI1955
S'armband'
p1950
sI1956
S'tube'
p1951
sI1957
S'longboard'
p1952
sI1958
S'slick'
p1953
sI1959
S'jiggle'
p1954
sI1960
S'moon'
p1955
sI1961
S'chips'
p1956
sI1962
S'toad'
p1957
sI1963
S'throat'
p1958
sI1964
S'stakeboard'
p1959
sI1965
S'slicked'
p1960
sI1966
S'squirt'
p1961
sI1967
S'situate'
p1962
sI1968
S'knife'
p1963
sI1969
S'pill'
p1964
sI1970
S'escelator'
p1965
sI1971
S'smiley'
p1966
sI1972
S'power'
p1967
sI1973
S'surfboard'
p1968
sI1974
S'incline'
p1969
sI1975
S'drums'
p1970
sI1976
S'terrified'
p1971
sI1977
S'throw'
p1972
sI1978
S'on'
p1973
sI1979
S'stone'
p1974
sI1980
S'ok'
p1975
sI1981
S'ace'
p1976
sI1982
S'tease'
p1977
sI1983
S'roar'
p1978
sI1984
S'smear'
p1979
sI1985
S'menacingly'
p1980
sI1986
S'fishtail'
p1981
sI1987
S'insect'
p1982
sI1988
S'mixer'
p1983
sI1989
S'meal'
p1984
sI1990
S'chop'
p1985
sI1991
S'explaining'
p1986
sI1992
S"'d"
p1987
sI1993
S'wolf'
p1988
sI1994
S'stand'
p1989
sI1995
S'neighbor'
p1990
sI1996
S'act'
p1991
sI1997
S'ow'
p1992
sI1998
S'tshirt'
p1993
sI1999
S'or'
p1994
sI2000
S'road'
p1995
sI2001
S'clamp'
p1996
sI2002
S'quietly'
p1997
sI2003
S'lands'
p1998
sI2004
S'unused'
p1999
sI2005
S'marshmallow'
p2000
sI2006
S'bowie'
p2001
sI2007
S'image'
p2002
sI2008
S'leash'
p2003
sI2009
S'lifted'
p2004
sI2010
S'earring'
p2005
sI2011
S'dumbbells'
p2006
sI2012
S'determine'
p2007
sI2013
S'strip'
p2008
sI2014
S'foreward'
p2009
sI2015
S'pivot'
p2010
sI2016
S'joyfull'
p2011
sI2017
S'telescope'
p2012
sI2018
S'stare'
p2013
sI2019
S'log'
p2014
sI2020
S'prepare'
p2015
sI2021
S'area'
p2016
sI2022
S'removing'
p2017
sI2023
S'trapeze'
p2018
sI2024
S'there'
p2019
sI2025
S'hey'
p2020
sI2026
S'start'
p2021
sI2027
S'poured'
p2022
sI2028
S'low'
p2023
sI2029
S'lot'
p2024
sI2030
S'bubble'
p2025
sI2031
S'foam'
p2026
sI2032
S'chalkboard'
p2027
sI2033
S'shower'
p2028
sI2034
S'bottm'
p2029
sI2035
S'complete'
p2030
sI2036
S'kittens'
p2031
sI2037
S'pitcher'
p2032
sI2038
S'lane'
p2033
sI2039
S'tripod'
p2034
sI2040
S'cabinet'
p2035
sI2041
S'hiccup'
p2036
sI2042
S'recoil'
p2037
sI2043
S'gore'
p2038
sI2044
S'cycle'
p2039
sI2045
S'walkway'
p2040
sI2046
S'fighter'
p2041
sI2047
S'skins'
p2042
sI2048
S'with'
p2043
sI2049
S'faster'
p2044
sI2050
S'volume'
p2045
sI2051
S'pull'
p2046
sI2052
S'rush'
p2047
sI2053
S'romantic'
p2048
sI2054
S'joint'
p2049
sI2055
S'doobie'
p2050
sI2056
S'potato'
p2051
sI2057
S'bucket'
p2052
sI2058
S'tiptoe'
p2053
sI2059
S'flirt'
p2054
sI2060
S'tiny'
p2055
sI2061
S'dirty'
p2056
sI2062
S'suitcase'
p2057
sI2063
S'grasp'
p2058
sI2064
S'grass'
p2059
sI2065
S'torso'
p2060
sI2066
S'trips'
p2061
sI2067
S'darker'
p2062
sI2068
S'wrestlers'
p2063
sI2069
S'toilet'
p2064
sI2070
S'filp'
p2065
sI2071
S'ad'
p2066
sI2072
S'fright'
p2067
sI2073
S'taste'
p2068
sI2074
S'frighten'
p2069
sI2075
S'puffer'
p2070
sI2076
S'deer'
p2071
sI2077
S'mike'
p2072
sI2078
S'deep'
p2073
sI2079
S'an'
p2074
sI2080
S'as'
p2075
sI2081
S'bacolny'
p2076
sI2082
S'at'
p2077
sI2083
S'sholder'
p2078
sI2084
S'ciggarette'
p2079
sI2085
S'girlfriend'
p2080
sI2086
S'ax'
p2081
sI2087
S'amused'
p2082
sI2088
S'film'
p2083
sI2089
S'cream'
p2084
sI2090
S'again'
p2085
sI2091
S'spice'
p2086
sI2092
S'pensive'
p2087
sI2093
S'rubbed'
p2088
sI2094
S'drivers'
p2089
sI2095
S'backstroke'
p2090
sI2096
S'storage'
p2091
sI2097
S'redheaded'
p2092
sI2098
S'enclosure'
p2093
sI2099
S'rubber'
p2094
sI2100
S'tight'
p2095
sI2101
S'trample'
p2096
sI2102
S'astronaut'
p2097
sI2103
S'thorugh'
p2098
sI2104
S'you'
p2099
sI2105
S'trash'
p2100
sI2106
S'fours'
p2101
sI2107
S'outfield'
p2102
sI2108
S'polar'
p2103
sI2109
S'briefly'
p2104
sI2110
S'carosel'
p2105
sI2111
S'jacker'
p2106
sI2112
S'separate'
p2107
sI2113
S'students'
p2108
sI2114
S'symbol'
p2109
sI2115
S'time'
p2110
sI2116
S'drift'
p2111
sI2117
S'slant'
p2112
sI2118
S'podium'
p2113
sI2119
S'bullets'
p2114
sI2120
S'peak'
p2115
sI2121
S'suited'
p2116
sI2122
S'fasten'
p2117
sI2123
S'tackle'
p2118
sI2124
S'stocks'
p2119
sI2125
S'sneeze'
p2120
sI2126
S'pool'
p2121
sI2127
S'lipstick'
p2122
sI2128
S'building'
p2123
sI2129
S'meander'
p2124
sI2130
S'remote'
p2125
sI2131
S'unload'
p2126
sI2132
S'buffalo'
p2127
sI2133
S'groom'
p2128
sI2134
S'mask'
p2129
sI2135
S'smooch'
p2130
sI2136
S'photos'
p2131
sI2137
S'hello'
p2132
sI2138
S'mimic'
p2133
sI2139
S'burrow'
p2134
sI2140
S'u'
sI2141
S'smirk'
p2135
sI2142
S'oral'
p2136
sI2143
S'original'
p2137
sI2144
S'represent'
p2138
sI2145
S'all'
p2139
sI2146
S'diss'
p2140
sI2147
S'skeleton'
p2141
sI2148
S'pointing'
p2142
sI2149
S'peacock'
p2143
sI2150
S'wreath'
p2144
sI2151
S'dollar'
p2145
sI2152
S'thoughtful'
p2146
sI2153
S'debris'
p2147
sI2154
S'pooped'
p2148
sI2155
S'smoking'
p2149
sI2156
S'talks'
p2150
sI2157
S'follow'
p2151
sI2158
S'expressions'
p2152
sI2159
S'children'
p2153
sI2160
S'carpet'
p2154
sI2161
S'strangers'
p2155
sI2162
S'apartment'
p2156
sI2163
S'tv'
p2157
sI2164
S'laughing'
p2158
sI2165
S'to'
p2159
sI2166
S'tail'
p2160
sI2167
S'chewing'
p2161
sI2168
S'present'
p2162
sI2169
S'dressing'
p2163
sI2170
S'smile'
p2164
sI2171
S'sound'
p2165
sI2172
S'seriuos'
p2166
sI2173
S'woman'
p2167
sI2174
S'sitting'
p2168
sI2175
S'very'
p2169
sI2176
S'activated'
p2170
sI2177
S'lazer'
p2171
sI2178
S'fat'
p2172
sI2179
S'baton'
p2173
sI2180
S'retract'
p2174
sI2181
S'fan'
p2175
sI2182
S'fall'
p2176
sI2183
S'stacked'
p2177
sI2184
S'bubbles'
p2178
sI2185
S'difference'
p2179
sI2186
S'strand'
p2180
sI2187
S'alien'
p2181
sI2188
S'cable'
p2182
sI2189
S'list'
p2183
sI2190
S'blankly'
p2184
sI2191
S'dinosaur'
p2185
sI2192
S'sand'
p2186
sI2193
S'adjust'
p2187
sI2194
S'highway'
p2188
sI2195
S'small'
p2189
sI2196
S'sank'
p2190
sI2197
S'snowmobile'
p2191
sI2198
S'flick'
p2192
sI2199
S'cookies'
p2193
sI2200
S'smiing'
p2194
sI2201
S'fence'
p2195
sI2202
S'tea'
p2196
sI2203
S'clinch'
p2197
sI2204
S'grabs'
p2198
sI2205
S'tee'
p2199
sI2206
S'cash'
p2200
sI2207
S'past'
p2201
sI2208
S'burger'
p2202
sI2209
S'pass'
p2203
sI2210
S'outwards'
p2204
sI2211
S'further'
p2205
sI2212
S'hamper'
p2206
sI2213
S'chuckle'
p2207
sI2214
S'lone'
p2208
sI2215
S'what'
p2209
sI2216
S'golfer'
p2210
sI2217
S'darkness'
p2211
sI2218
S'clock'
p2212
sI2219
S'deeply'
p2213
sI2220
S'section'
p2214
sI2221
S'stool'
p2215
sI2222
S'lurch'
p2216
sI2223
S'<EOS>'
p2217
sI2224
S'milk'
p2218
sI2225
S'stoop'
p2219
sI2226
S'abs'
p2220
sI2227
S'unicycle'
p2221
sI2228
S'nurse'
p2222
sI2229
S'entwine'
p2223
sI2230
S'racing'
p2224
sI2231
S'plush'
p2225
sI2232
S'movement'
p2226
sI2233
S'tattoos'
p2227
sI2234
S'full'
p2228
sI2235
S'ruffle'
p2229
sI2236
S'doorframe'
p2230
sI2237
S'bowtie'
p2231
sI2238
S'ma'
p2232
sI2239
S'empower'
p2233
sI2240
S'loose'
p2234
sI2241
S'ballet'
p2235
sI2242
S'surfer'
p2236
sI2243
S'themself'
p2237
sI2244
S'trunk'
p2238
sI2245
S'gorrilla'
p2239
sI2246
S'directions'
p2240
sI2247
S'search'
p2241
sI2248
S'colored'
p2242
sI2249
S'ahead'
p2243
sI2250
S'stretching'
p2244
sI2251
S'whine'
p2245
sI2252
S'scurry'
p2246
sI2253
S'soldier'
p2247
sI2254
S'amount'
p2248
sI2255
S'base'
p2249
sI2256
S'hamster'
p2250
sI2257
S'pick'
p2251
sI2258
S'action'
p2252
sI2259
S'narrow'
p2253
sI2260
S'shoudler'
p2254
sI2261
S'eclipse'
p2255
sI2262
S'struggle'
p2256
sI2263
S'sticking'
p2257
sI2264
S'via'
p2258
sI2265
S'depart'
p2259
sI2266
S'suddenly'
p2260
sI2267
S'clapping'
p2261
sI2268
S'donut'
p2262
sI2269
S'ling'
p2263
sI2270
S'texts'
p2264
sI2271
S'indoors'
p2265
sI2272
S'zagging'
p2266
sI2273
S'pulls'
p2267
sI2274
S'skateborad'
p2268
sI2275
S'eye'
p2269
sI2276
S'takes'
p2270
sI2277
S'injure'
p2271
sI2278
S'donuts'
p2272
sI2279
S'katanas'
p2273
sI2280
S'faint'
p2274
sI2281
S'texting'
p2275
sI2282
S'two'
p2276
sI2283
S'irritate'
p2277
sI2284
S'toawrd'
p2278
sI2285
S'eys'
p2279
sI2286
S'splash'
p2280
sI2287
S'raft'
p2281
sI2288
S'injury'
p2282
sI2289
S'wiper'
p2283
sI2290
S'rubbing'
p2284
sI2291
S'more'
p2285
sI2292
S'teen'
p2286
sI2293
S'flat'
p2287
sI2294
S'strait'
p2288
sI2295
S'door'
p2289
sI2296
S'flap'
p2290
sI2297
S'testes'
p2291
sI2298
S'stucked'
p2292
sI2299
S'company'
p2293
sI2300
S'straighthead'
p2294
sI2301
S'chucks'
p2295
sI2302
S'telephone'
p2296
sI2303
S'landed'
p2297
sI2304
S'stick'
p2298
sI2305
S'impulse'
p2299
sI2306
S'offload'
p2300
sI2307
S'panically'
p2301
sI2308
S'couples'
p2302
sI2309
S'none'
p2303
sI2310
S'squish'
p2304
sI2311
S'cluster'
p2305
sI2312
S'sleeveless'
p2306
sI2313
S'besides'
p2307
sI2314
S'remain'
p2308
sI2315
S'nine'
p2309
sI2316
S'wrestler'
p2310
sI2317
S'dazed'
p2311
sI2318
S'knocked'
p2312
sI2319
S'embrace'
p2313
sI2320
S'grope'
p2314
sI2321
S'male'
p2315
sI2322
S'lighter'
p2316
sI2323
S'scramble'
p2317
sI2324
S'nervous'
p2318
sI2325
S'shark'
p2319
sI2326
S'everyone'
p2320
sI2327
S'hamburger'
p2321
sI2328
S'pushes'
p2322
sI2329
S'gallop'
p2323
sI2330
S'armor'
p2324
sI2331
S'share'
p2325
sI2332
S'accept'
p2326
sI2333
S'wallet'
p2327
sI2334
S'pushed'
p2328
sI2335
S'fiercely'
p2329
sI2336
S'sense'
p2330
sI2337
S'sharp'
p2331
sI2338
S'airplane'
p2332
sI2339
S'scar'
p2333
sI2340
S'dress'
p2334
sI2341
S'hamburgers'
p2335
sI2342
S'firmly'
p2336
sI2343
S'extinguisher'
p2337
sI2344
S'court'
p2338
sI2345
S'goal'
p2339
sI2346
S'awkward'
p2340
sI2347
S'plans'
p2341
sI2348
S'comfort'
p2342
sI2349
S'ledges'
p2343
sI2350
S'wax'
p2344
sI2351
S'cling'
p2345
sI2352
S'hugs'
p2346
sI2353
S'clink'
p2347
sI2354
S'stir'
p2348
sI2355
S'goat'
p2349
sI2356
S'creature'
p2350
sI2357
S'sprinkle'
p2351
sI2358
S'sandwich'
p2352
sI2359
S'okay'
p2353
sI2360
S'intended'
p2354
sI2361
S'fountan'
p2355
sI2362
S'capture'
p2356
sI2363
S'dow'
p2357
sI2364
S'sneak'
p2358
sI2365
S'holders'
p2359
sI2366
S'hoola'
p2360
sI2367
S'denial'
p2361
sI2368
S'whilst'
p2362
sI2369
S'waves'
p2363
sI2370
S'gasp'
p2364
sI2371
S'horizontal'
p2365
sI2372
S'bloom'
p2366
sI2373
S'response'
p2367
sI2374
S'a'
sI2375
S'refuse'
p2368
sI2376
S'short'
p2369
sI2377
S'cigarete'
p2370
sI2378
S'coat'
p2371
sI2379
S'sence'
p2372
sI2380
S'pucker'
p2373
sI2381
S'eats'
p2374
sI2382
S'volleyball'
p2375
sI2383
S'dragon'
p2376
sI2384
S'coal'
p2377
sI2385
S'shore'
p2378
sI2386
S'wavy'
p2379
sI2387
S'tentacles'
p2380
sI2388
S'chopsticks'
p2381
sI2389
S'shade'
p2382
sI2390
S'pleasure'
p2383
sI2391
S'egg'
p2384
sI2392
S'playing'
p2385
sI2393
S'patio'
p2386
sI2394
S'infant'
p2387
sI2395
S'help'
p2388
sI2396
S'handlebars'
p2389
sI2397
S'pant'
p2390
sI2398
S'slouch'
p2391
sI2399
S'tumbling'
p2392
sI2400
S'held'
p2393
sI2401
S'paper'
p2394
sI2402
S'through'
p2395
sI2403
S'same'
p2396
sI2404
S'brim'
p2397
sI2405
S'caricature'
p2398
sI2406
S'warehouse'
p2399
sI2407
S'hell'
p2400
sI2408
S'smiling'
p2401
sI2409
S'suffer'
p2402
sI2410
S'its'
p2403
sI2411
S'style'
p2404
sI2412
S'rapidly'
p2405
sI2413
S'21'
p2406
sI2414
S'glide'
p2407
sI2415
S'call'
p2408
sI2416
S'pray'
p2409
sI2417
S'inward'
p2410
sI2418
S'afar'
p2411
sI2419
S'lipped'
p2412
sI2420
S'mattress'
p2413
sI2421
S'astonish'
p2414
sI2422
S'pad'
p2415
sI2423
S'soccer'
p2416
sI2424
S'sauce'
p2417
sI2425
S'ally'
p2418
sI2426
S'dolls'
p2419
sI2427
S'toothy'
p2420
sI2428
S'someone'
p2421
sI2429
S'return'
p2422
sI2430
S'orcas'
p2423
sI2431
S'food'
p2424
sI2432
S'propose'
p2425
sI2433
S'males'
p2426
sI2434
S'poop'
p2427
sI2435
S'cupcake'
p2428
sI2436
S'snowball'
p2429
sI2437
S'vomit'
p2430
sI2438
S'foot'
p2431
sI2439
S'ninja'
p2432
sI2440
S'detach'
p2433
sI2441
S'bigger'
p2434
sI2442
S'sucked'
p2435
sI2443
S'expresion'
p2436
sI2444
S'slipper'
p2437
sI2445
S'huddle'
p2438
sI2446
S'fulls'
p2439
sI2447
S'adjacent'
p2440
sI2448
S'even'
p2441
sI2449
S'fully'
p2442
sI2450
S'puzzle'
p2443
sI2451
S'tricycle'
p2444
sI2452
S'evade'
p2445
sI2453
S'vaporizer'
p2446
sI2454
S'goofy'
p2447
sI2455
S'stopped'
p2448
sI2456
S'die'
p2449
sI2457
S'trailer'
p2450
sI2458
S'heavy'
p2451
sI2459
S'brunette'
p2452
sI2460
S'upstairs'
p2453
sI2461
S'weight'
p2454
sI2462
S'eyelash'
p2455
sI2463
S'house'
p2456
sI2464
S'fish'
p2457
sI2465
S'hard'
p2458
sI2466
S'fixture'
p2459
sI2467
S'togher'
p2460
sI2468
S'wacky'
p2461
sI2469
S'suprised'
p2462
sI2470
S'ball'
p2463
sI2471
S'fist'
p2464
sI2472
S'scissors'
p2465
sI2473
S'balance'
p2466
sI2474
S'terrify'
p2467
sI2475
S'try'
p2468
sI2476
S'flower'
p2469
sI2477
S'unfroze'
p2470
sI2478
S'alcohol'
p2471
sI2479
S'guitart'
p2472
sI2480
S'glitter'
p2473
sI2481
S'surrounded'
p2474
sI2482
S'projected'
p2475
sI2483
S'dugout'
p2476
sI2484
S'patty'
p2477
sI2485
S'fountain'
p2478
sI2486
S'hill'
p2479
sI2487
S'print'
p2480
sI2488
S'downfield'
p2481
sI2489
S'hangers'
p2482
sI2490
S'mittens'
p2483
sI2491
S'salute'
p2484
sI2492
S'subway'
p2485
sI2493
S'dunk'
p2486
sI2494
S'foreground'
p2487
sI2495
S'nervously'
p2488
sI2496
S'drink'
p2489
sI2497
S'teal'
p2490
sI2498
S'dirt'
p2491
sI2499
S'rude'
p2492
sI2500
S'munch'
p2493
sI2501
S'pug'
p2494
sI2502
S'horse'
p2495
sI2503
S'pleasant'
p2496
sI2504
S'basketball'
p2497
sI2505
S'cookie'
p2498
sI2506
S'wepon'
p2499
sI2507
S'put'
p2500
sI2508
S'randall'
p2501
sI2509
S'weed'
p2502
sI2510
S'pup'
p2503
sI2511
S'sidewalk'
p2504
sI2512
S'thrown'
p2505
sI2513
S'bumped'
p2506
sI2514
S'faucet'
p2507
sI2515
S'launch'
p2508
sI2516
S'snowbank'
p2509
sI2517
S'bumper'
p2510
sI2518
S'blush'
p2511
sI2519
S'throws'
p2512
sI2520
S'feed'
p2513
sI2521
S'aligator'
p2514
sI2522
S'speaker'
p2515
sI2523
S'statue'
p2516
sI2524
S'forwards'
p2517
sI2525
S'feel'
p2518
sI2526
S'guesture'
p2519
sI2527
S'number'
p2520
sI2528
S'feet'
p2521
sI2529
S'fromt'
p2522
sI2530
S'done'
p2523
sI2531
S'manically'
p2524
sI2532
S'shoal'
p2525
sI2533
S'blank'
p2526
sI2534
S'bland'
p2527
sI2535
S'mist'
p2528
sI2536
S'miss'
p2529
sI2537
S'overalls'
p2530
sI2538
S'razor'
p2531
sI2539
S'story'
p2532
sI2540
S'billiard'
p2533
sI2541
S'heads'
p2534
sI2542
S'jet'
p2535
sI2543
S'introduction'
p2536
sI2544
S'twenty'
p2537
sI2545
S'interact'
p2538
sI2546
S'swipe'
p2539
sI2547
S'180'
p2540
sI2548
S'airborne'
p2541
sI2549
S'broccoli'
p2542
sI2550
S'pinned'
p2543
sI2551
S'paint'
p2544
sI2552
S'towarding'
p2545
sI2553
S'station'
p2546
sI2554
S'onlookers'
p2547
sI2555
S'storm'
p2548
sI2556
S'master'
p2549
sI2557
S'compartment'
p2550
sI2558
S'syrup'
p2551
sI2559
S'banana'
p2552
sI2560
S'store'
p2553
sI2561
S'mini'
p2554
sI2562
S'insterment'
p2555
sI2563
S'muscles'
p2556
sI2564
S'kids'
p2557
sI2565
S'para'
p2558
sI2566
S'behind'
p2559
sI2567
S'fastly'
p2560
sI2568
S'jamie'
p2561
sI2569
S'park'
p2562
sI2570
S'interviewed'
p2563
sI2571
S'part'
p2564
sI2572
S'fidget'
p2565
sI2573
S'rifle'
p2566
sI2574
S'burrito'
p2567
sI2575
S'racetrack'
p2568
sI2576
S'stairs'
p2569
sI2577
S'inflate'
p2570
sI2578
S'oscillate'
p2571
sI2579
S'leotard'
p2572
sI2580
S'king'
p2573
sI2581
S'kind'
p2574
sI2582
S'double'
p2575
sI2583
S'anticipate'
p2576
sI2584
S'towars'
p2577
sI2585
S'grey'
p2578
sI2586
S'bride'
p2579
sI2587
S'stall'
p2580
sI2588
S'stalk'
p2581
sI2589
S'outdoors'
p2582
sI2590
S'dispenser'
p2583
sI2591
S'toward'
p2584
sI2592
S'booth'
p2585
sI2593
S'silence'
p2586
sI2594
S'swerve'
p2587
sI2595
S'bassinet'
p2588
sI2596
S'picked'
p2589
sI2597
S'interviewee'
p2590
sI2598
S'chipmunk'
p2591
sI2599
S'suspicious'
p2592
sI2600
S'beforehand'
p2593
sI2601
S'disgusting'
p2594
sI2602
S'juice'
p2595
sI2603
S'caress'
p2596
sI2604
S'graffiti'
p2597
sI2605
S'twiddle'
p2598
sI2606
S'yowl'
p2599
sI2607
S'blissful'
p2600
sI2608
S'backseat'
p2601
sI2609
S'lid'
p2602
sI2610
S'lie'
p2603
sI2611
S'lif'
p2604
sI2612
S'speaking'
p2605
sI2613
S'rower'
p2606
sI2614
S'built'
p2607
sI2615
S'dancing'
p2608
sI2616
S'odd'
p2609
sI2617
S'self'
p2610
sI2618
S'cave'
p2611
sI2619
S'pinkie'
p2612
sI2620
S'couch'
p2613
sI2621
S'lit'
p2614
sI2622
S'centered'
p2615
sI2623
S'lifts'
p2616
sI2624
S'lip'
p2617
sI2625
S'build'
p2618
sI2626
S'exploded'
p2619
sI2627
S'brace'
p2620
sI2628
S'gym'
p2621
sI2629
S'play'
p2622
sI2630
S'towards'
p2623
sI2631
S'electric'
p2624
sI2632
S'needle'
p2625
sI2633
S'burts'
p2626
sI2634
S'eggs'
p2627
sI2635
S'swiftly'
p2628
sI2636
S'reach'
p2629
sI2637
S'chart'
p2630
sI2638
S'prosthetic'
p2631
sI2639
S'react'
p2632
sI2640
S'yawn'
p2633
sI2641
S'guitair'
p2634
sI2642
S'cupcakes'
p2635
sI2643
S'guutar'
p2636
sI2644
S'plan'
p2637
sI2645
S'nothing'
p2638
sI2646
S'refrigerator'
p2639
sI2647
S'appear'
p2640
sI2648
S'mobile'
p2641
sI2649
S'clear'
p2642
sI2650
S'cover'
p2643
sI2651
S'lounge'
p2644
sI2652
S'clean'
p2645
sI2653
S'barrel'
p2646
sI2654
S'blend'
p2647
sI2655
S'dragged'
p2648
sI2656
S'hips'
p2649
sI2657
S'shirtsleeves'
p2650
sI2658
S'golf'
p2651
sI2659
S'gold'
p2652
sI2660
S'flicker'
p2653
sI2661
S'hugging'
p2654
sI2662
S'barbell'
p2655
sI2663
S'crayon'
p2656
sI2664
S'cds'
p2657
sI2665
S'carefully'
p2658
sI2666
S'ligther'
p2659
sI2667
S'togther'
p2660
sI2668
S'find'
p2661
sI2669
S'blender'
p2662
sI2670
S'impact'
p2663
sI2671
S'giant'
p2664
sI2672
S'interviewer'
p2665
sI2673
S'brushed'
p2666
sI2674
S'scooter'
p2667
sI2675
S'heavily'
p2668
sI2676
S'unhappy'
p2669
sI2677
S'solider'
p2670
sI2678
S'penalty'
p2671
sI2679
S'cassette'
p2672
sI2680
S'condom'
p2673
sI2681
S'money'
p2674
sI2682
S'circle'
p2675
sI2683
S'juke'
p2676
sI2684
S'hip'
p2677
sI2685
S'his'
p2678
sI2686
S'hit'
p2679
sI2687
S'dandelion'
p2680
sI2688
S'express'
p2681
sI2689
S'pregnant'
p2682
sI2690
S'strut'
p2683
sI2691
S'whistle'
p2684
sI2692
S'ferret'
p2685
sI2693
S'batter'
p2686
sI2694
S'breast'
p2687
sI2695
S'strum'
p2688
sI2696
S'during'
p2689
sI2697
S'silk'
p2690
sI2698
S'sill'
p2691
sI2699
S'him'
p2692
sI2700
S'silo'
p2693
sI2701
S'shyness'
p2694
sI2702
S'enemy'
p2695
sI2703
S'fluff'
p2696
sI2704
S'catcher'
p2697
sI2705
S'alchohol'
p2698
sI2706
S'cry'
p2699
sI2707
S'remove'
p2700
sI2708
S'perfume'
p2701
sI2709
S'spiked'
p2702
sI2710
S'frantically'
p2703
sI2711
S'hype'
p2704
sI2712
S'overfull'
p2705
sI2713
S'plank'
p2706
sI2714
S'river'
p2707
sI2715
S'cringe'
p2708
sI2716
S'knickers'
p2709
sI2717
S'tramoline'
p2710
sI2718
S'set'
p2711
sI2719
S'stump'
p2712
sI2720
S'dump'
p2713
sI2721
S'sholders'
p2714
sI2722
S'carrying'
p2715
sI2723
S'nibble'
p2716
sI2724
S'around'
p2717
sI2725
S'licquorish'
p2718
sI2726
S'lion'
p2719
sI2727
S'arouse'
p2720
sI2728
S'bare'
p2721
sI2729
S'are'
p2722
sI2730
S'sea'
p2723
sI2731
S'close'
p2724
sI2732
S'bark'
p2725
sI2733
S'arm'
p2726
sI2734
S'barn'
p2727
sI2735
S'knees'
p2728
sI2736
S'practice'
p2729
sI2737
S'blury'
p2730
sI2738
S'movie'
p2731
sI2739
S'exchange'
p2732
sI2740
S'please'
p2733
sI2741
S'solomon'
p2734
sI2742
S'slapped'
p2735
sI2743
S'fans'
p2736
sI2744
S'determined'
p2737
sI2745
S'flame'
p2738
sI2746
S'lowered'
p2739
sI2747
S'champagne'
p2740
sI2748
S'kneel'
p2741
sI2749
S'solo'
p2742
sI2750
S'unconscious'
p2743
sI2751
S'attention'
p2744
sI2752
S'pullups'
p2745
sI2753
S'outfit'
p2746
sI2754
S'spray'
p2747
sI2755
S'foothill'
p2748
sI2756
S'invisible'
p2749
sI2757
S'hubcap'
p2750
sI2758
S'disintegrates'
p2751
sI2759
S'zipper'
p2752
sI2760
S'abruptly'
p2753
sI2761
S'both'
p2754
sI2762
S'c'
sI2763
S'cliometrics'
p2755
sI2764
S'last'
p2756
sI2765
S'reverse'
p2757
sI2766
S'hesitant'
p2758
sI2767
S'restaurant'
p2759
sI2768
S'wed'
p2760
sI2769
S'waterfall'
p2761
sI2770
S'objects'
p2762
sI2771
S'context'
p2763
sI2772
S'rose'
p2764
sI2773
S'lash'
p2765
sI2774
S'vault'
p2766
sI2775
S'protector'
p2767
sI2776
S'whole'
p2768
sI2777
S'lanyard'
p2769
sI2778
S'sheathe'
p2770
sI2779
S'load'
p2771
sI2780
S'sloth'
p2772
sI2781
S'onward'
p2773
sI2782
S'distress'
p2774
sI2783
S'point'
p2775
sI2784
S'waterside'
p2776
sI2785
S'forklift'
p2777
sI2786
S'sweep'
p2778
sI2787
S'pamphlet'
p2779
sI2788
S'dancer'
p2780
sI2789
S'weasel'
p2781
sI2790
S'sexy'
p2782
sI2791
S'scooch'
p2783
sI2792
S'mumble'
p2784
sI2793
S'belt'
p2785
sI2794
S'suspenders'
p2786
sI2795
S'raise'
p2787
sI2796
S'pu'
p2788
sI2797
S'jugglers'
p2789
sI2798
S'create'
p2790
sI2799
S'acceptance'
p2791
sI2800
S'appall'
p2792
sI2801
S'curve'
p2793
sI2802
S'secret'
p2794
sI2803
S'fangs'
p2795
sI2804
S'shick'
p2796
sI2805
S'peppers'
p2797
sI2806
S'brick'
p2798
sI2807
S'disintigrates'
p2799
sI2808
S'empty'
p2800
sI2809
S'4'
sI2810
S'snowny'
p2801
sI2811
S'cyclist'
p2802
sI2812
S'alongside'
p2803
sI2813
S'flight'
p2804
sI2814
S'squirrel'
p2805
sI2815
S'exciteed'
p2806
sI2816
S'buck'
p2807
sI2817
S'fire'
p2808
sI2818
S'wet'
p2809
sI2819
S'gas'
p2810
sI2820
S'else'
p2811
sI2821
S'silencer'
p2812
sI2822
S'racer'
p2813
sI2823
S'awake'
p2814
sI2824
S'gag'
p2815
sI2825
S'firework'
p2816
sI2826
S'furrow'
p2817
sI2827
S'plants'
p2818
sI2828
S'fur'
p2819
sI2829
S'look'
p2820
sI2830
S'since'
p2821
sI2831
S'talking'
p2822
sI2832
S'solid'
p2823
sI2833
S'belly'
p2824
sI2834
S'straight'
p2825
sI2835
S'bill'
p2826
sI2836
S'joyful'
p2827
sI2837
S'rope'
p2828
sI2838
S'pace'
p2829
sI2839
S'while'
p2830
sI2840
S'barricade'
p2831
sI2841
S'match'
p2832
sI2842
S'fense'
p2833
sI2843
S'leaning'
p2834
sI2844
S'fun'
p2835
sI2845
S'kissing'
p2836
sI2846
S'skier'
p2837
sI2847
S'moustache'
p2838
sI2848
S'guide'
p2839
sI2849
S'loop'
p2840
sI2850
S'pack'
p2841
sI2851
S'forelegs'
p2842
sI2852
S'pound'
p2843
sI2853
S'blond'
p2844
sI2854
S'moth'
p2845
sI2855
S'violently'
p2846
sI2856
S'rip'
p2847
sI2857
S'rooftop'
p2848
sI2858
S'decoration'
p2849
sI2859
S'ecstasy'
p2850
sI2860
S'obstacle'
p2851
sI2861
S'triple'
p2852
sI2862
S'beautifully'
p2853
sI2863
S'powerline'
p2854
sI2864
S'vanish'
p2855
sI2865
S'anguish'
p2856
sI2866
S'ifts'
p2857
sI2867
S'chase'
p2858
sI2868
S'grans'
p2859
sI2869
S'funny'
p2860
sI2870
S'pigtail'
p2861
sI2871
S'choking'
p2862
sI2872
S'sharpening'
p2863
sI2873
S'slab'
p2864
sI2874
S'shorter'
p2865
sI2875
S'wipers'
p2866
sI2876
S'corridor'
p2867
sI2877
S'products'
p2868
sI2878
S'eybrow'
p2869
sI2879
S'day'
p2870
sI2880
S'higher'
p2871
sI2881
S'hallway'
p2872
sI2882
S'waiste'
p2873
sI2883
S'tower'
p2874
sI2884
S'itch'
p2875
sI2885
S'ballerina'
p2876
sI2886
S'teeter'
p2877
sI2887
S'waterslide'
p2878
sI2888
S'cigar'
p2879
sI2889
S'leopard'
p2880
sI2890
S'nipples'
p2881
sI2891
S'cement'
p2882
sI2892
S'alert'
p2883
sI2893
S'moment'
p2884
sI2894
S'moving'
p2885
sI2895
S'stripe'
p2886
sI2896
S'pingo'
p2887
sI2897
S'pawed'
p2888
sI2898
S'stack'
p2889
sI2899
S'flirty'
p2890
sI2900
S'canned'
p2891
sI2901
S'lower'
p2892
sI2902
S'motionless'
p2893
sI2903
S'older'
p2894
sI2904
S'tougue'
p2895
sI2905
S'cheek'
p2896
sI2906
S'chickens'
p2897
sI2907
S'vaulter'
p2898
sI2908
S'grind'
p2899
sI2909
S'concrete'
p2900
sI2910
S'cheer'
p2901
sI2911
S'edge'
p2902
sI2912
S'withdraw'
p2903
sI2913
S'grip'
p2904
sI2914
S'magnifier'
p2905
sI2915
S'prize'
p2906
sI2916
S'appalled'
p2907
sI2917
S'howl'
p2908
sI2918
S'hotdog'
p2909
sI2919
S'eyeglasses'
p2910
sI2920
S'leaking'
p2911
sI2921
S'stiars'
p2912
sI2922
S'teenage'
p2913
sI2923
S'backflip'
p2914
sI2924
S'shape'
p2915
sI2925
S'openly'
p2916
sI2926
S'rop'
p2917
sI2927
S'amp'
p2918
sI2928
S'vigilant'
p2919
sI2929
S'apponent'
p2920
sI2930
S'prince'
p2921
sI2931
S'porch'
p2922
sI2932
S'cut'
p2923
sI2933
S'tablet'
p2924
sI2934
S'cup'
p2925
sI2935
S'disappointed'
p2926
sI2936
S'workers'
p2927
sI2937
S'alternate'
p2928
sI2938
S'shouting'
p2929
sI2939
S'cue'
p2930
sI2940
S'caesar'
p2931
sI2941
S'grin'
p2932
sI2942
S'crying'
p2933
sI2943
S'tuxedo'
p2934
sI2944
S'snap'
p2935
sI2945
S'acrobatics'
p2936
sI2946
S'excited'
p2937
sI2947
S'surprised'
p2938
sI2948
S'chairman'
p2939
sI2949
S'bin'
p2940
sI2950
S'makes'
p2941
sI2951
S'squawk'
p2942
sI2952
S'march'
p2943
sI2953
S'big'
p2944
sI2954
S'couple'
p2945
sI2955
S'enthusiastically'
p2946
sI2956
S'tweaks'
p2947
sI2957
S'game'
p2948
sI2958
S'snore'
p2949
sI2959
S'bit'
p2950
sI2960
S'awaken'
p2951
sI2961
S'wings'
p2952
sI2962
S'skeptical'
p2953
sI2963
S'rotate'
p2954
sI2964
S'peforrms'
p2955
sI2965
S'stylist'
p2956
sI2966
S'semi'
p2957
sI2967
S'shaped'
p2958
sI2968
S'signal'
p2959
sI2969
S'inquisitively'
p2960
sI2970
S'glove'
p2961
sI2971
S'ignore'
p2962
sI2972
S'continue'
p2963
sI2973
S'nipple'
p2964
sI2974
S'wrecked'
p2965
sI2975
S'unhindered'
p2966
sI2976
S'coner'
p2967
sI2977
S'frier'
p2968
sI2978
S'spring'
p2969
sI2979
S'some'
p2970
sI2980
S'undress'
p2971
sI2981
S'bounce'
p2972
sI2982
S'yolk'
p2973
sI2983
S'martial'
p2974
sI2984
S'litter'
p2975
sI2985
S'palm'
p2976
sI2986
S'accelerate'
p2977
sI2987
S'sight'
p2978
sI2988
S'mirror'
p2979
sI2989
S'curious'
p2980
sI2990
S'sprint'
p2981
sI2991
S'pale'
p2982
sI2992
S'saucer'
p2983
sI2993
S'sternly'
p2984
sI2994
S'scale'
p2985
sI2995
S'jewelry'
p2986
sI2996
S'pet'
p2987
sI2997
S'unbrella'
p2988
sI2998
S'firecracker'
p2989
sI2999
S'hybrid'
p2990
sI3000
S'stripes'
p2991
sI3001
S'prop'
p2992
sI3002
S'potty'
p2993
sI3003
S'hairband'
p2994
sI3004
S'pen'
p2995
sI3005
S'manipulate'
p2996
sI3006
S'slash'
p2997
sI3007
S'quote'
p2998
sI3008
S'pee'
p2999
sI3009
S'ape'
p3000
sI3010
S'closely'
p3001
sI3011
S'temple'
p3002
sI3012
S'snort'
p3003
sI3013
S'be'
p3004
sI3014
S'cameraman'
p3005
sI3015
S'patient'
p3006
sI3016
S'ufo'
p3007
sI3017
S'rub'
p3008
sI3018
S'salmon'
p3009
sI3019
S'jumps'
p3010
sI3020
S'agreement'
p3011
sI3021
S'stem'
p3012
sI3022
S'zombie'
p3013
sI3023
S'produce'
p3014
sI3024
S'step'
p3015
sI3025
S'santa'
p3016
sI3026
S'chick'
p3017
sI3027
S'costumed'
p3018
sI3028
S'by'
p3019
sI3029
S'unwraped'
p3020
sI3030
S'chari'
p3021
sI3031
S'snoop'
p3022
sI3032
S'cigarette'
p3023
sI3033
S'whiteboard'
p3024
sI3034
S'favor'
p3025
sI3035
S'womens'
p3026
sI3036
S'shiny'
p3027
sI3037
S'block'
p3028
sI3038
S'misplaced'
p3029
sI3039
S'real'
p3030
sI3040
S'sniffle'
p3031
sI3041
S'into'
p3032
sI3042
S'good'
p3033
sI3043
S'rollerblade'
p3034
sI3044
S'congratulated'
p3035
sI3045
S'perl'
p3036
sI3046
S'curtsy'
p3037
sI3047
S'downhill'
p3038
sI3048
S'smells'
p3039
sI3049
S'backbend'
p3040
sI3050
S'impressed'
p3041
sI3051
S'scrunch'
p3042
sI3052
S'arcade'
p3043
sI3053
S'few'
p3044
sI3054
S'exposed'
p3045
sI3055
S'sneer'
p3046
sI3056
S'fast'
p3047
sI3057
S'occupy'
p3048
sI3058
S'hammoc'
p3049
sI3059
S'oyster'
p3050
sI3060
S'suit'
p3051
sI3061
S'forward'
p3052
sI3062
S'undistracted'
p3053
sI3063
S'bored'
p3054
sI3064
S'athlete'
p3055
sI3065
S'opens'
p3056
sI3066
S'opponent'
p3057
sI3067
S'creepy'
p3058
sI3068
S'himself'
p3059
sI3069
S'perplex'
p3060
sI3070
S'hawaiian'
p3061
sI3071
S'downstairs'
p3062
sI3072
S'poster'
p3063
sI3073
S'relaxed'
p3064
sI3074
S'slump'
p3065
sI3075
S'girlfriends'
p3066
sI3076
S'thief'
p3067
sI3077
S'cloth'
p3068
sI3078
S'properly'
p3069
sI3079
S'link'
p3070
sI3080
S'repeatedly'
p3071
sI3081
S'sick'
p3072
sI3082
S'upright'
p3073
sI3083
S'embarassed'
p3074
sI3084
S'line'
p3075
sI3085
S'reel'
p3076
sI3086
S'penguin'
p3077
sI3087
S'info'
p3078
sI3088
S'jumprope'
p3079
sI3089
S'collared'
p3080
sI3090
S'skull'
p3081
sI3091
S'reload'
p3082
sI3092
S'playfully'
p3083
sI3093
S'up'
p3084
sI3094
S'histerically'
p3085
sI3095
S'planet'
p3086
sI3096
S'greatly'
p3087
sI3097
S'easel'
p3088
sI3098
S'cartwheel'
p3089
sI3099
S'planes'
p3090
sI3100
S'continuously'
p3091
sI3101
S'gymnastics'
p3092
sI3102
S'shopping'
p3093
sI3103
S'catfood'
p3094
sI3104
S'repulse'
p3095
sI3105
S'flop'
p3096
sI3106
S'freak'
p3097
sI3107
S'adults'
p3098
sI3108
S'dismay'
p3099
sI3109
S'flow'
p3100
sI3110
S'trench'
p3101
sI3111
S'package'
p3102
sI3112
S'single'
p3103
sI3113
S'curb'
p3104
sI3114
S'pantedly'
p3105
sI3115
S'chat'
p3106
sI3116
S'pasture'
p3107
sI3117
S'bicep'
p3108
sI3118
S'curl'
p3109
sI3119
S'stripper'
p3110
sI3120
S'lemon'
p3111
sI3121
S'fixing'
p3112
sI3122
S'peace'
p3113
sI3123
S'leftward'
p3114
sI3124
S'scrape'
p3115
sI3125
S'accross'
p3116
sI3126
S'functionality'
p3117
sI3127
S'hoopla'
p3118
sI3128
S'swirl'
p3119
sI3129
S'tarp'
p3120
sI3130
S'pandas'
p3121
sI3131
S'mock'
p3122
sI3132
S'brushing'
p3123
sI3133
S'smiles'
p3124
sI3134
S'draw'
p3125
sI3135
S'cigerette'
p3126
sI3136
S'pineapple'
p3127
sI3137
S'lens'
p3128
sI3138
S'drag'
p3129
sI3139
S'squirm'
p3130
sI3140
S'cymbal'
p3131
sI3141
S'elder'
p3132
sI3142
S'competitor'
p3133
sI3143
S'wrinkle'
p3134
sI3144
S'desert'
p3135
sI3145
S'structure'
p3136
sI3146
S'skydive'
p3137
sI3147
S'land'
p3138
sI3148
S'e'
sI3149
S'lead'
p3139
sI3150
S'expressionless'
p3140
sI3151
S'wards'
p3141
sI3152
S'annoyed'
p3142
sI3153
S'cooked'
p3143
sI3154
S'itself'
p3144
sI3155
S'beverage'
p3145
sI3156
S'weights'
p3146
sI3157
S'lying'
p3147
sI3158
S'crinkle'
p3148
sI3159
S'beers'
p3149
sI3160
S'bricks'
p3150
sI3161
S'unclench'
p3151
sI3162
S'shirtless'
p3152
sI3163
S'rinse'
p3153
sI3164
S'once'
p3154
sI3165
S'wrestle'
p3155
sI3166
S'sharply'
p3156
sI3167
S'edd'
p3157
sI3168
S'scratch'
p3158
sI3169
S'nuns'
p3159
sI3170
S'soften'
p3160
sI3171
S'steve'
p3161
sI3172
S'groceries'
p3162
sI3173
S'stops'
p3163
sI3174
S'go'
p3164
sI3175
S'bait'
p3165
sI3176
S'dumbbell'
p3166
sI3177
S'magnifying'
p3167
sI3178
S'compact'
p3168
sI3179
S'aquarium'
p3169
sI3180
S'handgrip'
p3170
sI3181
S'stunned'
p3171
sI3182
S'peanut'
p3172
sI3183
S'concerned'
p3173
sI3184
S'pongs'
p3174
sI3185
S'young'
p3175
sI3186
S'chess'
p3176
sI3187
S'mower'
p3177
sI3188
S'attackers'
p3178
sI3189
S'backflips'
p3179
sI3190
S'cradle'
p3180
sI3191
S'blaze'
p3181
sI3192
S'stable'
p3182
sI3193
S'exit'
p3183
sI3194
S'dislike'
p3184
sI3195
S'gravel'
p3185
sI3196
S'fences'
p3186
sI3197
S'dramatically'
p3187
sI3198
S'skiier'
p3188
sI3199
S'electrocute'
p3189
sI3200
S'unzip'
p3190
sI3201
S'painterly'
p3191
sI3202
S'ladle'
p3192
sI3203
S'kitty'
p3193
sI3204
S'wave'
p3194
sI3205
S'spool'
p3195
sI3206
S'spoon'
p3196
sI3207
S'balls'
p3197
sI3208
S'putting'
p3198
sI3209
S'trough'
p3199
sI3210
S'washcloth'
p3200
sI3211
S'distraught'
p3201
sI3212
S'drinking'
p3202
sI3213
S'wipe'
p3203
sI3214
S'posture'
p3204
sI3215
S'entire'
p3205
sI3216
S'magic'
p3206
sI3217
S'knight'
p3207
sI3218
S'button'
p3208
sI3219
S'shock'
p3209
sI3220
S'michael'
p3210
sI3221
S'anxious'
p3211
sI3222
S'pout'
p3212
sI3223
S'race'
p3213
sI3224
S'smug'
p3214
sI3225
S'husband'
p3215
sI3226
S'rack'
p3216
sI3227
S'smaller'
p3217
sI3228
S'nonactive'
p3218
sI3229
S'crow'
p3219
sI3230
S'wrestling'
p3220
sI3231
S'ripped'
p3221
sI3232
S'chomp'
p3222
sI3233
S'filled'
p3223
sI3234
S'jump'
p3224
sI3235
S'fold'
p3225
sI3236
S'jums'
p3226
sI3237
S'video'
p3227
sI3238
S'sunglasse'
p3228
sI3239
S'uncomfortable'
p3229
sI3240
S'plead'
p3230
sI3241
S'protrude'
p3231
sI3242
S'spaghetti'
p3232
sI3243
S'click'
p3233
sI3244
S'index'
p3234
sI3245
S'poke'
p3235
sI3246
S'plays'
p3236
sI3247
S'business'
p3237
sI3248
S'soup'
p3238
sI3249
S'giving'
p3239
sI3250
S'erractically'
p3240
sI3251
S'mough'
p3241
sI3252
S'paddle'
p3242
sI3253
S'cell'
p3243
sI3254
S'playe'
p3244
sI3255
S'lumber'
p3245
sI3256
S'eating'
p3246
sI3257
S'anther'
p3247
sI3258
S't'
sI3259
S'gasoline'
p3248
sI3260
S'bird'
p3249
sI3261
S'exercise'
p3250
sI3262
S'unruly'
p3251
sI3263
S'body'
p3252
sI3264
S'inspect'
p3253
sI3265
S'stance'
p3254
sI3266
S'leg'
p3255
sI3267
S'got'
p3256
sI3268
S'kangaroo'
p3257
sI3269
S'pushing'
p3258
sI3270
S'punch'
p3259
sI3271
S'explore'
p3260
sI3272
S'intercept'
p3261
sI3273
S'let'
p3262
sI3274
S'sink'
p3263
sI3275
S'pancake'
p3264
sI3276
S'others'
p3265
sI3277
S'sing'
p3266
sI3278
S'perforation'
p3267
sI3279
S'extreme'
p3268
sI3280
S'capsules'
p3269
sI3281
S'drops'
p3270
sI3282
S'receive'
p3271
sI3283
S'laughter'
p3272
sI3284
S'until'
p3273
sI3285
S'larger'
p3274
sI3286
S'shades'
p3275
sI3287
S'fetch'
p3276
sI3288
S'tires'
p3277
sI3289
S'anamatedly'
p3278
sI3290
S'armpit'
p3279
sI3291
S'popcorn'
p3280
sI3292
S'climb'
p3281
sI3293
S'paws'
p3282
sI3294
S'ruin'
p3283
sI3295
S'cigatrette'
p3284
sI3296
S'wig'
p3285
sI3297
S'shovel'
p3286
sI3298
S'see'
p3287
sI3299
S'apple'
p3288
sI3300
S'nearest'
p3289
sI3301
S'win'
p3290
sI3302
S'pinkies'
p3291
sI3303
S'ceasar'
p3292
sI3304
S'apprehensive'
p3293
sI3305
S'private'
p3294
sI3306
S'rignt'
p3295
sI3307
S'motor'
p3296
sI3308
S'duck'
p3297
sI3309
S'beckon'
p3298
sI3310
S'apply'
p3299
sI3311
S'clockwise'
p3300
sI3312
S'singing'
p3301
sI3313
S'staple'
p3302
sI3314
S'cloud'
p3303
sI3315
S'lime'
p3304
sI3316
S'standing'
p3305
sI3317
S'camers'
p3306
sI3318
S'use'
p3307
sI3319
S'beachball'
p3308
sI3320
S'from'
p3309
sI3321
S'stream'
p3310
sI3322
S'zip'
p3311
sI3323
S'frog'
p3312
sI3324
S'next'
p3313
sI3325
S'zig'
p3314
sI3326
S'camera'
p3315
sI3327
S'vehicle'
p3316
sI3328
S'themselves'
p3317
sI3329
S'historically'
p3318
sI3330
S'disgustingly'
p3319
sI3331
S'cheeks'
p3320
sI3332
S'pencil'
p3321
sI3333
S'excitedly'
p3322
sI3334
S'giggle'
p3323
sI3335
S'tennis'
p3324
sI3336
S'fowarad'
p3325
sI3337
S'musician'
p3326
sI3338
S'missile'
p3327
sI3339
S'trail'
p3328
sI3340
S'train'
p3329
sI3341
S'bullhorn'
p3330
sI3342
S'rabbit'
p3331
sI3343
S'baby'
p3332
sI3344
S'central'
p3333
sI3345
S'chef'
p3334
sI3346
S'mircrophone'
p3335
sI3347
S'women'
p3336
sI3348
S'annoy'
p3337
sI3349
S'rice'
p3338
sI3350
S'animals'
p3339
sI3351
S'unconcerned'
p3340
sI3352
S'cheetah'
p3341
sI3353
S'tunnel'
p3342
sI3354
S'ride'
p3343
sI3355
S'kickflip'
p3344
sI3356
S'pour'
p3345
sI3357
S'jeep'
p3346
sI3358
S'carrot'
p3347
sI3359
S'thin'
p3348
sI3360
S'drill'
p3349
sI3361
S'of'
p3350
sI3362
S'tonque'
p3351
sI3363
S'meet'
p3352
sI3364
S'closing'
p3353
sI3365
S'corpse'
p3354
sI3366
S'pelican'
p3355
sI3367
S'scatter'
p3356
sI3368
S'something'
p3357
sI3369
S'control'
p3358
sI3370
S'porcupine'
p3359
sI3371
S'wharf'
p3360
sI3372
S'tap'
p3361
sI3373
S'bent'
p3362
sI3374
S'patron'
p3363
sI3375
S'plate'
p3364
sI3376
S'lock'
p3365
sI3377
S'pieces'
p3366
sI3378
S'high'
p3367
sI3379
S"n't"
p3368
sI3380
S'slit'
p3369
sI3381
S'faceplant'
p3370
sI3382
S'pulling'
p3371
sI3383
S'bend'
p3372
sI3384
S'slip'
p3373
sI3385
S'buckets'
p3374
sI3386
S'pelvis'
p3375
sI3387
S'tan'
p3376
sI3388
S'voice'
p3377
sI3389
S'skirt'
p3378
sI3390
S'syrups'
p3379
sI3391
S'hangar'
p3380
sI3392
S'lamb'
p3381
sI3393
S'hesitate'
p3382
sI3394
S'sip'
p3383
sI3395
S'varied'
p3384
sI3396
S'sit'
p3385
sI3397
S'trumpet'
p3386
sI3398
S'holds'
p3387
sI3399
S'lamp'
p3388
sI3400
S'camels'
p3389
sI3401
S'pair'
p3390
sI3402
S'forest'
p3391
sI3403
S'animal'
p3392
sI3404
S'instead'
p3393
sI3405
S'bandana'
p3394
sI3406
S'toddler'
p3395
sI3407
S'occlude'
p3396
sI3408
S'typewriter'
p3397
sI3409
S'profile'
p3398
sI3410
S'tension'
p3399
sI3411
S'buildings'
p3400
sI3412
S'furiously'
p3401
sI3413
S'blocks'
p3402
sI3414
S'frontflip'
p3403
sI3415
S'farm'
p3404
sI3416
S'watch'
p3405
sI3417
S'await'
p3406
sI3418
S'vaccum'
p3407
sI3419
S'tied'
p3408
sI3420
S'dominos'
p3409
sI3421
S'fart'
p3410
sI3422
S'towle'
p3411
sI3423
S'notebook'
p3412
sI3424
S'wrist'
p3413
sI3425
S'prance'
p3414
sI3426
S'discard'
p3415
sI3427
S'ceil'
p3416
sI3428
S'someplace'
p3417
sI3429
S'ou'
p3418
sI3430
S'awes'
p3419
sI3431
S'cuddling'
p3420
sI3432
S'somethin'
p3421
sI3433
S'famous'
p3422
sI3434
S'bind'
p3423
sI3435
S'counter'
p3424
sI3436
S'platypus'
p3425
sI3437
S'robot'
p3426
sI3438
S'giggly'
p3427
sI3439
S'scoop'
p3428
sI3440
S'scoot'
p3429
sI3441
S'allow'
p3430
sI3442
S'tounge'
p3431
sI3443
S'furious'
p3432
sI3444
S"its'"
p3433
sI3445
S'quotations'
p3434
sI3446
S'mustache'
p3435
sI3447
S'ignite'
p3436
sI3448
S'thigh'
p3437
sI3449
S'somegthing'
p3438
sI3450
S'peck'
p3439
sI3451
S'move'
p3440
sI3452
S'sarcasticly'
p3441
sI3453
S'ladies'
p3442
sI3454
S'symbols'
p3443
sI3455
S'toungue'
p3444
sI3456
S'hugged'
p3445
sI3457
S'motorcycle'
p3446
sI3458
S'fifa'
p3447
sI3459
S'dagger'
p3448
sI3460
S'shapes'
p3449
sI3461
S'smahes'
p3450
sI3462
S'bunch'
p3451
sI3463
S'horizontally'
p3452
sI3464
S'hil'
p3453
sI3465
S'broom'
p3454
sI3466
S'rubin'
p3455
sI3467
S'degrees'
p3456
sI3468
S'choose'
p3457
sI3469
S'suspicous'
p3458
sI3470
S'orange'
p3459
sI3471
S'towrad'
p3460
sI3472
S'bye'
p3461
sI3473
S'fourth'
p3462
sI3474
S'dad'
p3463
sI3475
S'flex'
p3464
sI3476
S'crash'
p3465
sI3477
S'skater'
p3466
sI3478
S'flour'
p3467
sI3479
S'material'
p3468
sI3480
S'swordfish'
p3469
sI3481
S'bat'
p3470
sI3482
S'oranges'
p3471
sI3483
S'dock'
p3472
sI3484
S'snorkel'
p3473
sI3485
S'snake'
p3474
sI3486
S'kiss'
p3475
sI3487
S'hands'
p3476
sI3488
S'front'
p3477
sI3489
S'acidic'
p3478
sI3490
S'flee'
p3479
sI3491
S'transparent'
p3480
sI3492
S'flail'
p3481
sI3493
S'bewilderment'
p3482
sI3494
S'somethong'
p3483
sI3495
S'blindfolded'
p3484
sI3496
S'sleeve'
p3485
sI3497
S'gorund'
p3486
sI3498
S'boots'
p3487
sI3499
S'blowing'
p3488
sI3500
S'slide'
p3489
sI3501
S'sidewards'
p3490
sI3502
S'fiddle'
p3491
sI3503
S'trap'
p3492
sI3504
S'crossing'
p3493
sI3505
S'unnattached'
p3494
sI3506
S'stock'
p3495
sI3507
S'shaking'
p3496
sI3508
S'glasses'
p3497
sI3509
S'ankles'
p3498
sI3510
S'activate'
p3499
sI3511
S'illuminate'
p3500
sI3512
S'bump'
p3501
sI3513
S'noodle'
p3502
sI3514
S'globe'
p3503
sI3515
S'dissappeared'
p3504
sI3516
S'multicolored'
p3505
sI3517
S'seesaw'
p3506
sI3518
S'books'
p3507
sI3519
S'thirteen'
p3508
sI3520
S'irritation'
p3509
sI3521
S'cupboard'
p3510
sI3522
S'sweatshirt'
p3511
sI3523
S'goalkeeper'
p3512
sI3524
S'snorkeling'
p3513
sI3525
S'out'
p3514
sI3526
S'fondle'
p3515
sI3527
S'octopus'
p3516
sI3528
S'staircase'
p3517
sI3529
S'twice'
p3518
sI3530
S'cigarrette'
p3519
sI3531
S'filpped'
p3520
sI3532
S'defend'
p3521
sI3533
S'stucks'
p3522
sI3534
S'rev'
p3523
sI3535
S'eyelids'
p3524
sI3536
S'mate'
p3525
sI3537
S'playground'
p3526
sI3538
S'performs'
p3527
sI3539
S'gloves'
p3528
sI3540
S'stun'
p3529
sI3541
S'red'
p3530
sI3542
S'catched'
p3531
sI3543
S'racquet'
p3532
sI3544
S'shut'
p3533
sI3545
S'umbrella'
p3534
sI3546
S'standalone'
p3535
sI3547
S'undo'
p3536
sI3548
S'fourteen'
p3537
sI3549
S'completely'
p3538
sI3550
S'york'
p3539
sI3551
S'dumpster'
p3540
sI3552
S'x'
sI3553
S'thrust'
p3541
sI3554
S'embarrass'
p3542
sI3555
S'princess'
p3543
sI3556
S'scary'
p3544
sI3557
S'overtake'
p3545
sI3558
S'yard'
p3546
sI3559
S'her'
p3547
sI3560
S'spill'
p3548
sI3561
S'skateboard'
p3549
sI3562
S'headbutt'
p3550
sI3563
S'yarn'
p3551
sI3564
S'keep'
p3552
sI3565
S'counterpart'
p3553
sI3566
S'stride'
p3554
sI3567
S'shred'
p3555
sI3568
S'pudding'
p3556
sI3569
S'biting'
p3557
sI3570
S'scard'
p3558
sI3571
S'scare'
p3559
sI3572
S'scarf'
p3560
sI3573
S'distracted'
p3561
sI3574
S'blown'
p3562
sI3575
S'bouquet'
p3563
sI3576
S'confuse'
p3564
sI3577
S'scene'
p3565
sI3578
S'sack'
p3566
sI3579
S'embarrassed'
p3567
sI3580
S'hurdle'
p3568
sI3581
S'disapproval'
p3569
sI3582
S'lagging'
p3570
sI3583
S'owner'
p3571
sI3584
S'reached'
p3572
sI3585
S'blows'
p3573
sI3586
S'suck'
p3574
sI3587
S'braces'
p3575
sI3588
S'prank'
p3576
sI3589
S'killer'
p3577
sI3590
S'sadly'
p3578
sI3591
S'monkey'
p3579
sI3592
S'revealed'
p3580
sI3593
S'blowdryer'
p3581
sI3594
S'chased'
p3582
sI3595
S'system'
p3583
sI3596
S'wrapper'
p3584
sI3597
S'grow'
p3585
sI3598
S'inmate'
p3586
sI3599
S'their'
p3587
sI3600
S'attack'
p3588
sI3601
S'cats'
p3589
sI3602
S'lids'
p3590
sI3603
S'decorations'
p3591
sI3604
S'ankle'
p3592
sI3605
S'stroked'
p3593
sI3606
S'nut'
p3594
sI3607
S'painful'
p3595
sI3608
S'beard'
p3596
sI3609
S'stomach'
p3597
sI3610
S'gear'
p3598
sI3611
S'shorts'
p3599
sI3612
S'shelf'
p3600
sI3613
S'nobody'
p3601
sI3614
S'chemicals'
p3602
sI3615
S'manhole'
p3603
sI3616
S'sex'
p3604
sI3617
S'herself'
p3605
sI3618
S'completes'
p3606
sI3619
S'waist'
p3607
sI3620
S'ipad'
p3608
sI3621
S'siderail'
p3609
sI3622
S'photograph'
p3610
sI3623
S'unamused'
p3611
sI3624
S'uninterested'
p3612
sI3625
S'behinds'
p3613
sI3626
S'boring'
p3614
sI3627
S'beg'
p3615
sI3628
S'bed'
p3616
sI3629
S'bee'
p3617
sI3630
S'defense'
p3618
sI3631
S'light'
p3619
sI3632
S'sculpture'
p3620
sI3633
S'wheelchair'
p3621
sI3634
S'steer'
p3622
sI3635
S'clip'
p3623
sI3636
S'viewer'
p3624
sI3637
S'splatter'
p3625
sI3638
S'gently'
p3626
sI3639
S'liner'
p3627
sI3640
S'eleictric'
p3628
sI3641
S'blit'
p3629
sI3642
S'have'
p3630
sI3643
S'unfreezed'
p3631
sI3644
S'paraglide'
p3632
sI3645
S'granules'
p3633
sI3646
S'skeletons'
p3634
sI3647
S'screw'
p3635
sI3648
S'microphone'
p3636
sI3649
S'afraid'
p3637
sI3650
S'sprinkler'
p3638
sI3651
S'soak'
p3639
sI3652
S'babel'
p3640
sI3653
S'mic'
p3641
sI3654
S'mid'
p3642
sI3655
S'outward'
p3643
sI3656
S'mix'
p3644
sI3657
S'which'
p3645
sI3658
S'subject'
p3646
sI3659
S'target'
p3647
sI3660
S'soap'
p3648
sI3661
S'soar'
p3649
sI3662
S'bemused'
p3650
sI3663
S'clash'
p3651
sI3664
S'deploy'
p3652
sI3665
S'passionately'
p3653
sI3666
S'firecrackers'
p3654
sI3667
S'who'
p3655
sI3668
S'eyeliner'
p3656
sI3669
S'necklace'
p3657
sI3670
S'eight'
p3658
sI3671
S'anxsious'
p3659
sI3672
S'kitkat'
p3660
sI3673
S'device'
p3661
sI3674
S'awe'
p3662
sI3675
S'medal'
p3663
sI3676
S'class'
p3664
sI3677
S'clasp'
p3665
sI3678
S'cellphone'
p3666
sI3679
S'eject'
p3667
sI3680
S'urn'
p3668
sI3681
S'gather'
p3669
sI3682
S'upset'
p3670
sI3683
S'curiously'
p3671
sI3684
S'face'
p3672
sI3685
S'pipe'
p3673
sI3686
S'ignited'
p3674
sI3687
S'near'
p3675
sI3688
S'ballons'
p3676
sI3689
S'gesture'
p3677
sI3690
S'cutlery'
p3678
sI3691
S'pictures'
p3679
sI3692
S'wounded'
p3680
sI3693
S'skinny'
p3681
sI3694
S'normally'
p3682
sI3695
S'text'
p3683
sI3696
S'burners'
p3684
sI3697
S'bum'
p3685
sI3698
S'crate'
p3686
sI3699
S'meighbors'
p3687
sI3700
S'animatedly'
p3688
sI3701
S'brother'
p3689
sI3702
S'bring'
p3690
sI3703
S'biker'
p3691
sI3704
S'seaweed'
p3692
sI3705
S'bedroom'
p3693
sI3706
S'ottoman'
p3694
sI3707
S'chicken'
p3695
sI3708
S'pleased'
p3696
sI3709
S'shield'
p3697
sI3710
S'nearer'
p3698
sI3711
S'squeeze'
p3699
sI3712
S'grabbed'
p3700
sI3713
S'tire'
p3701
sI3714
S'holder'
p3702
sI3715
S'jaw'
p3703
sI3716
S'hopeful'
p3704
sI3717
S'mug'
p3705
sI3718
S'eat'
p3706
sI3719
S'buttons'
p3707
sI3720
S'finget'
p3708
sI3721
S'creamer'
p3709
sI3722
S'shinny'
p3710
sI3723
S'rejoice'
p3711
sI3724
S'riding'
p3712
sI3725
S'surprizingly'
p3713
sI3726
S'partially'
p3714
sI3727
S'flinch'
p3715
sI3728
S'dodge'
p3716
sI3729
S'cube'
p3717
sI3730
S'handle'
p3718
sI3731
S'beat'
p3719
sI3732
S'coworker'
p3720
sI3733
S'intensed'
p3721
sI3734
S'bear'
p3722
sI3735
S'cotten'
p3723
sI3736
S'wiggle'
p3724
sI3737
S'bean'
p3725
sI3738
S'ones'
p3726
sI3739
S'words'
p3727
sI3740
S'beak'
p3728
sI3741
S'striped'
p3729
sI3742
S'wring'
p3730
sI3743
S'styrofoam'
p3731
sI3744
S'exploding'
p3732
sI3745
S'netural'
p3733
sI3746
S'smash'
p3734
sI3747
S'tobacco'
p3735
sI3748
S'spatula'
p3736
sI3749
S'grap'
p3737
sI3750
S'shy'
p3738
sI3751
S'fixes'
p3739
sI3752
S'eyebrow'
p3740
sI3753
S'summon'
p3741
sI3754
S'stuff'
p3742
sI3755
S'she'
p3743
sI3756
S'contain'
p3744
sI3757
S'grab'
p3745
sI3758
S'handstand'
p3746
sI3759
S'looks'
p3747
sI3760
S'toe'
p3748
sI3761
S'backside'
p3749
sI3762
S'puddle'
p3750
sI3763
S'pitch'
p3751
sI3764
S'freeze'
p3752
sI3765
S'moves'
p3753
sI3766
S'computer'
p3754
sI3767
S'powder'
p3755
sI3768
S'skateboarding'
p3756
sI3769
S'racket'
p3757
sI3770
S'closer'
p3758
sI3771
S'wire'
p3759
sI3772
S'acrss'
p3760
sI3773
S'closet'
p3761
sI3774
S'placed'
p3762
sI3775
S'posing'
p3763
sI3776
S'participant'
p3764
sI3777
S'below'
p3765
sI3778
S'canons'
p3766
sI3779
S'pinata'
p3767
sI3780
S'icecream'
p3768
sI3781
S'hammock'
p3769
sI3782
S'unravel'
p3770
sI3783
S'closed'
p3771
sI3784
S'piston'
p3772
sI3785
S'juggle'
p3773
sI3786
S'pistol'
p3774
sI3787
S'frustrated'
p3775
sI3788
S'shateboard'
p3776
sI3789
S'pants'
p3777
sI3790
S'bleed'
p3778
sI3791
S'explosive'
p3779
sI3792
S'underwater'
p3780
sI3793
S'keg'
p3781
sI3794
S'joy'
p3782
sI3795
S'pation'
p3783
sI3796
S'facepalm'
p3784
sI3797
S'dartboard'
p3785
sI3798
S'spear'
p3786
sI3799
S'joe'
p3787
sI3800
S'key'
p3788
sI3801
S'jog'
p3789
sI3802
S'approval'
p3790
sI3803
S'frontwards'
p3791
sI3804
S'mailbox'
p3792
sI3805
S'backstage'
p3793
sI3806
S'seagull'
p3794
sI3807
S'monitor'
p3795
sI3808
S'exclaim'
p3796
sI3809
S'drum'
p3797
sI3810
S'sniff'
p3798
sI3811
S'handstands'
p3799
sI3812
S'joke'
p3800
sI3813
S'flowered'
p3801
sI3814
S'ramp'
p3802
sI3815
S'aircraft'
p3803
sI3816
S'drug'
p3804
sI3817
S'unbutton'
p3805
sI3818
S'doorway'
p3806
sI3819
S'grief'
p3807
sI3820
S'tousle'
p3808
sI3821
S'puff'
p3809
sI3822
S'swallow'
p3810
sI3823
S'safely'
p3811
sI3824
S'byt'
p3812
sI3825
S'jersey'
p3813
sI3826
S'balloons'
p3814
sI3827
S'ch'
p3815
sI3828
S'medallion'
p3816
sI3829
S'wall'
p3817
sI3830
S'ca'
p3818
sI3831
S'smilling'
p3819
sI3832
S'walk'
p3820
sI3833
S'vend'
p3821
sI3834
S'javelin'
p3822
sI3835
S'laugh'
p3823
sI3836
S'table'
p3824
sI3837
S'inhale'
p3825
sI3838
S'mailman'
p3826
sI3839
S'motorbike'
p3827
sI3840
S'twerks'
p3828
sI3841
S'swimmer'
p3829
sI3842
S'disintegrate'
p3830
sI3843
S'storefront'
p3831
sI3844
S'polka'
p3832
sI3845
S'hers'
p3833
sI3846
S'exhausted'
p3834
sI3847
S'gaze'
p3835
sI3848
S'slowly'
p3836
sI3849
S'treat'
p3837
sI3850
S'certain'
p3838
sI3851
S'curtain'
p3839
sI3852
S'feather'
p3840
sI3853
S'waste'
p3841
sI3854
S'antlers'
p3842
sI3855
S'shoulders'
p3843
sI3856
S'perplexed'
p3844
sI3857
S'tricep'
p3845
sI3858
S'painted'
p3846
sI3859
S'moved'
p3847
sI3860
S'airplanes'
p3848
sI3861
S'cigaratte'
p3849
sI3862
S'redhead'
p3850
sI3863
S'controller'
p3851
sI3864
S'tense'
p3852
sI3865
S'mannequin'
p3853
sI3866
S'bull'
p3854
sI3867
S'kicks'
p3855
sI3868
S'bulb'
p3856
sI3869
S'overturn'
p3857
sI3870
S'napoleon'
p3858
sI3871
S'rightward'
p3859
sI3872
S'multi'
p3860
sI3873
S'plaid'
p3861
sI3874
S'laser'
p3862
sI3875
S'license'
p3863
sI3876
S'intimidate'
p3864
sI3877
S'plain'
p3865
sI3878
S'runway'
p3866
sI3879
S'examine'
p3867
sI3880
S'chalk'
p3868
sI3881
S'animated'
p3869
sI3882
S'wild'
p3870
sI3883
S'bathtub'
p3871
sI3884
S'groin'
p3872
sI3885
S'snack'
p3873
sI3886
S'layer'
p3874
sI3887
S'eyeball'
p3875
sI3888
S'tickled'
p3876
sI3889
S'almost'
p3877
sI3890
S'walks'
p3878
sI3891
S'surprisingly'
p3879
sI3892
S'surface'
p3880
sI3893
S'rooster'
p3881
sI3894
S'pip'
p3882
sI3895
S'vr'
p3883
sI3896
S'vs'
p3884
sI3897
S'audiences'
p3885
sI3898
S'partner'
p3886
sI3899
S'sits'
p3887
sI3900
S'seaway'
p3888
sI3901
S'whirl'
p3889
sI3902
S'downstage'
p3890
sI3903
S'shooting'
p3891
sI3904
S'tonuge'
p3892
sI3905
S'sleve'
p3893
sI3906
S'balloon'
p3894
sI3907
S'popsicle'
p3895
sI3908
S'cross'
p3896
sI3909
S'member'
p3897
sI3910
S'condescendingly'
p3898
sI3911
S'strange'
p3899
sI3912
S'curiousity'
p3900
sI3913
S'inch'
p3901
sI3914
S'party'
p3902
sI3915
S'fill'
p3903
sI3916
S'tapped'
p3904
sI3917
S'tighten'
p3905
sI3918
S'spell'
p3906
sI3919
S'earphones'
p3907
sI3920
S'recline'
p3908
sI3921
S'disagree'
p3909
sI3922
S'diploma'
p3910
sI3923
S'coffe'
p3911
sI3924
S'binoculars'
p3912
sI3925
S'tangled'
p3913
sI3926
S'sarcastic'
p3914
sI3927
S'student'
p3915
sI3928
S'dust'
p3916
sI3929
S'pedal'
p3917
sI3930
S'whale'
p3918
sI3931
S'nation'
p3919
sI3932
S'collar'
p3920
sI3933
S'expand'
p3921
sI3934
S'gutter'
p3922
sI3935
S'off'
p3923
sI3936
S'center'
p3924
sI3937
S'prescription'
p3925
sI3938
S'i'
sI3939
S'shotgun'
p3926
sI3940
S'weapon'
p3927
sI3941
S'well'
p3928
sI3942
S'fighting'
p3929
sI3943
S'scissor'
p3930
sI3944
S'rink'
p3931
sI3945
S'drone'
p3932
sI3946
S'command'
p3933
sI3947
S'spectator'
p3934
sI3948
S'twirl'
p3935
sI3949
S'hazard'
p3936
sI3950
S'position'
p3937
sI3951
S'limp'
p3938
sI3952
S'muscle'
p3939
sI3953
S'bandanna'
p3940
sI3954
S'rocker'
p3941
sI3955
S'taller'
p3942
sI3956
S'coaster'
p3943
sI3957
S'bananas'
p3944
sI3958
S'rocket'
p3945
sI3959
S'camel'
p3946
sI3960
S'swords'
p3947
sI3961
S'half'
p3948
sI3962
S'distant'
p3949
sI3963
S'seats'
p3950
sI3964
S'tough'
p3951
sI3965
S'baggage'
p3952
sI3966
S'seductively'
p3953
sI3967
S'flashlight'
p3954
sI3968
S'web'
p3955
sI3969
S'tong'
p3956
sI3970
S'spinned'
p3957
sI3971
S'field'
p3958
sI3972
S'cage'
p3959
sI3973
S'bell'
p3960
sI3974
S'sky'
p3961
sI3975
S'lake'
p3962
sI3976
S'canister'
p3963
sI3977
S'bench'
p3964
sI3978
S'add'
p3965
sI3979
S'other'
p3966
sI3980
S'combine'
p3967
sI3981
S'circular'
p3968
sI3982
S'crack'
p3969
sI3983
S'smart'
p3970
sI3984
S'ski'
p3971
sI3985
S'kick'
p3972
sI3986
S'cheecks'
p3973
sI3987
S'knob'
p3974
sI3988
S'wastebasket'
p3975
sI3989
S'soccerball'
p3976
sI3990
S'branch'
p3977
sI3991
S'magnify'
p3978
sI3992
S'unhampered'
p3979
sI3993
S'taunt'
p3980
sI3994
S'bowling'
p3981
sI3995
S'maskface'
p3982
sI3996
S'dryer'
p3983
sI3997
S'five'
p3984
sI3998
S'facial'
p3985
sI3999
S'desk'
p3986
sI4000
S'press'
p3987
sI4001
S'doughnut'
p3988
sI4002
S'intersection'
p3989
sI4003
S'pier'
p3990
sI4004
S'woeful'
p3991
sI4005
S'insert'
p3992
sI4006
S'puppy'
p3993
sI4007
S'showing'
p3994
sI4008
S'like'
p3995
sI4009
S'lost'
p3996
sI4010
S'chairs'
p3997
sI4011
S'sofa'
p3998
sI4012
S'candy'
p3999
sI4013
S'loses'
p4000
sI4014
S'garage'
p4001
sI4015
S'stagger'
p4002
sI4016
S'lose'
p4003
sI4017
S'become'
p4004
sI4018
S'page'
p4005
sI4019
S'heel'
p4006
sI4020
S'trucked'
p4007
sI4021
S'because'
p4008
sI4022
S'glare'
p4009
sI4023
S'scepter'
p4010
sI4024
S'ballon'
p4011
sI4025
S'tumble'
p4012
sI4026
S'imaginary'
p4013
sI4027
S'scared'
p4014
sI4028
S'scuffle'
p4015
sI4029
S'hair'
p4016
sI4030
S'repeat'
p4017
sI4031
S'holler'
p4018
sI4032
S'home'
p4019
sI4033
S'ballot'
p4020
sI4034
S'shrug'
p4021
sI4035
S'leaf'
p4022
sI4036
S'disbelief'
p4023
sI4037
S'rubik'
p4024
sI4038
S'literally'
p4025
sI4039
S'avoid'
p4026
sI4040
S'lean'
p4027
sI4041
S'thank'
p4028
sI4042
S'leap'
p4029
sI4043
S'does'
p4030
sI4044
S'passion'
p4031
sI4045
S'freezed'
p4032
sI4046
S'earrings'
p4033
sI4047
S'speak'
p4034
sI4048
S'snuggle'
p4035
sI4049
S'pepper'
p4036
sI4050
S'hose'
p4037
sI4051
S'cymbol'
p4038
sI4052
S'midair'
p4039
sI4053
S'mitt'
p4040
sI4054
S'rock'
p4041
sI4055
S'bouncily'
p4042
sI4056
S'host'
p4043
sI4057
S'gandalf'
p4044
sI4058
S'llama'
p4045
sI4059
S'stage'
p4046
sI4060
S'plastic'
p4047
sI4061
S'about'
p4048
sI4062
S'carried'
p4049
sI4063
S'rioter'
p4050
sI4064
S'saddle'
p4051
sI4065
S'column'
p4052
sI4066
S'tray'
p4053
sI4067
S'conveyor'
p4054
sI4068
S'foil'
p4055
sI4069
S'bearded'
p4056
sI4070
S'carrier'
p4057
sI4071
S'sweat'
p4058
sI4072
S'pumps'
p4059
sI4073
S'tongue'
p4060
sI4074
S'upward'
p4061
sI4075
S'bandmate'
p4062
sI4076
S'swimming'
p4063
sI4077
S'owl'
p4064
sI4078
S'reptile'
p4065
sI4079
S'own'
p4066
sI4080
S'raquet'
p4067
sI4081
S'tag'
p4068
sI4082
S'socks'
p4069
sI4083
S'headphone'
p4070
sI4084
S'raquel'
p4071
sI4085
S'guard'
p4072
sI4086
S'weather'
p4073
sI4087
S'brush'
p4074
sI4088
S'female'
p4075
sI4089
S'secretive'
p4076
sI4090
S'blower'
p4077
sI4091
S'privates'
p4078
sI4092
S'jubilee'
p4079
sI4093
S'van'
p4080
sI4094
S'gerbil'
p4081
sI4095
S'snowplow'
p4082
sI4096
S'transfer'
p4083
sI4097
S'vegetables'
p4084
sI4098
S'spiral'
p4085
sI4099
S'spots'
p4086
sI4100
S'doing'
p4087
sI4101
S'bees'
p4088
sI4102
S'inner'
p4089
sI4103
S'pouty'
p4090
sI4104
S'drumstick'
p4091
sI4105
S'cliff'
p4092
sI4106
S'pufferfish'
p4093
sI4107
S'footwork'
p4094
sI4108
S'stadium'
p4095
sI4109
S'unwrap'
p4096
sI4110
S'bus'
p4097
sI4111
S'brand'
p4098
sI4112
S'glace'
p4099
sI4113
S'monk'
p4100
sI4114
S'but'
p4101
sI4115
S'delivery'
p4102
sI4116
S'widly'
p4103
sI4117
S'neutral'
p4104
sI4118
S'hi'
p4105
sI4119
S'bun'
p4106
sI4120
S'gain'
p4107
sI4121
S'wince'
p4108
sI4122
S'bookshelf'
p4109
sI4123
S'ear'
p4110
sI4124
S'bug'
p4111
sI4125
S'bud'
p4112
sI4126
S'he'
p4113
sI4127
S'count'
p4114
sI4128
S'genitals'
p4115
sI4129
S'made'
p4116
sI4130
S'places'
p4117
sI4131
S'wife'
p4118
sI4132
S'smooth'
p4119
sI4133
S'flip'
p4120
sI4134
S'distract'
p4121
sI4135
S'excitement'
p4122
sI4136
S'record'
p4123
sI4137
S'garbage'
p4124
sI4138
S'cello'
p4125
sI4139
S'offstage'
p4126
sI4140
S'cake'
p4127
sI4141
S'piece'
p4128
sI4142
S'broadly'
p4129
sI4143
S'display'
p4130
sI4144
S'skating'
p4131
sI4145
S'iphone'
p4132
sI4146
S'pin'
p4133
sI4147
S'resting'
p4134
sI4148
S'whisper'
p4135
sI4149
S'dish'
p4136
sI4150
S'pie'
p4137
sI4151
S'maroon'
p4138
sI4152
S'pig'
p4139
sI4153
S'twist'
p4140
sI4154
S'cap'
p4141
sI4155
S'referee'
p4142
sI4156
S'cub'
p4143
sI4157
S'kissed'
p4144
sI4158
S'pit'
p4145
sI4159
S'screarming'
p4146
sI4160
S'balcony'
p4147
sI4161
S'loud'
p4148
sI4162
S'danceers'
p4149
sI4163
S'dressed'
p4150
sI4164
S'guitarist'
p4151
sI4165
S'boot'
p4152
sI4166
S'bauble'
p4153
sI4167
S'book'
p4154
sI4168
S'tentacle'
p4155
sI4169
S'oar'
p4156
sI4170
S'ledge'
p4157
sI4171
S'seatbelt'
p4158
sI4172
S'boob'
p4159
sI4173
S'ponytail'
p4160
sI4174
S'dresser'
p4161
sI4175
S'exclamation'
p4162
sI4176
S'earbud'
p4163
sI4177
S'frisbee'
p4164
sI4178
S'star'
p4165
sI4179
S'worker'
p4166
sI4180
S'june'
p4167
sI4181
S'stay'
p4168
sI4182
S'jetski'
p4169
sI4183
S'stab'
p4170
sI4184
S'unsmoked'
p4171
sI4185
S'jackson'
p4172
sI4186
S'gap'
p4173
sI4187
S'friends'
p4174
sI4188
S'vein'
p4175
sI4189
S'upwards'
p4176
sI4190
S'ghost'
p4177
sI4191
S'droplet'
p4178
sI4192
S'baker'
p4179
sI4193
S'jab'
p4180
sI4194
S'radiantly'
p4181
sI4195
S'portion'
p4182
sI4196
S'pupil'
p4183
sI4197
S'dominoes'
p4184
sI4198
S'rural'
p4185
sI4199
S'yell'
p4186
sI4200
S'parrot'
p4187
s.