(dp1
I0
S'.'
sI1
S'UNK'
p2
sI2
S'headband'
p3
sI3
S'hats'
p4
sI4
S'yellow'
p5
sI5
S'bottons'
p6
sI6
S'woods'
p7
sI7
S'asian'
p8
sI8
S'hanging'
p9
sI9
S'attemp'
p10
sI10
S'shamble'
p11
sI11
S'untie'
p12
sI12
S'electricity'
p13
sI13
S'tickle'
p14
sI14
S'swat'
p15
sI15
S'unroll'
p16
sI16
S'bike'
p17
sI17
S'booties'
p18
sI18
S'under'
p19
sI19
S'sway'
p20
sI20
S'worth'
p21
sI21
S'fists'
p22
sI22
S'swivel'
p23
sI23
S'dispense'
p24
sI24
S'blanket'
p25
sI25
S'rise'
p26
sI26
S'costume'
p27
sI27
S'smack'
p28
sI28
S'jack'
p29
sI29
S'tank'
p30
sI30
S'lbs'
p31
sI31
S'disturb'
p32
sI32
S'parrot'
p33
sI33
S'wooden'
p34
sI34
S'pinch'
p35
sI35
S'samurai'
p36
sI36
S'crotch'
p37
sI37
S'ups'
p38
sI38
S'clothes'
p39
sI39
S'chew'
p40
sI40
S'force'
p41
sI41
S'eagle'
p42
sI42
S'bacon'
p43
sI43
S'direct'
p44
sI44
S'pulse'
p45
sI45
S'horn'
p46
sI46
S'nail'
p47
sI47
S'second'
p48
sI48
S'street'
p49
sI49
S'panda'
p50
sI50
S'monster'
p51
sI51
S'blue'
p52
sI52
S'hide'
p53
sI53
S'fingers'
p54
sI54
S'lights'
p55
sI55
S'drumbs'
p56
sI56
S'above'
p57
sI57
S'cars'
p58
sI58
S'new'
p59
sI59
S'pawed'
p60
sI60
S'crunch'
p61
sI61
S'crouch'
p62
sI62
S'chins'
p63
sI63
S'pancakes'
p64
sI64
S'men'
p65
sI65
S'here'
p66
sI66
S'active'
p67
sI67
S'cubical'
p68
sI68
S'kids'
p69
sI69
S'shoulers'
p70
sI70
S'luggage'
p71
sI71
S'items'
p72
sI72
S'leaves'
p73
sI73
S'tv'
p74
sI74
S'smoke'
p75
sI75
S'eyebrows'
p76
sI76
S'hunch'
p77
sI77
S'vaults'
p78
sI78
S'straw'
p79
sI79
S'hobble'
p80
sI80
S'cane'
p81
sI81
S'punching'
p82
sI82
S'glance'
p83
sI83
S'bra'
p84
sI84
S'opponents'
p85
sI85
S'swings'
p86
sI86
S'lilps'
p87
sI87
S'fingernails'
p88
sI88
S'sweater'
p89
sI89
S'coins'
p90
sI90
S'arms'
p91
sI91
S'bleed'
p92
sI92
S'music'
p93
sI93
S'chinchilla'
p94
sI94
S'strike'
p95
sI95
S'type'
p96
sI96
S'blueberry'
p97
sI97
S'breathe'
p98
sI98
S'holy'
p99
sI99
S'expose'
p100
sI100
S'training'
p101
sI101
S'award'
p102
sI102
S'lunge'
p103
sI103
S'phone'
p104
sI104
S'adult'
p105
sI105
S'breaths'
p106
sI106
S'hole'
p107
sI107
S'hold'
p108
sI108
S'blindfold'
p109
sI109
S'shoot'
p110
sI110
S'peekaboo'
p111
sI111
S'bunnies'
p112
sI112
S'room'
p113
sI113
S'work'
p114
sI114
S'eclipse'
p115
sI115
S'worm'
p116
sI116
S'roof'
p117
sI117
S'locker'
p118
sI118
S'cuddle'
p119
sI119
S'elbow'
p120
sI120
S'exhale'
p121
sI121
S'plunger'
p122
sI122
S'transition'
p123
sI123
S'foodie'
p124
sI124
S'wand'
p125
sI125
S'give'
p126
sI126
S'nozzle'
p127
sI127
S'dolphin'
p128
sI128
S'motocycle'
p129
sI129
S'dragons'
p130
sI130
S'madonna'
p131
sI131
S'brest'
p132
sI132
S'end'
p133
sI133
S'pogo'
p134
sI134
S'thing'
p135
sI135
S'travel'
p136
sI136
S'braids'
p137
sI137
S'machine'
p138
sI138
S'very'
p139
sI139
S'hot'
p140
sI140
S'drummer'
p141
sI141
S'bunt'
p142
sI142
S'hop'
p143
sI143
S'airquote'
p144
sI144
S'chase'
p145
sI145
S'beach'
p146
sI146
S'pizza'
p147
sI147
S'mess'
p148
sI148
S'ladder'
p149
sI149
S'after'
p150
sI150
S'jumping'
p151
sI151
S'lay'
p152
sI152
S'sparkler'
p153
sI153
S'lap'
p154
sI154
S'attempt'
p155
sI155
S'third'
p156
sI156
S'pulsate'
p157
sI157
S'wink'
p158
sI158
S'upside'
p159
sI159
S'enter'
p160
sI160
S'wing'
p161
sI161
S'wind'
p162
sI162
S'wine'
p163
sI163
S'cymbols'
p164
sI164
S'flippers'
p165
sI165
S'pelican'
p166
sI166
S'over'
p167
sI167
S'clench'
p168
sI168
S'oven'
p169
sI169
S'keyboard'
p170
sI170
S'windshield'
p171
sI171
S'before'
p172
sI172
S'somewhere'
p173
sI173
S'fix'
p174
sI174
S','
sI175
S'carve'
p175
sI176
S'fin'
p176
sI177
S'split'
p177
sI178
S'coffee'
p178
sI179
S'collide'
p179
sI180
S'break'
p180
sI181
S'band'
p181
sI182
S'bang'
p182
sI183
S'giraffe'
p183
sI184
S'velcro'
p184
sI185
S'interrupt'
p185
sI186
S'blink'
p186
sI187
S'silver'
p187
sI188
S'bread'
p188
sI189
S'meat'
p189
sI190
S'potatoes'
p190
sI191
S'rocks'
p191
sI192
S'explode'
p192
sI193
S'filling'
p193
sI194
S'victory'
p194
sI195
S'arrow'
p195
sI196
S'each'
p196
sI197
S'hurdle'
p197
sI198
S'side'
p198
sI199
S'bone'
p199
sI200
S'lifted'
p200
sI201
S'hanger'
p201
sI202
S'snakes'
p202
sI203
S'spider'
p203
sI204
S'sled'
p204
sI205
S'lifter'
p205
sI206
S'juggling'
p206
sI207
S'navy'
p207
sI208
S'ring'
p208
sI209
S'whip'
p209
sI210
S'clothe'
p210
sI211
S'pounce'
p211
sI212
S'snail'
p212
sI213
S'driving'
p213
sI214
S'smirk'
p214
sI215
S'passengers'
p215
sI216
S'forty'
p216
sI217
S'adjust'
p217
sI218
S'forth'
p218
sI219
S'sliding'
p219
sI220
S'peddles'
p220
sI221
S'turning'
p221
sI222
S'waddle'
p222
sI223
S'fave'
p223
sI224
S'struggle'
p224
sI225
S'grapes'
p225
sI226
S'putts'
p226
sI227
S'kit'
p227
sI228
S'knit'
p228
sI229
S'lollipop'
p229
sI230
S'soda'
p230
sI231
S'cucumber'
p231
sI232
S'onto'
p232
sI233
S'chakle'
p233
sI234
S'shopper'
p234
sI235
S'hoop'
p235
sI236
S'puck'
p236
sI237
S'veggie'
p237
sI238
S'hoot'
p238
sI239
S'wash'
p239
sI240
S'spinning'
p240
sI241
S'downside'
p241
sI242
S'another'
p242
sI243
S'bicycle'
p243
sI244
S'plastic'
p244
sI245
S'hoof'
p245
sI246
S'hood'
p246
sI247
S'centrifuge'
p247
sI248
S'basketball'
p248
sI249
S'top'
p249
sI250
S'neck'
p250
sI251
S'girls'
p251
sI252
S'twisted'
p252
sI253
S'vibrate'
p253
sI254
S'blowned'
p254
sI255
S'master'
p255
sI256
S'fumble'
p256
sI257
S'inflate'
p257
sI258
S'legs'
p258
sI259
S'dogs'
p259
sI260
S'toe'
p260
sI261
S'kiwi'
p261
sI262
S'ceiling'
p262
sI263
S'emblem'
p263
sI264
S'feathers'
p264
sI265
S'gym'
p265
sI266
S'serve'
p266
sI267
S'lower'
p267
sI268
S'cereal'
p268
sI269
S'crawl'
p269
sI270
S'tires'
p270
sI271
S'icicle'
p271
sI272
S'tree'
p272
sI273
S'seated'
p273
sI274
S'shower'
p274
sI275
S'flame'
p275
sI276
S'friend'
p276
sI277
S'iron'
p277
sI278
S'mini'
p278
sI279
S'donkey'
p279
sI280
S'anus'
p280
sI281
S'ran'
p281
sI282
S'paddles'
p282
sI283
S'rat'
p283
sI284
S'seed'
p284
sI285
S'nipples'
p285
sI286
S'escalator'
p286
sI287
S'necktie'
p287
sI288
S'snow'
p288
sI289
S'snot'
p289
sI290
S'chest'
p290
sI291
S'ribbon'
p291
sI292
S'doors'
p292
sI293
S'snowflake'
p293
sI294
S'circles'
p294
sI295
S'princess'
p295
sI296
S'wrists'
p296
sI297
S'object'
p297
sI298
S'phonograph'
p298
sI299
S'dial'
p299
sI300
S'mouth'
p300
sI301
S'baricade'
p301
sI302
S'letter'
p302
sI303
S'coin'
p303
sI304
S'jean'
p304
sI305
S'laughing'
p305
sI306
S'singer'
p306
sI307
S'pointe'
p307
sI308
S'flop'
p308
sI309
S'flow'
p309
sI310
S'dog'
p310
sI311
S'releves'
p311
sI312
S'sun'
p312
sI313
S'scream'
p313
sI314
S'dot'
p314
sI315
S'yank'
p315
sI316
S'bomb'
p316
sI317
S'lyrics'
p317
sI318
S'random'
p318
sI319
S'skitter'
p319
sI320
S'colors'
p320
sI321
S'radio'
p321
sI322
S'peddle'
p322
sI323
S'toast'
p323
sI324
S'bind'
p324
sI325
S'bust'
p325
sI326
S'sugar'
p326
sI327
S'cougar'
p327
sI328
S'knuckle'
p328
sI329
S'touched'
p329
sI330
S'folder'
p330
sI331
S'rice'
p331
sI332
S'wearing'
p332
sI333
S'do'
p333
sI334
S'tiles'
p334
sI335
S'sunglasses'
p335
sI336
S'colorful'
p336
sI337
S'wide'
p337
sI338
S'watch'
p338
sI339
S'foremost'
p339
sI340
S'pocket'
p340
sI341
S'watermelon'
p341
sI342
S'wedding'
p342
sI343
S'toungue'
p343
sI344
S'net'
p344
sI345
S'bat'
p345
sI346
S'bar'
p346
sI347
S'tights'
p347
sI348
S'boarder'
p348
sI349
S'patch'
p349
sI350
S'bag'
p350
sI351
S'eyelids'
p351
sI352
S'discs'
p352
sI353
S'shots'
p353
sI354
S'release'
p354
sI355
S'steam'
p355
sI356
S'ears'
p356
sI357
S'habit'
p357
sI358
S'nut'
p358
sI359
S'splayed'
p359
sI360
S'nun'
p360
sI361
S'stetch'
p361
sI362
S'flashed'
p362
sI363
S'noodles'
p363
sI364
S'hammer'
p364
sI365
S'hairbrush'
p365
sI366
S'wingles'
p366
sI367
S'away'
p367
sI368
S'rings'
p368
sI369
S'mud'
p369
sI370
S'mug'
p370
sI371
S'score'
p371
sI372
S'finger'
p372
sI373
S'shaver'
p373
sI374
S'approach'
p374
sI375
S'pirate'
p375
sI376
S'360'
p376
sI377
S'wears'
p377
sI378
S'extend'
p378
sI379
S'handful'
p379
sI380
S'toothbrush'
p380
sI381
S'wear'
p381
sI382
S'unfold'
p382
sI383
S'wheelbarrow'
p383
sI384
S'touchpad'
p384
sI385
S'surfer'
p385
sI386
S'roller'
p386
sI387
S'cop'
p387
sI388
S'cow'
p388
sI389
S'eyedrops'
p389
sI390
S'eyeball'
p390
sI391
S'jelly'
p391
sI392
S'against'
p392
sI393
S'bodysuit'
p393
sI394
S'players'
p394
sI395
S'cob'
p395
sI396
S'faces'
p396
sI397
S'widen'
p397
sI398
S'spear'
p398
sI399
S'appeared'
p399
sI400
S'character'
p400
sI401
S'cobble'
p401
sI402
S'2nd'
p402
sI403
S'springy'
p403
sI404
S'towels'
p404
sI405
S'blonde'
p405
sI406
S'heals'
p406
sI407
S'hitler'
p407
sI408
S'speak'
p408
sI409
S'bathroom'
p409
sI410
S'lightly'
p410
sI411
S'ropes'
p411
sI412
S'smash'
p412
sI413
S'three'
p413
sI414
S'beer'
p414
sI415
S'trigger'
p415
sI416
S'basin'
p416
sI417
S'tallest'
p417
sI418
S'teenager'
p418
sI419
S'baloon'
p419
sI420
S'spit'
p420
sI421
S'droplets'
p421
sI422
S'worker'
p422
sI423
S'gently'
p423
sI424
S'lift'
p424
sI425
S'hoist'
p425
sI426
S'child'
p426
sI427
S'catch'
p427
sI428
S'spin'
p428
sI429
S'spim'
p429
sI430
S'harms'
p430
sI431
S'drumset'
p431
sI432
S'shrink'
p432
sI433
S'air'
p433
sI434
S'lizard'
p434
sI435
S'thrash'
p435
sI436
S'balance'
p436
sI437
S'armband'
p437
sI438
S'cons'
p438
sI439
S'is'
p439
sI440
S'it'
p440
sI441
S'player'
p441
sI442
S'tissue'
p442
sI443
S'cans'
p443
sI444
S'in'
p444
sI445
S'violin'
p445
sI446
S'astronaut'
p446
sI447
S'mouse'
p447
sI448
S'id'
p448
sI449
S'if'
p449
sI450
S'growl'
p450
sI451
S'bottles'
p451
sI452
S'credit'
p452
sI453
S'perform'
p453
sI454
S'things'
p454
sI455
S'make'
p455
sI456
S'forehead'
p456
sI457
S'patient'
p457
sI458
S'belly'
p458
sI459
S'vegetable'
p459
sI460
S'plates'
p460
sI461
S'bunny'
p461
sI462
S'wheel'
p462
sI463
S'outstretch'
p463
sI464
S'moose'
p464
sI465
S'rail'
p465
sI466
S'eyeshadow'
p466
sI467
S'rain'
p467
sI468
S'hand'
p468
sI469
S'hooded'
p469
sI470
S'characters'
p470
sI471
S'unicorn'
p471
sI472
S'nip'
p472
sI473
S'nit'
p473
sI474
S'kid'
p474
sI475
S'drip'
p475
sI476
S'contact'
p476
sI477
S'tombstone'
p477
sI478
S'mother'
p478
sI479
S'the'
p479
sI480
S'musical'
p480
sI481
S'left'
p481
sI482
S'gody'
p482
sI483
S'athletic'
p483
sI484
S'photo'
p484
sI485
S'laptop'
p485
sI486
S'moonwalk'
p486
sI487
S'rodent'
p487
sI488
S'fighters'
p488
sI489
S'thumbs'
p489
sI490
S'human'
p490
sI491
S'yes'
p491
sI492
S'brandish'
p492
sI493
S'snout'
p493
sI494
S'nudge'
p494
sI495
S'han'
p495
sI496
S'had'
p496
sI497
S'shout'
p497
sI498
S'spread'
p498
sI499
S'board'
p499
sI500
S'contestant'
p500
sI501
S'hat'
p501
sI502
S'photographed'
p502
sI503
S'bdoy'
p503
sI504
S'feets'
p504
sI505
S'looks'
p505
sI506
S'boxes'
p506
sI507
S'boxer'
p507
sI508
S'pepperornoi'
p508
sI509
S'background'
p509
sI510
S'cape'
p510
sI511
S'shadow'
p511
sI512
S'apart'
p512
sI513
S'shoulder'
p513
sI514
S'cooler'
p514
sI515
S'performing'
p515
sI516
S'zoom'
p516
sI517
S'unsuspecting'
p517
sI518
S'pavement'
p518
sI519
S'steps'
p519
sI520
S'officer'
p520
sI521
S'zombies'
p521
sI522
S'surf'
p522
sI523
S'right'
p523
sI524
S'old'
p524
sI525
S'crowd'
p525
sI526
S'people'
p526
sI527
S'crown'
p527
sI528
S'elderly'
p528
sI529
S'sponge'
p529
sI530
S'hassle'
p530
sI531
S'flatten'
p531
sI532
S'escape'
p532
sI533
S'dear'
p533
sI534
S'creep'
p534
sI535
S'for'
p535
sI536
S'bottom'
p536
sI537
S'purple'
p537
sI538
S'fox'
p538
sI539
S'headshake'
p539
sI540
S'microwave'
p540
sI541
S'filming'
p541
sI542
S'treadmill'
p542
sI543
S'skateboarder'
p543
sI544
S'tamburine'
p544
sI545
S'cord'
p545
sI546
S'peek'
p546
sI547
S'shaker'
p547
sI548
S'peel'
p548
sI549
S'lefts'
p549
sI550
S'finguer'
p550
sI551
S'corn'
p551
sI552
S'trampoline'
p552
sI553
S'lamps'
p553
sI554
S'bolt'
p554
sI555
S'peer'
p555
sI556
S'post'
p556
sI557
S'trophy'
p557
sI558
S'slither'
p558
sI559
S'cowboy'
p559
sI560
S'meow'
p560
sI561
S'ribs'
p561
sI562
S'shield'
p562
sI563
S'o'
sI564
S'magazine'
p563
sI565
S'twitch'
p564
sI566
S'slightly'
p565
sI567
S'sob'
p566
sI568
S'sheets'
p567
sI569
S'float'
p568
sI570
S'tamberine'
p569
sI571
S'down'
p570
sI572
S'fumes'
p571
sI573
S'clomp'
p572
sI574
S'bats'
p573
sI575
S'raises'
p574
sI576
S'wrap'
p575
sI577
S'petting'
p576
sI578
S'insult'
p577
sI579
S'stumble'
p578
sI580
S'wan'
p579
sI581
S'deal'
p580
sI582
S'wag'
p581
sI583
S'tennis'
p582
sI584
S'sunlight'
p583
sI585
S'fight'
p584
sI586
S'ramps'
p585
sI587
S'way'
p586
sI588
S'overhead'
p587
sI589
S'was'
p588
sI590
S'war'
p589
sI591
S'fork'
p590
sI592
S'head'
p591
sI593
S'form'
p592
sI594
S'offer'
p593
sI595
S'fireworks'
p594
sI596
S'hear'
p595
sI597
S'otter'
p596
sI598
S'inside'
p597
sI599
S'attached'
p598
sI600
S'crystal'
p599
sI601
S'sratch'
p600
sI602
S'dare'
p601
sI603
S'trim'
p602
sI604
S'horses'
p603
sI605
S'later'
p604
sI606
S'sticks'
p605
sI607
S'forearm'
p606
sI608
S'toss'
p607
sI609
S'sidestep'
p608
sI610
S'ship'
p609
sI611
S'mold'
p610
sI612
S'trip'
p611
sI613
S'shit'
p612
sI614
S'looked'
p613
sI615
S'saber'
p614
sI616
S'dotted'
p615
sI617
S'no'
p616
sI618
S'glacier'
p617
sI619
S'stake'
p618
sI620
S'tip'
p619
sI621
S'actor'
p620
sI622
S'zany'
p621
sI623
S'holding'
p622
sI624
S'papers'
p623
sI625
S'tie'
p624
sI626
S'smell'
p625
sI627
S'roll'
p626
sI628
S'picture'
p627
sI629
S"'s"
p628
sI630
S'sling'
p629
sI631
S'rubberband'
p630
sI632
S'football'
p631
sI633
S'stoke'
p632
sI634
S'longer'
p633
sI635
S'bullet'
p634
sI636
S'glass'
p635
sI637
S'together'
p636
sI638
S'jacket'
p637
sI639
S'carts'
p638
sI640
S'gyrate'
p639
sI641
S'teeth'
p640
sI642
S'push'
p641
sI643
S'fasten'
p642
sI644
S'backward'
p643
sI645
S'coach'
p644
sI646
S'chain'
p645
sI647
S'dance'
p646
sI648
S'skip'
p647
sI649
S'skis'
p648
sI650
S'rod'
p649
sI651
S'focus'
p650
sI652
S'switches'
p651
sI653
S'crocodile'
p652
sI654
S'shimmy'
p653
sI655
S'ice'
p654
sI656
S'skin'
p655
sI657
S'trashcan'
p656
sI658
S'chair'
p657
sI659
S'skid'
p658
sI660
S'row'
p659
sI661
S'tounge'
p660
sI662
S'hump'
p661
sI663
S'flash'
p662
sI664
S'skateboards'
p663
sI665
S'crates'
p664
sI666
S'waterguns'
p665
sI667
S'charge'
p666
sI668
S'melon'
p667
sI669
S'hammers'
p668
sI670
S'eybrows'
p669
sI671
S'brown'
p670
sI672
S'smartphone'
p671
sI673
S'string'
p672
sI674
S'jerk'
p673
sI675
S'kitten'
p674
sI676
S'cook'
p675
sI677
S'cyan'
p676
sI678
S'blast'
p677
sI679
S'brows'
p678
sI680
S'tear'
p679
sI681
S'turns'
p680
sI682
S'dig'
p681
sI683
S'posts'
p682
sI684
S'gun'
p683
sI685
S'gum'
p684
sI686
S'item'
p685
sI687
S'grimace'
p686
sI688
S'teal'
p687
sI689
S'team'
p688
sI690
S'guy'
p689
sI691
S'dip'
p690
sI692
S'round'
p691
sI693
S'shave'
p692
sI694
S'upper'
p693
sI695
S'blade'
p694
sI696
S'sigh'
p695
sI697
S'sign'
p696
sI698
S'run'
p697
sI699
S'drinks'
p698
sI700
S'headset'
p699
sI701
S'appear'
p700
sI702
S'convulse'
p701
sI703
S'uniform'
p702
sI704
S'wriggle'
p703
sI705
S'goer'
p704
sI706
S'ground'
p705
sI707
S'badge'
p706
sI708
S'pose'
p707
sI709
S'banister'
p708
sI710
S'wail'
p709
sI711
S'hairs'
p710
sI712
S'makeup'
p711
sI713
S'french'
p712
sI714
S'costumes'
p713
sI715
S'water'
p714
sI716
S'slow'
p715
sI717
S'baseball'
p716
sI718
S'frosting'
p717
sI719
S'hoops'
p718
sI720
S'haird'
p719
sI721
S'change'
p720
sI722
S'box'
p721
sI723
S'buck'
p722
sI724
S'shove'
p723
sI725
S'bop'
p724
sI726
S'shift'
p725
sI727
S'muscleman'
p726
sI728
S'bow'
p727
sI729
S'bangs'
p728
sI730
S'raccoon'
p729
sI731
S'boa'
p730
sI732
S'bob'
p731
sI733
S'backstep'
p732
sI734
S'pillow'
p733
sI735
S'massage'
p734
sI736
S'bog'
p735
sI737
S'teenage'
p736
sI738
S'tuxedo'
p737
sI739
S'kayak'
p738
sI740
S'keeper'
p739
sI741
S'snowboard'
p740
sI742
S'stings'
p741
sI743
S'fake'
p742
sI744
S'pony'
p743
sI745
S'forefront'
p744
sI746
S'bended'
p745
sI747
S'dangle'
p746
sI748
S'dude'
p747
sI749
S'tears'
p748
sI750
S'handles'
p749
sI751
S'somersault'
p750
sI752
S'sharpen'
p751
sI753
S'swagger'
p752
sI754
S'prep'
p753
sI755
S'plug'
p754
sI756
S'conductor'
p755
sI757
S'club'
p756
sI758
S'chocolate'
p757
sI759
S'carnival'
p758
sI760
S'dumbell'
p759
sI761
S'flapping'
p760
sI762
S'cases'
p761
sI763
S'mascot'
p762
sI764
S'fly'
p763
sI765
S'skaters'
p764
sI766
S'car'
p765
sI767
S'pretend'
p766
sI768
S'cat'
p767
sI769
S'soup'
p768
sI770
S'can'
p769
sI771
S'making'
p770
sI772
S'sidways'
p771
sI773
S'bites'
p772
sI774
S'heart'
p773
sI775
S'performer'
p774
sI776
S'stream'
p775
sI777
S'chip'
p776
sI778
S'near'
p777
sI779
S'parachute'
p778
sI780
S'drawer'
p779
sI781
S'stroke'
p780
sI782
S'chin'
p781
sI783
S'clothing'
p782
sI784
S'airplane'
p783
sI785
S'chid'
p784
sI786
S'pink'
p785
sI787
S'rubix'
p786
sI788
S'skater'
p787
sI789
S'tilt'
p788
sI790
S'ping'
p789
sI791
S'write'
p790
sI792
S'fourth'
p791
sI793
S'skates'
p792
sI794
S'pins'
p793
sI795
S'product'
p794
sI796
S'mat'
p795
sI797
S'cocktail'
p796
sI798
S'dive'
p797
sI799
S'tipped'
p798
sI800
S'suck'
p799
sI801
S'headscarf'
p800
sI802
S'lifting'
p801
sI803
S'man'
p802
sI804
S'reposition'
p803
sI805
S'branches'
p804
sI806
S'waist'
p805
sI807
S'liquid'
p806
sI808
S'beam'
p807
sI809
S'drumsticks'
p808
sI810
S'chef'
p809
sI811
S'switch'
p810
sI812
S'truck'
p811
sI813
S'african'
p812
sI814
S'basket'
p813
sI815
S'tall'
p814
sI816
S'talk'
p815
sI817
S'comfort'
p816
sI818
S'shoes'
p817
sI819
S'pointed'
p818
sI820
S'flips'
p819
sI821
S'shake'
p820
sI822
S'turnlight'
p821
sI823
S'pointer'
p822
sI824
S'birds'
p823
sI825
S'dreading'
p824
sI826
S'jig'
p825
sI827
S'tending'
p826
sI828
S'group'
p827
sI829
S'thumb'
p828
sI830
S'curly'
p829
sI831
S'cheerleaders'
p830
sI832
S'window'
p831
sI833
S'waggle'
p832
sI834
S'tiara'
p833
sI835
S'fling'
p834
sI836
S'nod'
p835
sI837
S'rake'
p836
sI838
S'touching'
p837
sI839
S'tails'
p838
sI840
S'half'
p839
sI841
S'not'
p840
sI842
S'hall'
p841
sI843
S'runners'
p842
sI844
S'execute'
p843
sI845
S'lies'
p844
sI846
S'servant'
p845
sI847
S'scooters'
p846
sI848
S'drop'
p847
sI849
S'bowling'
p848
sI850
S'quarter'
p849
sI851
S'turtle'
p850
sI852
S'square'
p851
sI853
S'eyelid'
p852
sI854
S'sprinkle'
p853
sI855
S'goose'
p854
sI856
S'skydiver'
p855
sI857
S'zeroes'
p856
sI858
S'girl'
p857
sI859
S'bonehead'
p858
sI860
S'canvas'
p859
sI861
S'container'
p860
sI862
S'stitch'
p861
sI863
S'space'
p862
sI864
S'cycle'
p863
sI865
S'undulate'
p864
sI866
S'looking'
p865
sI867
S'penguins'
p866
sI868
S'receiving'
p867
sI869
S'shows'
p868
sI870
S'tweeze'
p869
sI871
S'maneuver'
p870
sI872
S'hula'
p871
sI873
S'octopus'
p872
sI874
S'sideways'
p873
sI875
S'boobs'
p874
sI876
S'cart'
p875
sI877
S'mime'
p876
sI878
S'vinyl'
p877
sI879
S'headbang'
p878
sI880
S'cough'
p879
sI881
S'orb'
p880
sI882
S'card'
p881
sI883
S'fabric'
p882
sI884
S'underwear'
p883
sI885
S'language'
p884
sI886
S'backside'
p885
sI887
S'flare'
p886
sI888
S'buzzer'
p887
sI889
S'headphones'
p888
sI890
S'hoola'
p889
sI891
S'motion'
p890
sI892
S'turn'
p891
sI893
S'place'
p892
sI894
S'footwear'
p893
sI895
S'swing'
p894
sI896
S'teammates'
p895
sI897
S'first'
p896
sI898
S'cheese'
p897
sI899
S'flying'
p898
sI900
S'zag'
p899
sI901
S'disburse'
p900
sI902
S'carry'
p901
sI903
S'message'
p902
sI904
S'open'
p903
sI905
S'sheep'
p904
sI906
S'little'
p905
sI907
S'sheet'
p906
sI908
S'bite'
p907
sI909
S'flutter'
p908
sI910
S'2'
sI911
S'stuffed'
p909
sI912
S'typing'
p910
sI913
S'white'
p911
sI914
S'puddle'
p912
sI915
S'mermaid'
p913
sI916
S'gives'
p914
sI917
S'fingrs'
p915
sI918
S'eyes'
p916
sI919
S'hug'
p917
sI920
S'that'
p918
sI921
S'butt'
p919
sI922
S'peck'
p920
sI923
S'than'
p921
sI924
S'10'
p922
sI925
S'television'
p923
sI926
S'12'
p924
sI927
S'knives'
p925
sI928
S'cymbals'
p926
sI929
S'cards'
p927
sI930
S'tractor'
p928
sI931
S'and'
p929
sI932
S'coconut'
p930
sI933
S'lick'
p931
sI934
S'angel'
p932
sI935
S'parking'
p933
sI936
S'slap'
p934
sI937
S'say'
p935
sI938
S'slam'
p936
sI939
S'pastry'
p937
sI940
S'saw'
p938
sI941
S'any'
p939
sI942
S'sat'
p940
sI943
S'squat'
p941
sI944
S'pirouette'
p942
sI945
S'scartch'
p943
sI946
S'knead'
p944
sI947
S'aside'
p945
sI948
S'shocked'
p946
sI949
S'note'
p947
sI950
S'equipment'
p948
sI951
S'take'
p949
sI952
S'green'
p950
sI953
S'tambourine'
p951
sI954
S'butterfly'
p952
sI955
S'printer'
p953
sI956
S'track'
p954
sI957
S'compress'
p955
sI958
S'zigzag'
p956
sI959
S'printed'
p957
sI960
S'sunglass'
p958
sI961
S'knee'
p959
sI962
S'pages'
p960
sI963
S'dragonfly'
p961
sI964
S'cloth'
p962
sI965
S'napkin'
p963
sI966
S'drive'
p964
sI967
S'tooth'
p965
sI968
S'aerosol'
p966
sI969
S'squint'
p967
sI970
S'axe'
p968
sI971
S'hedgehog'
p969
sI972
S'slope'
p970
sI973
S'walking'
p971
sI974
S'show'
p972
sI975
S'bright'
p973
sI976
S'shoe'
p974
sI977
S'pump'
p975
sI978
S'corner'
p976
sI979
S'data'
p977
sI980
S'trot'
p978
sI981
S'snack'
p979
sI982
S'dice'
p980
sI983
S'stair'
p981
sI984
S'title'
p982
sI985
S'jolt'
p983
sI986
S'gulp'
p984
sI987
S'foward'
p985
sI988
S'oponent'
p986
sI989
S'wood'
p987
sI990
S'black'
p988
sI991
S'hockey'
p989
sI992
S'school'
p990
sI993
S'robe'
p991
sI994
S'pumpkin'
p992
sI995
S'bridge'
p993
sI996
S'hippo'
p994
sI997
S'explosion'
p995
sI998
S'get'
p996
sI999
S'stomp'
p997
sI1000
S'nearly'
p998
sI1001
S'lighter'
p999
sI1002
S'kness'
p1000
sI1003
S'gem'
p1001
sI1004
S'artist'
p1002
sI1005
S'leather'
p1003
sI1006
S'naked'
p1004
sI1007
S'priest'
p1005
sI1008
S'bombs'
p1006
sI1009
S'dough'
p1007
sI1010
S'tent'
p1008
sI1011
S'burst'
p1009
sI1012
S'seat'
p1010
sI1013
S'seal'
p1011
sI1014
S'pebble'
p1012
sI1015
S'sport'
p1013
sI1016
S'turbine'
p1014
sI1017
S'bumpy'
p1015
sI1018
S'saxaphone'
p1016
sI1019
S'sideburns'
p1017
sI1020
S'ornament'
p1018
sI1021
S'goers'
p1019
sI1022
S'teacup'
p1020
sI1023
S'outside'
p1021
sI1024
S'between'
p1022
sI1025
S'across'
p1023
sI1026
S'orchestrate'
p1024
sI1027
S'screen'
p1025
sI1028
S'pluck'
p1026
sI1029
S'guitar'
p1027
sI1030
S'jets'
p1028
sI1031
S'tub'
p1029
sI1032
S'comb'
p1030
sI1033
S'come'
p1031
sI1034
S'tug'
p1032
sI1035
S'mans'
p1033
sI1036
S'rugby'
p1034
sI1037
S'tuck'
p1035
sI1038
S'hours'
p1036
sI1039
S'contract'
p1037
sI1040
S'pcs'
p1038
sI1041
S'wheels'
p1039
sI1042
S'expression'
p1040
sI1043
S'backpack'
p1041
sI1044
S'comes'
p1042
sI1045
S'stretcher'
p1043
sI1046
S'passenger'
p1044
sI1047
S'color'
p1045
sI1048
S'pot'
p1046
sI1049
S'jeans'
p1047
sI1050
S'spank'
p1048
sI1051
S'singers'
p1049
sI1052
S'pole'
p1050
sI1053
S'stretched'
p1051
sI1054
S'poll'
p1052
sI1055
S'spark'
p1053
sI1056
S'boat'
p1054
sI1057
S'turkey'
p1055
sI1058
S'most'
p1056
sI1059
S'teammate'
p1057
sI1060
S'lioness'
p1058
sI1061
S'teddy'
p1059
sI1062
S'stretch'
p1060
sI1063
S'wobble'
p1061
sI1064
S'skatboard'
p1062
sI1065
S'undershirt'
p1063
sI1066
S'mark'
p1064
sI1067
S'breath'
p1065
sI1068
S'dictator'
p1066
sI1069
S'helicopter'
p1067
sI1070
S'cords'
p1068
sI1071
S'direction'
p1069
sI1072
S'lanes'
p1070
sI1073
S'fours'
p1071
sI1074
S'squash'
p1072
sI1075
S'tiger'
p1073
sI1076
S'spirit'
p1074
sI1077
S'straighten'
p1075
sI1078
S'trick'
p1076
sI1079
S'newspaper'
p1077
sI1080
S'cock'
p1078
sI1081
S'vest'
p1079
sI1082
S'punches'
p1080
sI1083
S'purse'
p1081
sI1084
S'telephone'
p1082
sI1085
S'sleeping'
p1083
sI1086
S'middle'
p1084
sI1087
S'embrace'
p1085
sI1088
S'heels'
p1086
sI1089
S'somebody'
p1087
sI1090
S'helmet'
p1088
sI1091
S'pat'
p1089
sI1092
S'paw'
p1090
sI1093
S'bowl'
p1091
sI1094
S'same'
p1092
sI1095
S'figurine'
p1093
sI1096
S'pad'
p1094
sI1097
S'pushup'
p1095
sI1098
S'otto'
p1096
sI1099
S'pullup'
p1097
sI1100
S'pan'
p1098
sI1101
S'nuzzle'
p1099
sI1102
S'exhaust'
p1100
sI1103
S'closest'
p1101
sI1104
S'crutches'
p1102
sI1105
S'applaud'
p1103
sI1106
S'assist'
p1104
sI1107
S'driver'
p1105
sI1108
S'weed'
p1106
sI1109
S'cymbal'
p1107
sI1110
S'persons'
p1108
sI1111
S'running'
p1109
sI1112
S'fruit'
p1110
sI1113
S'tamborine'
p1111
sI1114
S'cartoon'
p1112
sI1115
S'weave'
p1113
sI1116
S'nunchucks'
p1114
sI1117
S'burrito'
p1115
sI1118
S'floor'
p1116
sI1119
S'walls'
p1117
sI1120
S'spoonful'
p1118
sI1121
S'without'
p1119
sI1122
S'bottle'
p1120
sI1123
S'model'
p1121
sI1124
S'bodies'
p1122
sI1125
S'lysol'
p1123
sI1126
S'being'
p1124
sI1127
S'money'
p1125
sI1128
S'dancers'
p1126
sI1129
S'actress'
p1127
sI1130
S'kill'
p1128
sI1131
S'file'
p1129
sI1132
S'touch'
p1130
sI1133
S'polish'
p1131
sI1134
S'blow'
p1132
sI1135
S'death'
p1133
sI1136
S'snowboarder'
p1134
sI1137
S'womans'
p1135
sI1138
S'\\?'
p1136
sI1139
S'pups'
p1137
sI1140
S'gutair'
p1138
sI1141
S'pallet'
p1139
sI1142
S'instrument'
p1140
sI1143
S'4'
sI1144
S'hind'
p1141
sI1145
S'electrical'
p1142
sI1146
S'pill'
p1143
sI1147
S'skier'
p1144
sI1148
S'swim'
p1145
sI1149
S'grit'
p1146
sI1150
S'frown'
p1147
sI1151
S'read'
p1148
sI1152
S'marshmellow'
p1149
sI1153
S'mop'
p1150
sI1154
S'fridge'
p1151
sI1155
S'dart'
p1152
sI1156
S'dark'
p1153
sI1157
S'chainsaw'
p1154
sI1158
S'snarl'
p1155
sI1159
S'traffic'
p1156
sI1160
S'pop'
p1157
sI1161
S'mom'
p1158
sI1162
S'vacuum'
p1159
sI1163
S'using'
p1160
sI1164
S'lady'
p1161
sI1165
S'rear'
p1162
sI1166
S'furniture'
p1163
sI1167
S'clam'
p1164
sI1168
S'towel'
p1165
sI1169
S'bracelet'
p1166
sI1170
S'lightning'
p1167
sI1171
S'facing'
p1168
sI1172
S'audience'
p1169
sI1173
S't'
sI1174
S'clay'
p1170
sI1175
S'claw'
p1171
sI1176
S'downward'
p1172
sI1177
S'clap'
p1173
sI1178
S'fives'
p1174
sI1179
S'doll'
p1175
sI1180
S'ascend'
p1176
sI1181
S'erase'
p1177
sI1182
S'diving'
p1178
sI1183
S'squirm'
p1179
sI1184
S'palms'
p1180
sI1185
S'unlocked'
p1181
sI1186
S'shirtless'
p1182
sI1187
S'longboard'
p1183
sI1188
S'jiggle'
p1184
sI1189
S'moon'
p1185
sI1190
S'exit'
p1186
sI1191
S'squirt'
p1187
sI1192
S'knife'
p1188
sI1193
S'power'
p1189
sI1194
S'drumb'
p1190
sI1195
S'nails'
p1191
sI1196
S'surfboard'
p1192
sI1197
S'robots'
p1193
sI1198
S'pigtails'
p1194
sI1199
S'drums'
p1195
sI1200
S'assemble'
p1196
sI1201
S'throw'
p1197
sI1202
S'motorbike'
p1198
sI1203
S'racoon'
p1199
sI1204
S'giggle'
p1200
sI1205
S'stone'
p1201
sI1206
S'tease'
p1202
sI1207
S'ack'
p1203
sI1208
S'smear'
p1204
sI1209
S'fishtail'
p1205
sI1210
S'insect'
p1206
sI1211
S'chop'
p1207
sI1212
S'wolf'
p1208
sI1213
S'stand'
p1209
sI1214
S'wold'
p1210
sI1215
S'act'
p1211
sI1216
S'or'
p1212
sI1217
S'road'
p1213
sI1218
S'marshmallow'
p1214
sI1219
S'instruments'
p1215
sI1220
S'image'
p1216
sI1221
S'earring'
p1217
sI1222
S'strip'
p1218
sI1223
S'pivot'
p1219
sI1224
S'stare'
p1220
sI1225
S'fill'
p1221
sI1226
S'log'
p1222
sI1227
S'prepare'
p1223
sI1228
S'area'
p1224
sI1229
S'whales'
p1225
sI1230
S'there'
p1226
sI1231
S'wrigle'
p1227
sI1232
S'knods'
p1228
sI1233
S'cats'
p1229
sI1234
S'low'
p1230
sI1235
S'stars'
p1231
sI1236
S'hen'
p1232
sI1237
S'bubble'
p1233
sI1238
S'kittens'
p1234
sI1239
S'pitcher'
p1235
sI1240
S'eyeliner'
p1236
sI1241
S'cabinet'
p1237
sI1242
S'posterior'
p1238
sI1243
S'recoil'
p1239
sI1244
S'jut'
p1240
sI1245
S'walkway'
p1241
sI1246
S'burn'
p1242
sI1247
S'with'
p1243
sI1248
S'pull'
p1244
sI1249
S'pule'
p1245
sI1250
S'bucket'
p1246
sI1251
S'tiptoe'
p1247
sI1252
S'strawberry'
p1248
sI1253
S'torse'
p1249
sI1254
S'grasp'
p1250
sI1255
S'jackhammer'
p1251
sI1256
S'grass'
p1252
sI1257
S'torso'
p1253
sI1258
S'toilet'
p1254
sI1259
S'filp'
p1255
sI1260
S'subdue'
p1256
sI1261
S'taste'
p1257
sI1262
S'frighten'
p1258
sI1263
S'deer'
p1259
sI1264
S'mike'
p1260
sI1265
S'deep'
p1261
sI1266
S'an'
p1262
sI1267
S'as'
p1263
sI1268
S'at'
p1264
sI1269
S'nero'
p1265
sI1270
S'ax'
p1266
sI1271
S'skateboarders'
p1267
sI1272
S'tremble'
p1268
sI1273
S'cream'
p1269
sI1274
S'yoga'
p1270
sI1275
S'gorilla'
p1271
sI1276
S'pedals'
p1272
sI1277
S'swords'
p1273
sI1278
S'rubber'
p1274
sI1279
S'field'
p1275
sI1280
S'5'
sI1281
S'puppy'
p1276
sI1282
S'polar'
p1277
sI1283
S'symbol'
p1278
sI1284
S'time'
p1279
sI1285
S'drift'
p1280
sI1286
S'waving'
p1281
sI1287
S'bullets'
p1282
sI1288
S'peak'
p1283
sI1289
S'mechanical'
p1284
sI1290
S'torches'
p1285
sI1291
S'revolve'
p1286
sI1292
S'sneeze'
p1287
sI1293
S'awkwardly'
p1288
sI1294
S'pool'
p1289
sI1295
S'building'
p1290
sI1296
S'baloons'
p1291
sI1297
S'remote'
p1292
sI1298
S'groom'
p1293
sI1299
S'mask'
p1294
sI1300
S'smooch'
p1295
sI1301
S'scroll'
p1296
sI1302
S'haired'
p1297
sI1303
S'strings'
p1298
sI1304
S'retch'
p1299
sI1305
S'all'
p1300
sI1306
S'skeleton'
p1301
sI1307
S'pointing'
p1302
sI1308
S'seals'
p1303
sI1309
S'disc'
p1304
sI1310
S'smoking'
p1305
sI1311
S'dish'
p1306
sI1312
S'follow'
p1307
sI1313
S'macarani'
p1308
sI1314
S'disk'
p1309
sI1315
S'children'
p1310
sI1316
S'carpet'
p1311
sI1317
S'apartment'
p1312
sI1318
S'gymnast'
p1313
sI1319
S'dribble'
p1314
sI1320
S'to'
p1315
sI1321
S'tail'
p1316
sI1322
S'smile'
p1317
sI1323
S'puffs'
p1318
sI1324
S'woman'
p1319
sI1325
S'sitting'
p1320
sI1326
S'far'
p1321
sI1327
S'differenct'
p1322
sI1328
S'fat'
p1323
sI1329
S'baton'
p1324
sI1330
S'rogue'
p1325
sI1331
S'fan'
p1326
sI1332
S'fall'
p1327
sI1333
S'bubbles'
p1328
sI1334
S'celebrity'
p1329
sI1335
S'laying'
p1330
sI1336
S'large'
p1331
sI1337
S'dinosaur'
p1332
sI1338
S'sand'
p1333
sI1339
S'skate'
p1334
sI1340
S'small'
p1335
sI1341
S'flick'
p1336
sI1342
S'cockatoo'
p1337
sI1343
S'fence'
p1338
sI1344
S'inchwormed'
p1339
sI1345
S'tea'
p1340
sI1346
S'tee'
p1341
sI1347
S'cash'
p1342
sI1348
S'past'
p1343
sI1349
S'burger'
p1344
sI1350
S'unidentifiable'
p1345
sI1351
S'pass'
p1346
sI1352
S'hairspray'
p1347
sI1353
S'chuckle'
p1348
sI1354
S'what'
p1349
sI1355
S'tussle'
p1350
sI1356
S'clock'
p1351
sI1357
S'deeply'
p1352
sI1358
S'stool'
p1353
sI1359
S'lurch'
p1354
sI1360
S'<EOS>'
p1355
sI1361
S'milk'
p1356
sI1362
S'abs'
p1357
sI1363
S'racing'
p1358
sI1364
S'guns'
p1359
sI1365
S'movement'
p1360
sI1366
S'toes'
p1361
sI1367
S'ruffle'
p1362
sI1368
S'doorframe'
p1363
sI1369
S'bowtie'
p1364
sI1370
S'shoulds'
p1365
sI1371
S'puddles'
p1366
sI1372
S'ranger'
p1367
sI1373
S'beacon'
p1368
sI1374
S'themself'
p1369
sI1375
S'trunk'
p1370
sI1376
S'colored'
p1371
sI1377
S'stretching'
p1372
sI1378
S'scurry'
p1373
sI1379
S'soldier'
p1374
sI1380
S'hamster'
p1375
sI1381
S'pick'
p1376
sI1382
S'action'
p1377
sI1383
S'narrow'
p1378
sI1384
S'footballer'
p1379
sI1385
S'sticking'
p1380
sI1386
S'turnned'
p1381
sI1387
S'shuffle'
p1382
sI1388
S'pulll'
p1383
sI1389
S'balalnce'
p1384
sI1390
S'while'
p1385
sI1391
S'screens'
p1386
sI1392
S'stopper'
p1387
sI1393
S'toys'
p1388
sI1394
S'extinction'
p1389
sI1395
S'eye'
p1390
sI1396
S'takes'
p1391
sI1397
S'wield'
p1392
sI1398
S'two'
p1393
sI1399
S'generate'
p1394
sI1400
S'splash'
p1395
sI1401
S'6'
sI1402
S'jive'
p1396
sI1403
S'wiper'
p1397
sI1404
S'wipes'
p1398
sI1405
S'more'
p1399
sI1406
S'teen'
p1400
sI1407
S'flat'
p1401
sI1408
S'diamond'
p1402
sI1409
S'door'
p1403
sI1410
S'flap'
p1404
sI1411
S'chimpanzee'
p1405
sI1412
S'flag'
p1406
sI1413
S'stick'
p1407
sI1414
S'breach'
p1408
sI1415
S'suction'
p1409
sI1416
S'mounted'
p1410
sI1417
S'squish'
p1411
sI1418
S'sleeveless'
p1412
sI1419
S'guards'
p1413
sI1420
S'nine'
p1414
sI1421
S'smurk'
p1415
sI1422
S'wrestler'
p1416
sI1423
S'v'
sI1424
S'grope'
p1417
sI1425
S'male'
p1418
sI1426
S'shark'
p1419
sI1427
S'hamburger'
p1420
sI1428
S'pushes'
p1421
sI1429
S'gallop'
p1422
sI1430
S'joints'
p1423
sI1431
S'sphere'
p1424
sI1432
S'numbers'
p1425
sI1433
S'ukelele'
p1426
sI1434
S'pong'
p1427
sI1435
S'mn'
p1428
sI1436
S'dress'
p1429
sI1437
S'extinguisher'
p1430
sI1438
S'court'
p1431
sI1439
S'goal'
p1432
sI1440
S'khakis'
p1433
sI1441
S'toenail'
p1434
sI1442
S'stir'
p1435
sI1443
S'goat'
p1436
sI1444
S'creature'
p1437
sI1445
S'plant'
p1438
sI1446
S'sandwich'
p1439
sI1447
S'cirlce'
p1440
sI1448
S'rude'
p1441
sI1449
S'whirl'
p1442
sI1450
S'tries'
p1443
sI1451
S'plane'
p1444
sI1452
S'lighting'
p1445
sI1453
S'waves'
p1446
sI1454
S'gasp'
p1447
sI1455
S'horizontal'
p1448
sI1456
S'plank'
p1449
sI1457
S'a'
sI1458
S'short'
p1450
sI1459
S'coat'
p1451
sI1460
S'doctor'
p1452
sI1461
S'pucker'
p1453
sI1462
S'stash'
p1454
sI1463
S'dragon'
p1455
sI1464
S'shore'
p1456
sI1465
S'tentacles'
p1457
sI1466
S'chopsticks'
p1458
sI1467
S'cigarett'
p1459
sI1468
S'pleasure'
p1460
sI1469
S'egg'
p1461
sI1470
S'playing'
p1462
sI1471
S'chicks'
p1463
sI1472
S'infant'
p1464
sI1473
S'help'
p1465
sI1474
S'earing'
p1466
sI1475
S'pant'
p1467
sI1476
S'slouch'
p1468
sI1477
S'paper'
p1469
sI1478
S'through'
p1470
sI1479
S'lasers'
p1471
sI1480
S'lederhosen'
p1472
sI1481
S'smiling'
p1473
sI1482
S'25'
p1474
sI1483
S'style'
p1475
sI1484
S'rapidly'
p1476
sI1485
S'glide'
p1477
sI1486
S'call'
p1478
sI1487
S'inward'
p1479
sI1488
S'harmless'
p1480
sI1489
S'coconuts'
p1481
sI1490
S'soccer'
p1482
sI1491
S'sauce'
p1483
sI1492
S'someone'
p1484
sI1493
S'return'
p1485
sI1494
S'food'
p1486
sI1495
S'males'
p1487
sI1496
S'pingpong'
p1488
sI1497
S'snowball'
p1489
sI1498
S'cigarettes'
p1490
sI1499
S'foot'
p1491
sI1500
S'ninja'
p1492
sI1501
S'sucked'
p1493
sI1502
S'huddle'
p1494
sI1503
S'pregnant'
p1495
sI1504
S'swimsuit'
p1496
sI1505
S'slicked'
p1497
sI1506
S'knight'
p1498
sI1507
S'biscuits'
p1499
sI1508
S'notes'
p1500
sI1509
S'weight'
p1501
sI1510
S'house'
p1502
sI1511
S'fish'
p1503
sI1512
S'hard'
p1504
sI1513
S'beret'
p1505
sI1514
S'connect'
p1506
sI1515
S'fist'
p1507
sI1516
S'scissors'
p1508
sI1517
S'harp'
p1509
sI1518
S'mickey'
p1510
sI1519
S'flower'
p1511
sI1520
S'lipstick'
p1512
sI1521
S'surrounded'
p1513
sI1522
S'pigeon'
p1514
sI1523
S'hill'
p1515
sI1524
S'7'
sI1525
S'print'
p1516
sI1526
S'hangers'
p1517
sI1527
S'salute'
p1518
sI1528
S'dunk'
p1519
sI1529
S'foreground'
p1520
sI1530
S'bald'
p1521
sI1531
S'bass'
p1522
sI1532
S'dirt'
p1523
sI1533
S'pug'
p1524
sI1534
S'capture'
p1525
sI1535
S'toy'
p1526
sI1536
S'cookie'
p1527
sI1537
S'murmur'
p1528
sI1538
S'put'
p1529
sI1539
S'bouce'
p1530
sI1540
S'beginning'
p1531
sI1541
S'sidewalk'
p1532
sI1542
S'thrown'
p1533
sI1543
S'owners'
p1534
sI1544
S'launch'
p1535
sI1545
S'american'
p1536
sI1546
S'canister'
p1537
sI1547
S'chorography'
p1538
sI1548
S'heartbeat'
p1539
sI1549
S'fallen'
p1540
sI1550
S'throws'
p1541
sI1551
S'feed'
p1542
sI1552
S'statue'
p1543
sI1553
S'feel'
p1544
sI1554
S'guesture'
p1545
sI1555
S'number'
p1546
sI1556
S'feet'
p1547
sI1557
S'dust'
p1548
sI1558
S'drier'
p1549
sI1559
S'elevator'
p1550
sI1560
S'blank'
p1551
sI1561
S'cups'
p1552
sI1562
S'miss'
p1553
sI1563
S'horse'
p1554
sI1564
S'heads'
p1555
sI1565
S'guest'
p1556
sI1566
S'jet'
p1557
sI1567
S'swipe'
p1558
sI1568
S'rails'
p1559
sI1569
S'broccoli'
p1560
sI1570
S'paint'
p1561
sI1571
S'leash'
p1562
sI1572
S'passed'
p1563
sI1573
S'fingernail'
p1564
sI1574
S'hummingbird'
p1565
sI1575
S'syrup'
p1566
sI1576
S'banana'
p1567
sI1577
S'ketchup'
p1568
sI1578
S'muscles'
p1569
sI1579
S'storm'
p1570
sI1580
S'behind'
p1571
sI1581
S'exploded'
p1572
sI1582
S'needle'
p1573
sI1583
S'interviewee'
p1574
sI1584
S'interviewed'
p1575
sI1585
S'part'
p1576
sI1586
S'fidget'
p1577
sI1587
S'rifle'
p1578
sI1588
S'albums'
p1579
sI1589
S'steaks'
p1580
sI1590
S'stairs'
p1581
sI1591
S'oscillate'
p1582
sI1592
S'leotard'
p1583
sI1593
S'john'
p1584
sI1594
S'throttle'
p1585
sI1595
S'performers'
p1586
sI1596
S'grey'
p1587
sI1597
S'youth'
p1588
sI1598
S'bride'
p1589
sI1599
S'stalk'
p1590
sI1600
S'toward'
p1591
sI1601
S'tongues'
p1592
sI1602
S'cleaner'
p1593
sI1603
S'swerve'
p1594
sI1604
S'friends'
p1595
sI1605
S'chipmunk'
p1596
sI1606
S'bodty'
p1597
sI1607
S'juice'
p1598
sI1608
S'caress'
p1599
sI1609
S'graffiti'
p1600
sI1610
S'blond'
p1601
sI1611
S'wipers'
p1602
sI1612
S'lid'
p1603
sI1613
S'mountain'
p1604
sI1614
S'koala'
p1605
sI1615
S'dancing'
p1606
sI1616
S'self'
p1607
sI1617
S'flaming'
p1608
sI1618
S'couch'
p1609
sI1619
S'jostle'
p1610
sI1620
S'lip'
p1611
sI1621
S'breaststroke'
p1612
sI1622
S'tool'
p1613
sI1623
S'play'
p1614
sI1624
S'towards'
p1615
sI1625
S'electric'
p1616
sI1626
S'singles'
p1617
sI1627
S'eggs'
p1618
sI1628
S'reach'
p1619
sI1629
S'breaking'
p1620
sI1630
S'prosthetic'
p1621
sI1631
S'react'
p1622
sI1632
S'cigarette'
p1623
sI1633
S'nothing'
p1624
sI1634
S'smoosh'
p1625
sI1635
S'mobile'
p1626
sI1636
S'cover'
p1627
sI1637
S'clean'
p1628
sI1638
S'bandanna'
p1629
sI1639
S'hips'
p1630
sI1640
S'stones'
p1631
sI1641
S'rocker'
p1632
sI1642
S'golf'
p1633
sI1643
S'gold'
p1634
sI1644
S'headbangs'
p1635
sI1645
S'flicker'
p1636
sI1646
S'hugging'
p1637
sI1647
S'barbell'
p1638
sI1648
S'violinists'
p1639
sI1649
S'stubble'
p1640
sI1650
S'scooter'
p1641
sI1651
S'writer'
p1642
sI1652
S'whindshield'
p1643
sI1653
S'condom'
p1644
sI1654
S'8'
sI1655
S'circle'
p1645
sI1656
S'juke'
p1646
sI1657
S'porcupine'
p1647
sI1658
S'his'
p1648
sI1659
S'hit'
p1649
sI1660
S'rose'
p1650
sI1661
S'express'
p1651
sI1662
S'trees'
p1652
sI1663
S'strut'
p1653
sI1664
S'ferret'
p1654
sI1665
S'owls'
p1655
sI1666
S'batter'
p1656
sI1667
S'breast'
p1657
sI1668
S'strum'
p1658
sI1669
S'silk'
p1659
sI1670
S'banner'
p1660
sI1671
S'him'
p1661
sI1672
S'huff'
p1662
sI1673
S'fluff'
p1663
sI1674
S'catcher'
p1664
sI1675
S'sleeve'
p1665
sI1676
S'cry'
p1666
sI1677
S'remove'
p1667
sI1678
S'perfume'
p1668
sI1679
S'gloves'
p1669
sI1680
S'backword'
p1670
sI1681
S'bars'
p1671
sI1682
S'set'
p1672
sI1683
S'dump'
p1673
sI1684
S'sep'
p1674
sI1685
S'throwing'
p1675
sI1686
S'nibble'
p1676
sI1687
S'lion'
p1677
sI1688
S'bare'
p1678
sI1689
S'close'
p1679
sI1690
S'bark'
p1680
sI1691
S'outward'
p1681
sI1692
S'nippers'
p1682
sI1693
S'knees'
p1683
sI1694
S'practice'
p1684
sI1695
S'movie'
p1685
sI1696
S'slapped'
p1686
sI1697
S'fans'
p1687
sI1698
S'silly'
p1688
sI1699
S'champagne'
p1689
sI1700
S'clerk'
p1690
sI1701
S'kneel'
p1691
sI1702
S'pullups'
p1692
sI1703
S'spray'
p1693
sI1704
S'invisible'
p1694
sI1705
S'interpertively'
p1695
sI1706
S'both'
p1696
sI1707
S'cubes'
p1697
sI1708
S'last'
p1698
sI1709
S'iteslf'
p1699
sI1710
S'bowie'
p1700
sI1711
S'buzz'
p1701
sI1712
S'whole'
p1702
sI1713
S'sink'
p1703
sI1714
S'load'
p1704
sI1715
S'sloth'
p1705
sI1716
S'strech'
p1706
sI1717
S'point'
p1707
sI1718
S'battery'
p1708
sI1719
S'forklift'
p1709
sI1720
S'sweep'
p1710
sI1721
S'dancer'
p1711
sI1722
S'weasel'
p1712
sI1723
S'mumble'
p1713
sI1724
S'along'
p1714
sI1725
S'belt'
p1715
sI1726
S'catwalk'
p1716
sI1727
S'suspenders'
p1717
sI1728
S'devil'
p1718
sI1729
S'raise'
p1719
sI1730
S'stamp'
p1720
sI1731
S'create'
p1721
sI1732
S'curve'
p1722
sI1733
S'hitting'
p1723
sI1734
S'peppers'
p1724
sI1735
S'brick'
p1725
sI1736
S'empty'
p1726
sI1737
S'humping'
p1727
sI1738
S'referee'
p1728
sI1739
S'flight'
p1729
sI1740
S'squirrel'
p1730
sI1741
S'boy'
p1731
sI1742
S'fire'
p1732
sI1743
S'crack'
p1733
sI1744
S'gas'
p1734
sI1745
S'watergun'
p1735
sI1746
S'numchucks'
p1736
sI1747
S'sleeves'
p1737
sI1748
S'gag'
p1738
sI1749
S'chatter'
p1739
sI1750
S'fur'
p1740
sI1751
S'look'
p1741
sI1752
S'ski'
p1742
sI1753
S'bill'
p1743
sI1754
S'crutch'
p1744
sI1755
S'rope'
p1745
sI1756
S'pace'
p1746
sI1757
S'bikini'
p1747
sI1758
S'match'
p1748
sI1759
S'grip'
p1749
sI1760
S'pound'
p1750
sI1761
S'twiddle'
p1751
sI1762
S'demon'
p1752
sI1763
S'itself'
p1753
sI1764
S'around'
p1754
sI1765
S'shirt'
p1755
sI1766
S'choking'
p1756
sI1767
S'shorter'
p1757
sI1768
S'firearms'
p1758
sI1769
S'peoples'
p1759
sI1770
S'9'
sI1771
S'eybrow'
p1760
sI1772
S'hallway'
p1761
sI1773
S'itch'
p1762
sI1774
S'ballerina'
p1763
sI1775
S'keys'
p1764
sI1776
S'teeter'
p1765
sI1777
S'cigar'
p1766
sI1778
S'leopard'
p1767
sI1779
S'cement'
p1768
sI1780
S'moving'
p1769
sI1781
S'stripe'
p1770
sI1782
S'stack'
p1771
sI1783
S'canned'
p1772
sI1784
S'beanie'
p1773
sI1785
S'swish'
p1774
sI1786
S'cheek'
p1775
sI1787
S'grind'
p1776
sI1788
S'person'
p1777
sI1789
S'cheer'
p1778
sI1790
S'dryer'
p1779
sI1791
S'flags'
p1780
sI1792
S'howl'
p1781
sI1793
S'bandage'
p1782
sI1794
S'chord'
p1783
sI1795
S'synringe'
p1784
sI1796
S'backflip'
p1785
sI1797
S'propeller'
p1786
sI1798
S'shape'
p1787
sI1799
S'circling'
p1788
sI1800
S'spiky'
p1789
sI1801
S'prince'
p1790
sI1802
S'jumpsuit'
p1791
sI1803
S'tables'
p1792
sI1804
S'cut'
p1793
sI1805
S'tablet'
p1794
sI1806
S'cup'
p1795
sI1807
S'queen'
p1796
sI1808
S'alternate'
p1797
sI1809
S'cue'
p1798
sI1810
S'cub'
p1799
sI1811
S'crying'
p1800
sI1812
S'snap'
p1801
sI1813
S'sparklers'
p1802
sI1814
S'vaccume'
p1803
sI1815
S'march'
p1804
sI1816
S'big'
p1805
sI1817
S'couple'
p1806
sI1818
S'sharpener'
p1807
sI1819
S'game'
p1808
sI1820
S'bit'
p1809
sI1821
S'wings'
p1810
sI1822
S'knock'
p1811
sI1823
S'rotate'
p1812
sI1824
S'shaped'
p1813
sI1825
S'signal'
p1814
sI1826
S'glove'
p1815
sI1827
S'rider'
p1816
sI1828
S'cones'
p1817
sI1829
S'brakes'
p1818
sI1830
S'spring'
p1819
sI1831
S'some'
p1820
sI1832
S'back'
p1821
sI1833
S'bounce'
p1822
sI1834
S'lips'
p1823
sI1835
S'palm'
p1824
sI1836
S'clown'
p1825
sI1837
S'mirror'
p1826
sI1838
S'candle'
p1827
sI1839
S'sprint'
p1828
sI1840
S'jewelry'
p1829
sI1841
S'pet'
p1830
sI1842
S'tools'
p1831
sI1843
S'prop'
p1832
sI1844
S'hairband'
p1833
sI1845
S'pen'
p1834
sI1846
S'sneakers'
p1835
sI1847
S'prod'
p1836
sI1848
S'temple'
p1837
sI1849
S'nose'
p1838
sI1850
S'eating'
p1839
sI1851
S'rapping'
p1840
sI1852
S'rub'
p1841
sI1853
S'jumps'
p1842
sI1854
S'rug'
p1843
sI1855
S'rud'
p1844
sI1856
S'zombie'
p1845
sI1857
S'step'
p1846
sI1858
S'santa'
p1847
sI1859
S'cannons'
p1848
sI1860
S'raspberry'
p1849
sI1861
S'by'
p1850
sI1862
S'yawn'
p1851
sI1863
S'god'
p1852
sI1864
S'beans'
p1853
sI1865
S'womens'
p1854
sI1866
S'block'
p1855
sI1867
S'garbage'
p1856
sI1868
S'into'
p1857
sI1869
S'rollerblade'
p1858
sI1870
S'curtsy'
p1859
sI1871
S'rolls'
p1860
sI1872
S'sashay'
p1861
sI1873
S'scrunch'
p1862
sI1874
S'eleven'
p1863
sI1875
S'sock'
p1864
sI1876
S'long'
p1865
sI1877
S'custom'
p1866
sI1878
S'sqeeze'
p1867
sI1879
S'suit'
p1868
sI1880
S'forward'
p1869
sI1881
S'waistband'
p1870
sI1882
S'opponent'
p1871
sI1883
S'himself'
p1872
sI1884
S'hawaiian'
p1873
sI1885
S'downstairs'
p1874
sI1886
S'poster'
p1875
sI1887
S'slump'
p1876
sI1888
S'boys'
p1877
sI1889
S'crank'
p1878
sI1890
S'line'
p1879
sI1891
S'reel'
p1880
sI1892
S'raising'
p1881
sI1893
S'penguin'
p1882
sI1894
S'fries'
p1883
sI1895
S'up'
p1884
sI1896
S'windows'
p1885
sI1897
S'cartwheel'
p1886
sI1898
S'highlight'
p1887
sI1899
S'duckling'
p1888
sI1900
S'metal'
p1889
sI1901
S'package'
p1890
sI1902
S'spoonfuls'
p1891
sI1903
S'curb'
p1892
sI1904
S'necks'
p1893
sI1905
S'bicep'
p1894
sI1906
S'curl'
p1895
sI1907
S'dragging'
p1896
sI1908
S'halfpipe'
p1897
sI1909
S'lemon'
p1898
sI1910
S'peace'
p1899
sI1911
S'scrape'
p1900
sI1912
S'points'
p1901
sI1913
S'actors'
p1902
sI1914
S'parakeet'
p1903
sI1915
S'swirl'
p1904
sI1916
S'draw'
p1905
sI1917
S'scrub'
p1906
sI1918
S'breasts'
p1907
sI1919
S'lens'
p1908
sI1920
S'drag'
p1909
sI1921
S'slice'
p1910
sI1922
S'wrinkle'
p1911
sI1923
S'sides'
p1912
sI1924
S'wristband'
p1913
sI1925
S'pottery'
p1914
sI1926
S'furthest'
p1915
sI1927
S'lane'
p1916
sI1928
S'land'
p1917
sI1929
S'e'
sI1930
S'weights'
p1918
sI1931
S'lying'
p1919
sI1932
S'walker'
p1920
sI1933
S'berries'
p1921
sI1934
S'buffalo'
p1922
sI1935
S'hello'
p1923
sI1936
S'scratch'
p1924
sI1937
S'nuns'
p1925
sI1938
S'alien'
p1926
sI1939
S'antennas'
p1927
sI1940
S'go'
p1928
sI1941
S'golfer'
p1929
sI1942
S'young'
p1930
sI1943
S'send'
p1931
sI1944
S'attackers'
p1932
sI1945
S'backflips'
p1933
sI1946
S'does'
p1934
sI1947
S'outwards'
p1935
sI1948
S'suite'
p1936
sI1949
S'include'
p1937
sI1950
S'fins'
p1938
sI1951
S'rag'
p1939
sI1952
S'unzip'
p1940
sI1953
S'ladle'
p1941
sI1954
S'kitty'
p1942
sI1955
S'wave'
p1943
sI1956
S'spool'
p1944
sI1957
S'spoon'
p1945
sI1958
S'llama'
p1946
sI1959
S'drinking'
p1947
sI1960
S'wipe'
p1948
sI1961
S'arrange'
p1949
sI1962
S'entire'
p1950
sI1963
S'magic'
p1951
sI1964
S'descend'
p1952
sI1965
S'button'
p1953
sI1966
S'shock'
p1954
sI1967
S'try'
p1955
sI1968
S'race'
p1956
sI1969
S'ride'
p1957
sI1970
S'cap'
p1958
sI1971
S'booty'
p1959
sI1972
S'scientist'
p1960
sI1973
S'chomp'
p1961
sI1974
S'jump'
p1962
sI1975
S'fold'
p1963
sI1976
S'video'
p1964
sI1977
S'booth'
p1965
sI1978
S'picked'
p1966
sI1979
S'protrude'
p1967
sI1980
S'pajamas'
p1968
sI1981
S'click'
p1969
sI1982
S'index'
p1970
sI1983
S'poke'
p1971
sI1984
S'giving'
p1972
sI1985
S'vampire'
p1973
sI1986
S'paddle'
p1974
sI1987
S'cell'
p1975
sI1988
S'poles'
p1976
sI1989
S'anther'
p1977
sI1990
S'relocate'
p1978
sI1991
S'bird'
p1979
sI1992
S'exercise'
p1980
sI1993
S'body'
p1981
sI1994
S'degree'
p1982
sI1995
S'leg'
p1983
sI1996
S'lei'
p1984
sI1997
S'kangaroo'
p1985
sI1998
S'punch'
p1986
sI1999
S'objects'
p1987
sI2000
S'let'
p1988
sI2001
S'oars'
p1989
sI2002
S'pancake'
p1990
sI2003
S'others'
p1991
sI2004
S'sing'
p1992
sI2005
S'rosary'
p1993
sI2006
S'receive'
p1994
sI2007
S'shades'
p1995
sI2008
S'orangutan'
p1996
sI2009
S'armpit'
p1997
sI2010
S'popcorn'
p1998
sI2011
S'climb'
p1999
sI2012
S'writes'
p2000
sI2013
S'wig'
p2001
sI2014
S'shovel'
p2002
sI2015
S'apple'
p2003
sI2016
S'limp'
p2004
sI2017
S'duck'
p2005
sI2018
S'beckon'
p2006
sI2019
S'apply'
p2007
sI2020
S'singing'
p2008
sI2021
S'manipulate'
p2009
sI2022
S'ape'
p2010
sI2023
S'standing'
p2011
sI2024
S'use'
p2012
sI2025
S'from'
p2013
sI2026
S'figure'
p2014
sI2027
S'snacks'
p2015
sI2028
S'frog'
p2016
sI2029
S'next'
p2017
sI2030
S'zig'
p2018
sI2031
S'camera'
p2019
sI2032
S'crab'
p2020
sI2033
S'vehicle'
p2021
sI2034
S'themselves'
p2022
sI2035
S'lipgloss'
p2023
sI2036
S'cheeks'
p2024
sI2037
S'pencil'
p2025
sI2038
S'on'
p2026
sI2039
S'musician'
p2027
sI2040
S'antennae'
p2028
sI2041
S'missile'
p2029
sI2042
S'train'
p2030
sI2043
S'rabbit'
p2031
sI2044
S'baby'
p2032
sI2045
S'women'
p2033
sI2046
S'balls'
p2034
sI2047
S'animals'
p2035
sI2048
S'duster'
p2036
sI2049
S'pout'
p2037
sI2050
S'athlete'
p2038
sI2051
S'kickflip'
p2039
sI2052
S'pour'
p2040
sI2053
S'of'
p2041
sI2054
S'drops'
p2042
sI2055
S'grin'
p2043
sI2056
S'something'
p2044
sI2057
S'hip'
p2045
sI2058
S'tap'
p2046
sI2059
S'slip'
p2047
sI2060
S'plate'
p2048
sI2061
S'pelvic'
p2049
sI2062
S'high'
p2050
sI2063
S'carrot'
p2051
sI2064
S'bend'
p2052
sI2065
S'tab'
p2053
sI2066
S'pelvis'
p2054
sI2067
S'rods'
p2055
sI2068
S'paws'
p2056
sI2069
S'skirt'
p2057
sI2070
S'tan'
p2058
sI2071
S'lamb'
p2059
sI2072
S'tube'
p2060
sI2073
S'sip'
p2061
sI2074
S'sit'
p2062
sI2075
S'onions'
p2063
sI2076
S'holds'
p2064
sI2077
S'struggles'
p2065
sI2078
S'lamp'
p2066
sI2079
S'carrier'
p2067
sI2080
S'animal'
p2068
sI2081
S'toddler'
p2069
sI2082
S'typewriter'
p2070
sI2083
S'hurdles'
p2071
sI2084
S'blocks'
p2072
sI2085
S'stop'
p2073
sI2086
S'tied'
p2074
sI2087
S'3'
sI2088
S'dominos'
p2075
sI2089
S'wrist'
p2076
sI2090
S'prance'
p2077
sI2091
S'taco'
p2078
sI2092
S'cabbage'
p2079
sI2093
S'chasing'
p2080
sI2094
S'light'
p2081
sI2095
S'counter'
p2082
sI2096
S'lines'
p2083
sI2097
S'robot'
p2084
sI2098
S'scoop'
p2085
sI2099
S'scoot'
p2086
sI2100
S'buttered'
p2087
sI2101
S'necklace'
p2088
sI2102
S'quotations'
p2089
sI2103
S'mustache'
p2090
sI2104
S'fastest'
p2091
sI2105
S'ignite'
p2092
sI2106
S'boxing'
p2093
sI2107
S'thigh'
p2094
sI2108
S'move'
p2095
sI2109
S'churros'
p2096
sI2110
S'spatula'
p2097
sI2111
S'hugged'
p2098
sI2112
S'motorcycle'
p2099
sI2113
S'underwater'
p2100
sI2114
S'outer'
p2101
sI2115
S'burning'
p2102
sI2116
S'broom'
p2103
sI2117
S'noses'
p2104
sI2118
S'squatting'
p2105
sI2119
S'smoothe'
p2106
sI2120
S'gymnasts'
p2107
sI2121
S'orange'
p2108
sI2122
S'covered'
p2109
sI2123
S'dad'
p2110
sI2124
S'flex'
p2111
sI2125
S'crash'
p2112
sI2126
S'sword'
p2113
sI2127
S'dab'
p2114
sI2128
S'elephant'
p2115
sI2129
S'oranges'
p2116
sI2130
S'dock'
p2117
sI2131
S'cutting'
p2118
sI2132
S'snake'
p2119
sI2133
S'kiss'
p2120
sI2134
S'hands'
p2121
sI2135
S'front'
p2122
sI2136
S'cage'
p2123
sI2137
S'flail'
p2124
sI2138
S'boots'
p2125
sI2139
S'slide'
p2126
sI2140
S'trap'
p2127
sI2141
S'bills'
p2128
sI2142
S'shaking'
p2129
sI2143
S'upward'
p2130
sI2144
S'swilvel'
p2131
sI2145
S'ankles'
p2132
sI2146
S'tabby'
p2133
sI2147
S'bump'
p2134
sI2148
S'globe'
p2135
sI2149
S'buildings'
p2136
sI2150
S'sportsman'
p2137
sI2151
S'skank'
p2138
sI2152
S'books'
p2139
sI2153
S'thirteen'
p2140
sI2154
S'measure'
p2141
sI2155
S'cupboard'
p2142
sI2156
S'sweatshirt'
p2143
sI2157
S'goalkeeper'
p2144
sI2158
S'out'
p2145
sI2159
S'mats'
p2146
sI2160
S'announcer'
p2147
sI2161
S'valve'
p2148
sI2162
S'rev'
p2149
sI2163
S'mate'
p2150
sI2164
S'wick'
p2151
sI2165
S'red'
p2152
sI2166
S'umbrella'
p2153
sI2167
S'completely'
p2154
sI2168
S'thrust'
p2155
sI2169
S'steering'
p2156
sI2170
S'backless'
p2157
sI2171
S'backwards'
p2158
sI2172
S'yard'
p2159
sI2173
S'her'
p2160
sI2174
S'spill'
p2161
sI2175
S'shells'
p2162
sI2176
S'skateboard'
p2163
sI2177
S'headbutt'
p2164
sI2178
S'yarn'
p2165
sI2179
S'times'
p2166
sI2180
S'stride'
p2167
sI2181
S'scarf'
p2168
sI2182
S'bouquet'
p2169
sI2183
S'maracas'
p2170
sI2184
S'scene'
p2171
sI2185
S'puppet'
p2172
sI2186
S'owner'
p2173
sI2187
S'righ'
p2174
sI2188
S'management'
p2175
sI2189
S'smaller'
p2176
sI2190
S'monkey'
p2177
sI2191
S'bears'
p2178
sI2192
S'guys'
p2179
sI2193
S'blowdryer'
p2180
sI2194
S'their'
p2181
sI2195
S'attack'
p2182
sI2196
S'ankle'
p2183
sI2197
S'rigs'
p2184
sI2198
S'liquor'
p2185
sI2199
S'beard'
p2186
sI2200
S'shell'
p2187
sI2201
S'stomach'
p2188
sI2202
S'shorts'
p2189
sI2203
S'xylophone'
p2190
sI2204
S'feint'
p2191
sI2205
S'excercises'
p2192
sI2206
S'fuzzy'
p2193
sI2207
S'herself'
p2194
sI2208
S'remember'
p2195
sI2209
S'babys'
p2196
sI2210
S'buttocks'
p2197
sI2211
S'see'
p2198
sI2212
S'bed'
p2199
sI2213
S'bee'
p2200
sI2214
S'firework'
p2201
sI2215
S'moonwalks'
p2202
sI2216
S'candles'
p2203
sI2217
S'sculpture'
p2204
sI2218
S'steer'
p2205
sI2219
S'clip'
p2206
sI2220
S'carrots'
p2207
sI2221
S'teenagers'
p2208
sI2222
S'have'
p2209
sI2223
S'throat'
p2210
sI2224
S'screw'
p2211
sI2225
S'microphone'
p2212
sI2226
S'angle'
p2213
sI2227
S'sprinkler'
p2214
sI2228
S'mic'
p2215
sI2229
S'pushups'
p2216
sI2230
S'arm'
p2217
sI2231
S'mix'
p2218
sI2232
S'sportswear'
p2219
sI2233
S'which'
p2220
sI2234
S'soap'
p2221
sI2235
S'blades'
p2222
sI2236
S'who'
p2223
sI2237
S'rearrange'
p2224
sI2238
S'device'
p2225
sI2239
S'class'
p2226
sI2240
S'beets'
p2227
sI2241
S'face'
p2228
sI2242
S'pipe'
p2229
sI2243
S'gesture'
p2230
sI2244
S'guinea'
p2231
sI2245
S'painting'
p2232
sI2246
S'scrap'
p2233
sI2247
S'squeegee'
p2234
sI2248
S'kite'
p2235
sI2249
S'gentleman'
p2236
sI2250
S'gail'
p2237
sI2251
S'crate'
p2238
sI2252
S'bring'
p2239
sI2253
S'biker'
p2240
sI2254
S'bikes'
p2241
sI2255
S'chicken'
p2242
sI2256
S'staff'
p2243
sI2257
S'one'
p2244
sI2258
S'squeeze'
p2245
sI2259
S'tire'
p2246
sI2260
S'sparks'
p2247
sI2261
S'jaw'
p2248
sI2262
S'fellate'
p2249
sI2263
S'jar'
p2250
sI2264
S'bug'
p2251
sI2265
S'buttons'
p2252
sI2266
S'tape'
p2253
sI2267
S'riding'
p2254
sI2268
S'piano'
p2255
sI2269
S'flinch'
p2256
sI2270
S'dodge'
p2257
sI2271
S'arns'
p2258
sI2272
S'cube'
p2259
sI2273
S'handle'
p2260
sI2274
S'beat'
p2261
sI2275
S'stripes'
p2262
sI2276
S'bear'
p2263
sI2277
S'vacumm'
p2264
sI2278
S'wiggle'
p2265
sI2279
S'bean'
p2266
sI2280
S'words'
p2267
sI2281
S'beak'
p2268
sI2282
S'striped'
p2269
sI2283
S'chips'
p2270
sI2284
S'gray'
p2271
sI2285
S'shopping'
p2272
sI2286
S'scraf'
p2273
sI2287
S'rapper'
p2274
sI2288
S'eyebrow'
p2275
sI2289
S'stuff'
p2276
sI2290
S'mascara'
p2277
sI2291
S'grab'
p2278
sI2292
S'shouders'
p2279
sI2293
S'view'
p2280
sI2294
S'spotted'
p2281
sI2295
S'frame'
p2282
sI2296
S'computer'
p2283
sI2297
S'powder'
p2284
sI2298
S'violet'
p2285
sI2299
S'racket'
p2286
sI2300
S'wire'
p2287
sI2301
S'record'
p2288
sI2302
S'icecream'
p2289
sI2303
S'hammock'
p2290
sI2304
S'unravel'
p2291
sI2305
S'closed'
p2292
sI2306
S'repetitively'
p2293
sI2307
S'juggle'
p2294
sI2308
S'pistol'
p2295
sI2309
S'pants'
p2296
sI2310
S'joy'
p2297
sI2311
S'butts'
p2298
sI2312
S'strides'
p2299
sI2313
S"someones'"
p2300
sI2314
S'key'
p2301
sI2315
S'jog'
p2302
sI2316
S'police'
p2303
sI2317
S'jon'
p2304
sI2318
S'monitor'
p2305
sI2319
S'drum'
p2306
sI2320
S'sniff'
p2307
sI2321
S'ramp'
p2308
sI2322
S'aircraft'
p2309
sI2323
S'unbutton'
p2310
sI2324
S'doorway'
p2311
sI2325
S'puff'
p2312
sI2326
S'swallow'
p2313
sI2327
S'fry'
p2314
sI2328
S'jersey'
p2315
sI2329
S'wall'
p2316
sI2330
S'denim'
p2317
sI2331
S'walk'
p2318
sI2332
S'gong'
p2319
sI2333
S'laugh'
p2320
sI2334
S'table'
p2321
sI2335
S'pouring'
p2322
sI2336
S'inhale'
p2323
sI2337
S'fright'
p2324
sI2338
S'twerks'
p2325
sI2339
S'swimmer'
p2326
sI2340
S'polka'
p2327
sI2341
S'treat'
p2328
sI2342
S'curtain'
p2329
sI2343
S'feather'
p2330
sI2344
S'shoulders'
p2331
sI2345
S'controller'
p2332
sI2346
S'mannequin'
p2333
sI2347
S'bull'
p2334
sI2348
S'bulb'
p2335
sI2349
S'present'
p2336
sI2350
S'eyelashes'
p2337
sI2351
S'plaid'
p2338
sI2352
S'laser'
p2339
sI2353
S'veer'
p2340
sI2354
S'runway'
p2341
sI2355
S'tshirt'
p2342
sI2356
S'chalk'
p2343
sI2357
S'wild'
p2344
sI2358
S'pictures'
p2345
sI2359
S'bathtub'
p2346
sI2360
S'groin'
p2347
sI2361
S'suckle'
p2348
sI2362
S'sholder'
p2349
sI2363
S'counterwise'
p2350
sI2364
S'demo'
p2351
sI2365
S'squid'
p2352
sI2366
S'surface'
p2353
sI2367
S'rooster'
p2354
sI2368
S'swinging'
p2355
sI2369
S'gunship'
p2356
sI2370
S'partner'
p2357
sI2371
S'sits'
p2358
sI2372
S'tattoo'
p2359
sI2373
S'moves'
p2360
sI2374
S'balloon'
p2361
sI2375
S'cross'
p2362
sI2376
S'parts'
p2363
sI2377
S'party'
p2364
sI2378
S'gets'
p2365
sI2379
S'elbows'
p2366
sI2380
S'ball'
p2367
sI2381
S'drink'
p2368
sI2382
S'diploma'
p2369
sI2383
S'gestures'
p2370
sI2384
S'pedal'
p2371
sI2385
S'whale'
p2372
sI2386
S'collar'
p2373
sI2387
S'numbered'
p2374
sI2388
S'off'
p2375
sI2389
S'center'
p2376
sI2390
S'weapon'
p2377
sI2391
S'obstacles'
p2378
sI2392
S'fighting'
p2379
sI2393
S'scissor'
p2380
sI2394
S'1'
sI2395
S'twirl'
p2381
sI2396
S'position'
p2382
sI2397
S'muscle'
p2383
sI2398
S'drawing'
p2384
sI2399
S'interlocked'
p2385
sI2400
S'bending'
p2386
sI2401
S'bananas'
p2387
sI2402
S'camel'
p2388
sI2403
S'rest'
p2389
sI2404
S'lettuce'
p2390
sI2405
S'broomstick'
p2391
sI2406
S'coyotes'
p2392
sI2407
S'pendulum'
p2393
sI2408
S'tight'
p2394
sI2409
S'bell'
p2395
sI2410
S'sky'
p2396
sI2411
S'bench'
p2397
sI2412
S'add'
p2398
sI2413
S'book'
p2399
sI2414
S'circular'
p2400
sI2415
S'wet'
p2401
sI2416
S'twerk'
p2402
sI2417
S'balloons'
p2403
sI2418
S'kick'
p2404
sI2419
S'knob'
p2405
sI2420
S'soccerball'
p2406
sI2421
S'ledge'
p2407
sI2422
S'knod'
p2408
sI2423
S'solider'
p2409
sI2424
S'five'
p2410
sI2425
S'desk'
p2411
sI2426
S'press'
p2412
sI2427
S'popscicle'
p2413
sI2428
S'insert'
p2414
sI2429
S'trash'
p2415
sI2430
S'like'
p2416
sI2431
S'onion'
p2417
sI2432
S'chairs'
p2418
sI2433
S'sofa'
p2419
sI2434
S'candy'
p2420
sI2435
S'tickled'
p2421
sI2436
S'sandwhich'
p2422
sI2437
S'chick'
p2423
sI2438
S'mustace'
p2424
sI2439
S'soft'
p2425
sI2440
S'page'
p2426
sI2441
S'heel'
p2427
sI2442
S'glare'
p2428
sI2443
S'crazily'
p2429
sI2444
S'ballon'
p2430
sI2445
S'tumble'
p2431
sI2446
S'hair'
p2432
sI2447
S'gymnastics'
p2433
sI2448
S'trucker'
p2434
sI2449
S'thier'
p2435
sI2450
S'shrug'
p2436
sI2451
S'leaf'
p2437
sI2452
S'lean'
p2438
sI2453
S'leap'
p2439
sI2454
S'cradle'
p2440
sI2455
S'earrings'
p2441
sI2456
S'headlights'
p2442
sI2457
S'hose'
p2443
sI2458
S'cymbol'
p2444
sI2459
S'rock'
p2445
sI2460
S'mits'
p2446
sI2461
S'forks'
p2447
sI2462
S'host'
p2448
sI2463
S'danceing'
p2449
sI2464
S'pasta'
p2450
sI2465
S'stage'
p2451
sI2466
S'drumming'
p2452
sI2467
S'getting'
p2453
sI2468
S'tray'
p2454
sI2469
S'surge'
p2455
sI2470
S'seeds'
p2456
sI2471
S'beige'
p2457
sI2472
S'puppies'
p2458
sI2473
S'tongue'
p2459
sI2474
S'glasses'
p2460
sI2475
S'swimming'
p2461
sI2476
S'owl'
p2462
sI2477
S'reptile'
p2463
sI2478
S'own'
p2464
sI2479
S'gymnastic'
p2465
sI2480
S'socks'
p2466
sI2481
S'guard'
p2467
sI2482
S'en'
p2468
sI2483
S'brush'
p2469
sI2484
S'female'
p2470
sI2485
S'brass'
p2471
sI2486
S'knuckles'
p2472
sI2487
S'van'
p2473
sI2488
S'gerbil'
p2474
sI2489
S'transfer'
p2475
sI2490
S'vegetables'
p2476
sI2491
S'spots'
p2477
sI2492
S'doing'
p2478
sI2493
S'obstacle'
p2479
sI2494
S'drumstick'
p2480
sI2495
S'toothpaste'
p2481
sI2496
S'backhand'
p2482
sI2497
S'bobble'
p2483
sI2498
S'unwrap'
p2484
sI2499
S'bus'
p2485
sI2500
S'but'
p2486
sI2501
S'hi'
p2487
sI2502
S'bun'
p2488
sI2503
S'gain'
p2489
sI2504
S'bum'
p2490
sI2505
S'ear'
p2491
sI2506
S'eat'
p2492
sI2507
S'bud'
p2493
sI2508
S'he'
p2494
sI2509
S'count'
p2495
sI2510
S'genitals'
p2496
sI2511
S'places'
p2497
sI2512
S'smooth'
p2498
sI2513
S'flip'
p2499
sI2514
S'placed'
p2500
sI2515
S'below'
p2501
sI2516
S'cello'
p2502
sI2517
S'cake'
p2503
sI2518
S'piece'
p2504
sI2519
S'stirring'
p2505
sI2520
S'skating'
p2506
sI2521
S'rabbits'
p2507
sI2522
S'pin'
p2508
sI2523
S'whisper'
p2509
sI2524
S'circus'
p2510
sI2525
S'kisses'
p2511
sI2526
S'pie'
p2512
sI2527
S'pig'
p2513
sI2528
S'twist'
p2514
sI2529
S'ink'
p2515
sI2530
S'kissed'
p2516
sI2531
S'boop'
p2517
sI2532
S'dressed'
p2518
sI2533
S'eliptical'
p2519
sI2534
S'guitarist'
p2520
sI2535
S'boot'
p2521
sI2536
S'other'
p2522
sI2537
S'oar'
p2523
sI2538
S'branch'
p2524
sI2539
S'ponytail'
p2525
sI2540
S'frisbee'
p2526
sI2541
S'star'
p2527
sI2542
S'bundle'
p2528
sI2543
S'stab'
p2529
sI2544
S'veil'
p2530
sI2545
S'firesticks'
p2531
sI2546
S'jab'
p2532
sI2547
S'armor'
p2533
sI2548
S'pupil'
p2534
sI2549
S'yell'
p2535
s.