(dp1
I0
S'.'
sI1
S'UNK'
p2
sI2
S'raining'
p3
sI3
S'yellow'
p4
sI4
S'four'
p5
sI5
S'woods'
p6
sI6
S'hanging'
p7
sI7
S'comically'
p8
sI8
S'marching'
p9
sI9
S'snowing'
p10
sI10
S'fingernails'
p11
sI11
S'crossbar'
p12
sI12
S'flicking'
p13
sI13
S'sinking'
p14
sI14
S'swivel'
p15
sI15
S'propane'
p16
sI16
S'oceans'
p17
sI17
S'foul'
p18
sI18
S'stabbed'
p19
sI19
S'screaming'
p20
sI20
S'wooded'
p21
sI21
S'prize'
p22
sI22
S'wooden'
p23
sI23
S'straws'
p24
sI24
S'piling'
p25
sI25
S'crotch'
p26
sI26
S'succession'
p27
sI27
S'irises'
p28
sI28
S'tired'
p29
sI29
S'snuggles'
p30
sI30
S'railing'
p31
sI31
S'bacon'
p32
sI32
S'tires'
p33
sI33
S'elegant'
p34
sI34
S'second'
p35
sI35
S'shrugging'
p36
sI36
S'burps'
p37
sI37
S'blouse'
p38
sI38
S'dangled'
p39
sI39
S'cooking'
p40
sI40
S'fingers'
p41
sI41
S'dangles'
p42
sI42
S'pawed'
p43
sI43
S'crouch'
p44
sI44
S'chins'
p45
sI45
S'sunbeams'
p46
sI46
S'here'
p47
sI47
S'herd'
p48
sI48
S'tatum'
p49
sI49
S'kids'
p50
sI50
S'elaborate'
p51
sI51
S'climbed'
p52
sI52
S'tortoiseshell'
p53
sI53
S'military'
p54
sI54
S'climber'
p55
sI55
S'golden'
p56
sI56
S'reenters'
p57
sI57
S'divide'
p58
sI58
S'magically'
p59
sI59
S'brought'
p60
sI60
S'stern'
p61
sI61
S'cocaine'
p62
sI62
S'unit'
p63
sI63
S'opponents'
p64
sI64
S'spoke'
p65
sI65
S'backing'
p66
sI66
S'symphony'
p67
sI67
S'music'
p68
sI68
S'passport'
p69
sI69
S'strike'
p70
sI70
S'until'
p71
sI71
S'females'
p72
sI72
S'relax'
p73
sI73
S'brings'
p74
sI74
S'hurt'
p75
sI75
S'glass'
p76
sI76
S'tying'
p77
sI77
S'hole'
p78
sI78
S'hold'
p79
sI79
S'locked'
p80
sI80
S'onstage'
p81
sI81
S'blade'
p82
sI82
S'locker'
p83
sI83
S'locket'
p84
sI84
S'leaped'
p85
sI85
S'exhale'
p86
sI86
S'expressively'
p87
sI87
S'headbanging'
p88
sI88
S'wand'
p89
sI89
S'pints'
p90
sI90
S'dragons'
p91
sI91
S'want'
p92
sI92
S'hog'
p93
sI93
S'dimple'
p94
sI94
S'travel'
p95
sI95
S'drying'
p96
sI96
S'damage'
p97
sI97
S'machine'
p98
sI98
S'how'
p99
sI99
S'hot'
p100
sI100
S'dimply'
p101
sI101
S'hop'
p102
sI102
S'cheetah'
p103
sI103
S'shrug'
p104
sI104
S'gaming'
p105
sI105
S'beauty'
p106
sI106
S'dinosaurs'
p107
sI107
S'wrong'
p108
sI108
S'types'
p109
sI109
S'hamsters'
p110
sI110
S'wins'
p111
sI111
S'youths'
p112
sI112
S'wink'
p113
sI113
S'snowballs'
p114
sI114
S'keeps'
p115
sI115
S'wing'
p116
sI116
S'wind'
p117
sI117
S'wine'
p118
sI118
S'blind'
p119
sI119
S'welcomed'
p120
sI120
S'fir'
p121
sI121
S'lovingly'
p122
sI122
S'fit'
p123
sI123
S'bringing'
p124
sI124
S'backpack'
p125
sI125
S'hidden'
p126
sI126
S'fin'
p127
sI127
S'corridor'
p128
sI128
S'thrones'
p129
sI129
S'duvet'
p130
sI130
S'slicing'
p131
sI131
S'effects'
p132
sI132
S'mimicking'
p133
sI133
S'silver'
p134
sI134
S'defecate'
p135
sI135
S'dumps'
p136
sI136
S'skills'
p137
sI137
S'arrow'
p138
sI138
S'volcano'
p139
sI139
S'snakes'
p140
sI140
S'knockout'
p141
sI141
S'garment'
p142
sI142
S'spider'
p143
sI143
S'bowls'
p144
sI144
S'whit'
p145
sI145
S'ring'
p146
sI146
S'whip'
p147
sI147
S'rv'
p148
sI148
S'smirk'
p149
sI149
S'mason'
p150
sI150
S're'
p151
sI151
S'encourage'
p152
sI152
S'rc'
p153
sI153
S'squashed'
p154
sI154
S'stamping'
p155
sI155
S'dracula'
p156
sI156
S'pumpkins'
p157
sI157
S'sheet'
p158
sI158
S'knit'
p159
sI159
S'enormous'
p160
sI160
S'ate'
p161
sI161
S'exposing'
p162
sI162
S'eared'
p163
sI163
S'shelves'
p164
sI164
S'atm'
p165
sI165
S'moment'
p166
sI166
S'heading'
p167
sI167
S'musicians'
p168
sI168
S'dentures'
p169
sI169
S'cucumber'
p170
sI170
S'wobbling'
p171
sI171
S'speeds'
p172
sI172
S'purpose'
p173
sI173
S'shopper'
p174
sI174
S'playfully'
p175
sI175
S'wash'
p176
sI176
S'spinning'
p177
sI177
S'kfc'
p178
sI178
S'chevron'
p179
sI179
S'basketball'
p180
sI180
S'similarly'
p181
sI181
S'engagement'
p182
sI182
S'master'
p183
sI183
S'blossoms'
p184
sI184
S'chugging'
p185
sI185
S'critter'
p186
sI186
S'legs'
p187
sI187
S'bitter'
p188
sI188
S'listen'
p189
sI189
S'ramming'
p190
sI190
S'collapse'
p191
sI191
S'cushions'
p192
sI192
S'expelling'
p193
sI193
S'lunges'
p194
sI194
S'prosthetic'
p195
sI195
S'tugs'
p196
sI196
S'evil'
p197
sI197
S'crawl'
p198
sI198
S'showed'
p199
sI199
S'handcuffs'
p200
sI200
S'tree'
p201
sI201
S'shower'
p202
sI202
S'idle'
p203
sI203
S'feeling'
p204
sI204
S'runner'
p205
sI205
S'shyly'
p206
sI206
S'paddles'
p207
sI207
S'shrubs'
p208
sI208
S'escalator'
p209
sI209
S'person'
p210
sI210
S'paramedics'
p211
sI211
S'bleachers'
p212
sI212
S'that'
p213
sI213
S'eagerly'
p214
sI214
S'metallic'
p215
sI215
S'racers'
p216
sI216
S'causing'
p217
sI217
S'defiantly'
p218
sI218
S'doors'
p219
sI219
S'grips'
p220
sI220
S'paintbrush'
p221
sI221
S'object'
p222
sI222
S'mouth'
p223
sI223
S'letter'
p224
sI224
S'videotaping'
p225
sI225
S'retaining'
p226
sI226
S'dummy'
p227
sI227
S'singer'
p228
sI228
S'released'
p229
sI229
S'professor'
p230
sI230
S'camp'
p231
sI231
S'tech'
p232
sI232
S'scream'
p233
sI233
S'came'
p234
sI234
S'saying'
p235
sI235
S'bomb'
p236
sI236
S'insects'
p237
sI237
S'padded'
p238
sI238
S'hairbands'
p239
sI239
S'recliner'
p240
sI240
S'capes'
p241
sI241
S'touches'
p242
sI242
S'busy'
p243
sI243
S'shuffling'
p244
sI244
S'menu'
p245
sI245
S'bust'
p246
sI246
S'cougar'
p247
sI247
S'bush'
p248
sI248
S'touched'
p249
sI249
S'rich'
p250
sI250
S'rice'
p251
sI251
S'plate'
p252
sI252
S'warmers'
p253
sI253
S'cartwheels'
p254
sI254
S'godzilla'
p255
sI255
S'pocket'
p256
sI256
S'cushion'
p257
sI257
S'plats'
p258
sI258
S'tips'
p259
sI259
S'jaguar'
p260
sI260
S'spilling'
p261
sI261
S'nicely'
p262
sI262
S'tights'
p263
sI263
S'boarder'
p264
sI264
S'dipping'
p265
sI265
S'pretzel'
p266
sI266
S'patch'
p267
sI267
S'piggy'
p268
sI268
S'release'
p269
sI269
S'blew'
p270
sI270
S'fair'
p271
sI271
S'unexpectedly'
p272
sI272
S'goodnight'
p273
sI273
S'fail'
p274
sI274
S'hero'
p275
sI275
S'hammer'
p276
sI276
S'best'
p277
sI277
S'lots'
p278
sI278
S'sombrero'
p279
sI279
S'fanged'
p280
sI280
S'rings'
p281
sI281
S'stamps'
p282
sI282
S'score'
p283
sI283
S'yogurt'
p284
sI284
S'timber'
p285
sI285
S'pirate'
p286
sI286
S'skimpy'
p287
sI287
S'claws'
p288
sI288
S'nature'
p289
sI289
S'rolled'
p290
sI290
S'smelled'
p291
sI291
S'lapping'
p292
sI292
S'twinkling'
p293
sI293
S'wheelbarrow'
p294
sI294
S'aerosol'
p295
sI295
S'roller'
p296
sI296
S'accident'
p297
sI297
S'country'
p298
sI298
S'pits'
p299
sI299
S'bodysuit'
p300
sI300
S'levitating'
p301
sI301
S'pita'
p302
sI302
S'argue'
p303
sI303
S'unbuttoned'
p304
sI304
S'frameqaeatedly'
p305
sI305
S'rednecks'
p306
sI306
S'canyon'
p307
sI307
S'blonde'
p308
sI308
S'grazing'
p309
sI309
S'startles'
p310
sI310
S'source'
p311
sI311
S'chrome'
p312
sI312
S'fro'
p313
sI313
S'bothers'
p314
sI314
S'startled'
p315
sI315
S'stadium'
p316
sI316
S'fry'
p317
sI317
S'dots'
p318
sI318
S'obese'
p319
sI319
S'life'
p320
sI320
S'spit'
p321
sI321
S'worker'
p322
sI322
S'lift'
p323
sI323
S'child'
p324
sI324
S'chili'
p325
sI325
S'spin'
p326
sI326
S'skilfully'
p327
sI327
S'jams'
p328
sI328
S'contemplates'
p329
sI329
S'starstruck'
p330
sI330
S'skirts'
p331
sI331
S'remembering'
p332
sI332
S'bin'
p333
sI333
S'canoeing'
p334
sI334
S'played'
p335
sI335
S'player'
p336
sI336
S'eighteen'
p337
sI337
S'piercings'
p338
sI338
S'violin'
p339
sI339
S'crusaders'
p340
sI340
S'damaged'
p341
sI341
S'things'
p342
sI342
S'toaster'
p343
sI343
S'shipwrecked'
p344
sI344
S'marathon'
p345
sI345
S'babies'
p346
sI346
S'skateboards'
p347
sI347
S'fairly'
p348
sI348
S'boiled'
p349
sI349
S'inadvertently'
p350
sI350
S'tops'
p351
sI351
S'photographers'
p352
sI352
S'simulates'
p353
sI353
S'burgers'
p354
sI354
S'goofing'
p355
sI355
S'massaging'
p356
sI356
S'veils'
p357
sI357
S'recoils'
p358
sI358
S'bellow'
p359
sI359
S'uncurls'
p360
sI360
S'sleeps'
p361
sI361
S'sleepy'
p362
sI362
S'disguise'
p363
sI363
S'rotates'
p364
sI364
S'rushing'
p365
sI365
S'amusingly'
p366
sI366
S'jumpers'
p367
sI367
S'handshake'
p368
sI368
S'enters'
p369
sI369
S'ham'
p370
sI370
S'had'
p371
sI371
S'hay'
p372
sI372
S'innocent'
p373
sI373
S'prison'
p374
sI374
S'has'
p375
sI375
S'hat'
p376
sI376
S'elevation'
p377
sI377
S'casually'
p378
sI378
S'disagreement'
p379
sI379
S'possibly'
p380
sI380
S'shadow'
p381
sI381
S'poses'
p382
sI382
S'bushy'
p383
sI383
S'stylist'
p384
sI384
S'deckchairs'
p385
sI385
S'pavement'
p386
sI386
S'steps'
p387
sI387
S'meringue'
p388
sI388
S'right'
p389
sI389
S'old'
p390
sI390
S'creek'
p391
sI391
S'crowd'
p392
sI392
S'people'
p393
sI393
S'crown'
p394
sI394
S'crows'
p395
sI395
S'stealthily'
p396
sI396
S'creep'
p397
sI397
S'gasps'
p398
sI398
S'for'
p399
sI399
S'bottom'
p400
sI400
S'rehearse'
p401
sI401
S'fox'
p402
sI402
S'ruffles'
p403
sI403
S'fog'
p404
sI404
S'treadmill'
p405
sI405
S'stingray'
p406
sI406
S'pinched'
p407
sI407
S'roiling'
p408
sI408
S'shakes'
p409
sI409
S'trampoline'
p410
sI410
S'shifting'
p411
sI411
S'starring'
p412
sI412
S'losing'
p413
sI413
S'bowing'
p414
sI414
S'emits'
p415
sI415
S'shaken'
p416
sI416
S'benches'
p417
sI417
S'opossums'
p418
sI418
S'o'
sI419
S'despair'
p419
sI420
S'slightly'
p420
sI421
S'motorcyclist'
p421
sI422
S'raised'
p422
sI423
S'son'
p423
sI424
S'beings'
p424
sI425
S'raises'
p425
sI426
S'wrap'
p426
sI427
S'shoots'
p427
sI428
S'frazzled'
p428
sI429
S'fabric'
p429
sI430
S'waits'
p430
sI431
S'altitude'
p431
sI432
S'constantly'
p432
sI433
S'tame'
p433
sI434
S'grasping'
p434
sI435
S'untie'
p435
sI436
S'launching'
p436
sI437
S'happy'
p437
sI438
S'waistcoat'
p438
sI439
S'offer'
p439
sI440
S'forming'
p440
sI441
S'otter'
p441
sI442
S'duel'
p442
sI443
S'rippling'
p443
sI444
S'inside'
p444
sI445
S'devices'
p445
sI446
S'smashes'
p446
sI447
S'lays'
p447
sI448
S'soldering'
p448
sI449
S'passenger'
p449
sI450
S'shooter'
p450
sI451
S'tournament'
p451
sI452
S'bathrobe'
p452
sI453
S'crumble'
p453
sI454
S'triangles'
p454
sI455
S'crutches'
p455
sI456
S'lees'
p456
sI457
S'floor'
p457
sI458
S'actor'
p458
sI459
S'flood'
p459
sI460
S'nestling'
p460
sI461
S'sunset'
p461
sI462
S'smell'
p462
sI463
S'roll'
p463
sI464
S"'s"
p464
sI465
S'lollipops'
p465
sI466
S'palms'
p466
sI467
S'models'
p467
sI468
S'smelling'
p468
sI469
S'rolling'
p469
sI470
S'cleaver'
p470
sI471
S'windscreen'
p471
sI472
S'explosions'
p472
sI473
S'rockers'
p473
sI474
S'sniffed'
p474
sI475
S'time'
p475
sI476
S'push'
p476
sI477
S'overturned'
p477
sI478
S'peacock'
p478
sI479
S'chain'
p479
sI480
S'crocodile'
p480
sI481
S'avalanche'
p481
sI482
S'skate'
p482
sI483
S'skiing'
p483
sI484
S'trashcan'
p484
sI485
S'chair'
p485
sI486
S'activates'
p486
sI487
S'midst'
p487
sI488
S'ballet'
p488
sI489
S'suspending'
p489
sI490
S'german'
p490
sI491
S'balled'
p491
sI492
S'dragonfly'
p492
sI493
S'fatigues'
p493
sI494
S'icing'
p494
sI495
S'prances'
p495
sI496
S'gloomy'
p496
sI497
S'stays'
p497
sI498
S'minute'
p498
sI499
S'cooks'
p499
sI500
S'tricycle'
p500
sI501
S'tear'
p501
sI502
S'kneading'
p502
sI503
S'leave'
p503
sI504
S'crustacean'
p504
sI505
S'subway'
p505
sI506
S'teal'
p506
sI507
S'team'
p507
sI508
S'loads'
p508
sI509
S'prevent'
p509
sI510
S'bulldozer'
p510
sI511
S'bock'
p511
sI512
S'attic'
p512
sI513
S'trails'
p513
sI514
S'steaks'
p514
sI515
S'chopping'
p515
sI516
S'crescent'
p516
sI517
S'parachuting'
p517
sI518
S'headset'
p518
sI519
S'wriggle'
p519
sI520
S'freaks'
p520
sI521
S'falling'
p521
sI522
S'crashing'
p522
sI523
S'badge'
p523
sI524
S'banister'
p524
sI525
S'climbs'
p525
sI526
S'funeral'
p526
sI527
S'plucking'
p527
sI528
S'contemplate'
p528
sI529
S'alone'
p529
sI530
S'along'
p530
sI531
S'arch'
p531
sI532
S'passengers'
p532
sI533
S'dusts'
p533
sI534
S'dusty'
p534
sI535
S'wherever'
p535
sI536
S'queue'
p536
sI537
S'love'
p537
sI538
S'bloody'
p538
sI539
S'raking'
p539
sI540
S'fake'
p540
sI541
S'sunbathing'
p541
sI542
S'working'
p542
sI543
S'turret'
p543
sI544
S'wicker'
p544
sI545
S'angry'
p545
sI546
S'dangle'
p546
sI547
S'tightly'
p547
sI548
S'topples'
p548
sI549
S'films'
p549
sI550
S'scope'
p550
sI551
S'loving'
p551
sI552
S'scratched'
p552
sI553
S'introducing'
p553
sI554
S'apparent'
p554
sI555
S'approving'
p555
sI556
S'consoles'
p556
sI557
S'everywhere'
p557
sI558
S'scratches'
p558
sI559
S'riders'
p559
sI560
S'mascot'
p560
sI561
S'pretend'
p561
sI562
S'printing'
p562
sI563
S'following'
p563
sI564
S'interstate'
p564
sI565
S'gunfire'
p565
sI566
S'mirrors'
p566
sI567
S'awesome'
p567
sI568
S'nascar'
p568
sI569
S'parachute'
p569
sI570
S'locks'
p570
sI571
S'hides'
p571
sI572
S'listens'
p572
sI573
S'winter'
p573
sI574
S'poking'
p574
sI575
S'elephant'
p575
sI576
S'snaps'
p576
sI577
S'explores'
p577
sI578
S'blasting'
p578
sI579
S'spot'
p579
sI580
S'applications'
p580
sI581
S'suck'
p581
sI582
S'dove'
p582
sI583
S'pulley'
p583
sI584
S'surfing'
p584
sI585
S'wheelchair'
p585
sI586
S'yielding'
p586
sI587
S'darkened'
p587
sI588
S'mango'
p588
sI589
S'so'
p589
sI590
S'wolves'
p590
sI591
S'pulled'
p591
sI592
S'flips'
p592
sI593
S'decals'
p593
sI594
S'course'
p594
sI595
S'bucking'
p595
sI596
S'limbs'
p596
sI597
S'yawning'
p597
sI598
S'thumb'
p598
sI599
S'accordion'
p599
sI600
S'turban'
p600
sI601
S'attraction'
p601
sI602
S'suspicion'
p602
sI603
S'suspension'
p603
sI604
S'swastika'
p604
sI605
S'instantly'
p605
sI606
S'apron'
p606
sI607
S'civilian'
p607
sI608
S'matches'
p608
sI609
S'records'
p609
sI610
S'drilling'
p610
sI611
S'twilight'
p611
sI612
S'ketchup'
p612
sI613
S'runners'
p613
sI614
S'shouted'
p614
sI615
S'bowling'
p615
sI616
S'quarter'
p616
sI617
S'turtle'
p617
sI618
S'square'
p618
sI619
S'bursting'
p619
sI620
S'crushing'
p620
sI621
S'entering'
p621
sI622
S'canvas'
p622
sI623
S'container'
p623
sI624
S'rounding'
p624
sI625
S'seriously'
p625
sI626
S'exploding'
p626
sI627
S'suggesting'
p627
sI628
S'formula'
p628
sI629
S'squares'
p629
sI630
S'igniting'
p630
sI631
S'smalls'
p631
sI632
S'quite'
p632
sI633
S'spooning'
p633
sI634
S'bumps'
p634
sI635
S'complicated'
p635
sI636
S'intensely'
p636
sI637
S'inhaler'
p637
sI638
S'inhales'
p638
sI639
S'training'
p639
sI640
S'silhouetted'
p640
sI641
S'disguised'
p641
sI642
S'possum'
p642
sI643
S'backside'
p643
sI644
S'collapsing'
p644
sI645
S'retrieving'
p645
sI646
S'punk'
p646
sI647
S'ostrich'
p647
sI648
S'silhouettes'
p648
sI649
S'punt'
p649
sI650
S'massive'
p650
sI651
S'emotion'
p651
sI652
S'reveals'
p652
sI653
S'clause'
p653
sI654
S'schoolchildren'
p654
sI655
S'potter'
p655
sI656
S'one'
p656
sI657
S'chubby'
p657
sI658
S'potted'
p658
sI659
S'open'
p659
sI660
S'ripping'
p660
sI661
S'city'
p661
sI662
S'bite'
p662
sI663
S'runways'
p663
sI664
S'2'
sI665
S'stuffed'
p664
sI666
S'typing'
p665
sI667
S'bits'
p666
sI668
S'slashes'
p667
sI669
S'floppy'
p668
sI670
S'flopped'
p669
sI671
S'tombstones'
p670
sI672
S'snatch'
p671
sI673
S'veers'
p672
sI674
S'ridiculous'
p673
sI675
S'iceberg'
p674
sI676
S'depressed'
p675
sI677
S'smirks'
p676
sI678
S'siding'
p677
sI679
S'future'
p678
sI680
S'scuba'
p679
sI681
S'turned'
p680
sI682
S'argument'
p681
sI683
S'alley'
p682
sI684
S'sad'
p683
sI685
S'tastes'
p684
sI686
S'rained'
p685
sI687
S'buried'
p686
sI688
S'lurking'
p687
sI689
S'saw'
p688
sI690
S'sat'
p689
sI691
S'cigarettes'
p690
sI692
S'coliseum'
p691
sI693
S'downwards'
p692
sI694
S'aside'
p693
sI695
S'zoo'
p694
sI696
S'note'
p695
sI697
S'take'
p696
sI698
S'roadside'
p697
sI699
S'wanting'
p698
sI700
S'blinding'
p699
sI701
S'atop'
p700
sI702
S'butterfly'
p701
sI703
S'handing'
p702
sI704
S'printer'
p703
sI705
S'maneuvering'
p704
sI706
S'dinghies'
p705
sI707
S'opposite'
p706
sI708
S'spewing'
p707
sI709
S'buffet'
p708
sI710
S'printed'
p709
sI711
S'knee'
p710
sI712
S'inserted'
p711
sI713
S'pages'
p712
sI714
S'armrest'
p713
sI715
S'lawn'
p714
sI716
S'montage'
p715
sI717
S'trembles'
p716
sI718
S'drive'
p717
sI719
S'sodas'
p718
sI720
S'backdrop'
p719
sI721
S'peddles'
p720
sI722
S'careering'
p721
sI723
S'salt'
p722
sI724
S'walking'
p723
sI725
S'cherry'
p724
sI726
S'frameqaorter'
p725
sI727
S'frameqaorted'
p726
sI728
S'bright'
p727
sI729
S'aggressive'
p728
sI730
S'scruff'
p729
sI731
S'slot'
p730
sI732
S'spoons'
p731
sI733
S'slow'
p732
sI734
S'farting'
p733
sI735
S'robs'
p734
sI736
S'cloak'
p735
sI737
S'nutshell'
p736
sI738
S'aimlessly'
p737
sI739
S'pothole'
p738
sI740
S'tears'
p739
sI741
S'going'
p740
sI742
S'hockey'
p741
sI743
S'blinds'
p742
sI744
S'clawing'
p743
sI745
S'beatles'
p744
sI746
S'tilting'
p745
sI747
S'wheelie'
p746
sI748
S'inuit'
p747
sI749
S'artist'
p748
sI750
S'worried'
p749
sI751
S'skyline'
p750
sI752
S'bombs'
p751
sI753
S'uncover'
p752
sI754
S'tortilla'
p753
sI755
S'where'
p754
sI756
S'sheathes'
p755
sI757
S'dives'
p756
sI758
S'diver'
p757
sI759
S'poops'
p758
sI760
S'wielding'
p759
sI761
S'jumped'
p760
sI762
S'mops'
p761
sI763
S'teacup'
p762
sI764
S'navigates'
p763
sI765
S'enjoys'
p764
sI766
S'surfboards'
p765
sI767
S'jumper'
p766
sI768
S'scooting'
p767
sI769
S'checkered'
p768
sI770
S'vertical'
p769
sI771
S'screen'
p770
sI772
S'supermarket'
p771
sI773
S'revealed'
p772
sI774
S'reigns'
p773
sI775
S'jets'
p774
sI776
S'spark'
p775
sI777
S'busting'
p776
sI778
S'mans'
p777
sI779
S'parapet'
p778
sI780
S'many'
p779
sI781
S'flipped'
p780
sI782
S's'
sI783
S'loudly'
p781
sI784
S'mane'
p782
sI785
S'flipper'
p783
sI786
S'grooming'
p784
sI787
S'expression'
p785
sI788
S'fix'
p786
sI789
S'twin'
p787
sI790
S'boar'
p788
sI791
S'boas'
p789
sI792
S'twig'
p790
sI793
S'boat'
p791
sI794
S'caring'
p792
sI795
S'better'
p793
sI796
S'collides'
p794
sI797
S'teddy'
p795
sI798
S'stretch'
p796
sI799
S'toothpaste'
p797
sI800
S'breath'
p798
sI801
S'stripped'
p799
sI802
S'reflective'
p800
sI803
S'wants'
p801
sI804
S'lanes'
p802
sI805
S'coughing'
p803
sI806
S'formed'
p804
sI807
S'turtleneck'
p805
sI808
S'rooftops'
p806
sI809
S'observe'
p807
sI810
S'canoed'
p808
sI811
S'straighten'
p809
sI812
S'squeezes'
p810
sI813
S'intimately'
p811
sI814
S'canoes'
p812
sI815
S'squeezed'
p813
sI816
S'situation'
p814
sI817
S'spotlight'
p815
sI818
S'shepard'
p816
sI819
S'canoe'
p817
sI820
S'twists'
p818
sI821
S'purse'
p819
sI822
S'speedway'
p820
sI823
S'spooked'
p821
sI824
S'technology'
p822
sI825
S'dragging'
p823
sI826
S'shuts'
p824
sI827
S'breakdown'
p825
sI828
S'wires'
p826
sI829
S'barbel'
p827
sI830
S'deflate'
p828
sI831
S'cheers'
p829
sI832
S'edges'
p830
sI833
S'wired'
p831
sI834
S'advertisement'
p832
sI835
S'cheery'
p833
sI836
S'hummingbird'
p834
sI837
S'tracking'
p835
sI838
S'pacing'
p836
sI839
S'trains'
p837
sI840
S'grumpy'
p838
sI841
S'summer'
p839
sI842
S'sprayed'
p840
sI843
S'being'
p841
sI844
S'slime'
p842
sI845
S'rest'
p843
sI846
S'sprayer'
p844
sI847
S'blondes'
p845
sI848
S'plumed'
p846
sI849
S'instrument'
p847
sI850
S'skies'
p848
sI851
S'skier'
p849
sI852
S'around'
p850
sI853
S'pframeqaare'
p851
sI854
S'gestured'
p852
sI855
S'unveil'
p853
sI856
S'sumo'
p854
sI857
S'traffic'
p855
sI858
S'bandage'
p856
sI859
S'leans'
p857
sI860
S'vacuum'
p858
sI861
S'world'
p859
sI862
S'snowmobiles'
p860
sI863
S'clad'
p861
sI864
S'superiority'
p862
sI865
S'clay'
p863
sI866
S'claw'
p864
sI867
S'stationary'
p865
sI868
S'kennel'
p866
sI869
S'clap'
p867
sI870
S'auditorium'
p868
sI871
S'seating'
p869
sI872
S'mulder'
p870
sI873
S'fives'
p871
sI874
S'diving'
p872
sI875
S'pickles'
p873
sI876
S'thinks'
p874
sI877
S'poll'
p875
sI878
S'dimensions'
p876
sI879
S'tote'
p877
sI880
S'substance'
p878
sI881
S'tube'
p879
sI882
S'searing'
p880
sI883
S'tuba'
p881
sI884
S'cannabis'
p882
sI885
S'exit'
p883
sI886
S'dimples'
p884
sI887
S'tubs'
p885
sI888
S'destroys'
p886
sI889
S'scientific'
p887
sI890
S'power'
p888
sI891
S'intimate'
p889
sI892
S'frameqalace'
p890
sI893
S'leadership'
p891
sI894
S'went'
p892
sI895
S'stone'
p893
sI896
S'ace'
p894
sI897
S'package'
p895
sI898
S'meal'
p896
sI899
S'act'
p897
sI900
S'gesturing'
p898
sI901
S'curling'
p899
sI902
S'marshmallow'
p900
sI903
S'headsets'
p901
sI904
S'image'
p902
sI905
S'legged'
p903
sI906
S'wads'
p904
sI907
S'sneering'
p905
sI908
S'lively'
p906
sI909
S'moped'
p907
sI910
S'hew'
p908
sI911
S'her'
p909
sI912
S'lounging'
p910
sI913
S'mindless'
p911
sI914
S'sealed'
p912
sI915
S'slopes'
p913
sI916
S'bubble'
p914
sI917
S'complete'
p915
sI918
S'gliding'
p916
sI919
S'mics'
p917
sI920
S'foreheads'
p918
sI921
S'fighter'
p919
sI922
S'mice'
p920
sI923
S'with'
p921
sI924
S'buying'
p922
sI925
S'handsome'
p923
sI926
S'pull'
p924
sI927
S'rush'
p925
sI928
S'thumps'
p926
sI929
S'rescuing'
p927
sI930
S'tambourines'
p928
sI931
S'dirty'
p929
sI932
S'mopping'
p930
sI933
S'torso'
p931
sI934
S'trips'
p932
sI935
S'peaking'
p933
sI936
S'vehicles'
p934
sI937
S'fright'
p935
sI938
S'am'
p936
sI939
S'straightens'
p937
sI940
S'watches'
p938
sI941
S'an'
p939
sI942
S'as'
p940
sI943
S'at'
p941
sI944
S'walks'
p942
sI945
S'ax'
p943
sI946
S'amused'
p944
sI947
S'cream'
p945
sI948
S'collie'
p946
sI949
S'yoga'
p947
sI950
S'tight'
p948
sI951
S'someones'
p949
sI952
S'puppy'
p950
sI953
S'motorcyclists'
p951
sI954
S'hydraulics'
p952
sI955
S'waving'
p953
sI956
S'herbs'
p954
sI957
S'midget'
p955
sI958
S'tricks'
p956
sI959
S'groom'
p957
sI960
S'mask'
p958
sI961
S'dyed'
p959
sI962
S'hello'
p960
sI963
S'mimic'
p961
sI964
S'sawing'
p962
sI965
S'motocross'
p963
sI966
S'debris'
p964
sI967
S'causes'
p965
sI968
S'content'
p966
sI969
S'hunting'
p967
sI970
S'tv'
p968
sI971
S'laughing'
p969
sI972
S'to'
p970
sI973
S'tail'
p971
sI974
S'chewing'
p972
sI975
S'dressing'
p973
sI976
S'smile'
p974
sI977
S'roadway'
p975
sI978
S'case'
p976
sI979
S'puzzled'
p977
sI980
S'squiring'
p978
sI981
S'swallows'
p979
sI982
S'baton'
p980
sI983
S'tatted'
p981
sI984
S'surprise'
p982
sI985
S'strand'
p983
sI986
S'`'
sI987
S'cable'
p984
sI988
S'laying'
p985
sI989
S'joined'
p986
sI990
S'large'
p987
sI991
S'sang'
p988
sI992
S'sand'
p989
sI993
S'swirling'
p990
sI994
S'filling'
p991
sI995
S'millimeters'
p992
sI996
S'unwraps'
p993
sI997
S'small'
p994
sI998
S'mammal'
p995
sI999
S'dodges'
p996
sI1000
S'sync'
p997
sI1001
S'past'
p998
sI1002
S'displays'
p999
sI1003
S'pass'
p1000
sI1004
S'handicapped'
p1001
sI1005
S'clock'
p1002
sI1006
S'section'
p1003
sI1007
S'frameqatiles'
p1004
sI1008
S'nurse'
p1005
sI1009
S'revealing'
p1006
sI1010
S'full'
p1007
sI1011
S'escaping'
p1008
sI1012
S'leaping'
p1009
sI1013
S'shops'
p1010
sI1014
S'hamster'
p1011
sI1015
S'pick'
p1012
sI1016
S'action'
p1013
sI1017
S'brimmed'
p1014
sI1018
S'followed'
p1015
sI1019
S'adidas'
p1016
sI1020
S'vie'
p1017
sI1021
S'strolling'
p1018
sI1022
S'horsing'
p1019
sI1023
S'indoors'
p1020
sI1024
S'pulls'
p1021
sI1025
S'casket'
p1022
sI1026
S'poodle'
p1023
sI1027
S'pearl'
p1024
sI1028
S'pitching'
p1025
sI1029
S'more'
p1026
sI1030
S'teen'
p1027
sI1031
S'door'
p1028
sI1032
S'company'
p1029
sI1033
S'chucks'
p1030
sI1034
S'tested'
p1031
sI1035
S'coyote'
p1032
sI1036
S'riverbank'
p1033
sI1037
S'fleece'
p1034
sI1038
S'science'
p1035
sI1039
S'installing'
p1036
sI1040
S'mall'
p1037
sI1041
S'gesticulating'
p1038
sI1042
S'knocked'
p1039
sI1043
S'grope'
p1040
sI1044
S'male'
p1041
sI1045
S'beautiful'
p1042
sI1046
S'impacts'
p1043
sI1047
S'accept'
p1044
sI1048
S'fiercely'
p1045
sI1049
S'schoolgirl'
p1046
sI1050
S'gallon'
p1047
sI1051
S'scar'
p1048
sI1052
S'dress'
p1049
sI1053
S'huge'
p1050
sI1054
S'speedboat'
p1051
sI1055
S'glowing'
p1052
sI1056
S'disturbed'
p1053
sI1057
S'cling'
p1054
sI1058
S'hugs'
p1055
sI1059
S'clink'
p1056
sI1060
S'creature'
p1057
sI1061
S'waved'
p1058
sI1062
S'plant'
p1059
sI1063
S'plans'
p1060
sI1064
S'countryside'
p1061
sI1065
S'plane'
p1062
sI1066
S'waves'
p1063
sI1067
S'backyard'
p1064
sI1068
S'plank'
p1065
sI1069
S'boarders'
p1066
sI1070
S'twisting'
p1067
sI1071
S'pucker'
p1068
sI1072
S'volleyball'
p1069
sI1073
S'tentacles'
p1070
sI1074
S'patio'
p1071
sI1075
S'pans'
p1072
sI1076
S'rottweiler'
p1073
sI1077
S'pant'
p1074
sI1078
S'locking'
p1075
sI1079
S'pframeqaares'
p1076
sI1080
S'attitude'
p1077
sI1081
S'paper'
p1078
sI1082
S'pane'
p1079
sI1083
S'signs'
p1080
sI1084
S'smiling'
p1081
sI1085
S'its'
p1082
sI1086
S'licks'
p1083
sI1087
S'rapidly'
p1084
sI1088
S'wipe'
p1085
sI1089
S'individuals'
p1086
sI1090
S'laces'
p1087
sI1091
S'macaroni'
p1088
sI1092
S'sauce'
p1089
sI1093
S'goggle'
p1090
sI1094
S'salamander'
p1091
sI1095
S'snowball'
p1092
sI1096
S'sucked'
p1093
sI1097
S'lettuce'
p1094
sI1098
S'swimsuit'
p1095
sI1099
S'strangling'
p1096
sI1100
S'piping'
p1097
sI1101
S'found'
p1098
sI1102
S'shocking'
p1099
sI1103
S'energetically'
p1100
sI1104
S'lantern'
p1101
sI1105
S'brunette'
p1102
sI1106
S'bends'
p1103
sI1107
S'accelerator'
p1104
sI1108
S'bendy'
p1105
sI1109
S'bouquets'
p1106
sI1110
S'operation'
p1107
sI1111
S'really'
p1108
sI1112
S'try'
p1109
sI1113
S'missed'
p1110
sI1114
S'candlelight'
p1111
sI1115
S'scoops'
p1112
sI1116
S'misses'
p1113
sI1117
S'highway'
p1114
sI1118
S'nervously'
p1115
sI1119
S'alleys'
p1116
sI1120
S'drifting'
p1117
sI1121
S'porcelain'
p1118
sI1122
S'acorn'
p1119
sI1123
S'riser'
p1120
sI1124
S'rises'
p1121
sI1125
S'owners'
p1122
sI1126
S'positioning'
p1123
sI1127
S'w'
sI1128
S'bumper'
p1124
sI1129
S'castle'
p1125
sI1130
S'clump'
p1126
sI1131
S'porpoise'
p1127
sI1132
S'reversing'
p1128
sI1133
S'forwards'
p1129
sI1134
S'dumbfounded'
p1130
sI1135
S'number'
p1131
sI1136
S'feeder'
p1132
sI1137
S'slipper'
p1133
sI1138
S'gazes'
p1134
sI1139
S'scuffling'
p1135
sI1140
S'glitter'
p1136
sI1141
S'heads'
p1137
sI1142
S'guest'
p1138
sI1143
S'jet'
p1139
sI1144
S'swipe'
p1140
sI1145
S'threatening'
p1141
sI1146
S'flings'
p1142
sI1147
S'stallions'
p1143
sI1148
S'fiframeqalace'
p1144
sI1149
S'cradled'
p1145
sI1150
S'warmly'
p1146
sI1151
S'interviewee'
p1147
sI1152
S'interviewed'
p1148
sI1153
S'focusing'
p1149
sI1154
S'interviewer'
p1150
sI1155
S'stairs'
p1151
sI1156
S'obama'
p1152
sI1157
S'submissively'
p1153
sI1158
S'swiveling'
p1154
sI1159
S'defends'
p1155
sI1160
S'fights'
p1156
sI1161
S'nailing'
p1157
sI1162
S'magical'
p1158
sI1163
S'pedestrian'
p1159
sI1164
S'caress'
p1160
sI1165
S'graffiti'
p1161
sI1166
S'blond'
p1162
sI1167
S'sell'
p1163
sI1168
S'ballerina'
p1164
sI1169
S'spaghetti'
p1165
sI1170
S'self'
p1166
sI1171
S'silvery'
p1167
sI1172
S'also'
p1168
sI1173
S'brace'
p1169
sI1174
S'play'
p1170
sI1175
S'swiftly'
p1171
sI1176
S'nasal'
p1172
sI1177
S'singlet'
p1173
sI1178
S'yawn'
p1174
sI1179
S'pureeing'
p1175
sI1180
S'darts'
p1176
sI1181
S'accepting'
p1177
sI1182
S'colliding'
p1178
sI1183
S'cover'
p1179
sI1184
S'artistic'
p1180
sI1185
S'barren'
p1181
sI1186
S'barrel'
p1182
sI1187
S'dragged'
p1183
sI1188
S'bandeau'
p1184
sI1189
S'golf'
p1185
sI1190
S'gold'
p1186
sI1191
S'aghast'
p1187
sI1192
S'dejects'
p1188
sI1193
S'defender'
p1189
sI1194
S'blender'
p1190
sI1195
S'towed'
p1191
sI1196
S'wraps'
p1192
sI1197
S'writes'
p1193
sI1198
S'writer'
p1194
sI1199
S'clothesline'
p1195
sI1200
S'failed'
p1196
sI1201
S'cassette'
p1197
sI1202
S'condom'
p1198
sI1203
S'columns'
p1199
sI1204
S'boarding'
p1200
sI1205
S'spoiler'
p1201
sI1206
S'sunny'
p1202
sI1207
S'synchronization'
p1203
sI1208
S'actions'
p1204
sI1209
S'closely'
p1205
sI1210
S'banner'
p1206
sI1211
S'distraction'
p1207
sI1212
S'enemy'
p1208
sI1213
S'devoured'
p1209
sI1214
S'sleeve'
p1210
sI1215
S'paddling'
p1211
sI1216
S'tabby'
p1212
sI1217
S'bird'
p1213
sI1218
S'weaves'
p1214
sI1219
S'approaching'
p1215
sI1220
S'delicately'
p1216
sI1221
S'set'
p1217
sI1222
S'carrying'
p1218
sI1223
S'see'
p1219
sI1224
S'sea'
p1220
sI1225
S'sips'
p1221
sI1226
S'origami'
p1222
sI1227
S'outward'
p1223
sI1228
S'project'
p1224
sI1229
S'puncturing'
p1225
sI1230
S'guinea'
p1226
sI1231
S'pickup'
p1227
sI1232
S'crosswalk'
p1228
sI1233
S'monsters'
p1229
sI1234
S'knowing'
p1230
sI1235
S'fidgets'
p1231
sI1236
S'incident'
p1232
sI1237
S'death'
p1233
sI1238
S'last'
p1234
sI1239
S'barely'
p1235
sI1240
S'rose'
p1236
sI1241
S'lash'
p1237
sI1242
S'whole'
p1238
sI1243
S'patty'
p1239
sI1244
S'load'
p1240
sI1245
S'loaf'
p1241
sI1246
S'pendulum'
p1242
sI1247
S'drunk'
p1243
sI1248
S'bejeweled'
p1244
sI1249
S'forklift'
p1245
sI1250
S'smashing'
p1246
sI1251
S'church'
p1247
sI1252
S'belt'
p1248
sI1253
S'devil'
p1249
sI1254
S'conveyor'
p1250
sI1255
S'lizards'
p1251
sI1256
S'pantomiming'
p1252
sI1257
S'flounces'
p1253
sI1258
S'hitting'
p1254
sI1259
S'contentedly'
p1255
sI1260
S'extravagant'
p1256
sI1261
S'stomping'
p1257
sI1262
S'resting'
p1258
sI1263
S'sleeved'
p1259
sI1264
S'raced'
p1260
sI1265
S'squirrel'
p1261
sI1266
S'fire'
p1262
sI1267
S'wheeler'
p1263
sI1268
S'surfacing'
p1264
sI1269
S'racer'
p1265
sI1270
S'races'
p1266
sI1271
S'sleeves'
p1267
sI1272
S'deport'
p1268
sI1273
S'wheeled'
p1269
sI1274
S'slobs'
p1270
sI1275
S'presses'
p1271
sI1276
S'handling'
p1272
sI1277
S'uncertain'
p1273
sI1278
S'slyly'
p1274
sI1279
S'straight'
p1275
sI1280
S'tip'
p1276
sI1281
S'pressed'
p1277
sI1282
S'leaning'
p1278
sI1283
S'kissing'
p1279
sI1284
S'swim'
p1280
sI1285
S'pound'
p1281
sI1286
S'hoping'
p1282
sI1287
S'arching'
p1283
sI1288
S'moth'
p1284
sI1289
S'calculator'
p1285
sI1290
S'ducks'
p1286
sI1291
S'triple'
p1287
sI1292
S'chase'
p1288
sI1293
S'funny'
p1289
sI1294
S'choking'
p1290
sI1295
S'maids'
p1291
sI1296
S'shorter'
p1292
sI1297
S'virtually'
p1293
sI1298
S'pecking'
p1294
sI1299
S'knitting'
p1295
sI1300
S'snail'
p1296
sI1301
S'flooded'
p1297
sI1302
S'cigar'
p1298
sI1303
S'viewing'
p1299
sI1304
S'levels'
p1300
sI1305
S'leaps'
p1301
sI1306
S'stack'
p1302
sI1307
S'canned'
p1303
sI1308
S'picks'
p1304
sI1309
S'concrete'
p1305
sI1310
S'feces'
p1306
sI1311
S'strobe'
p1307
sI1312
S'clasped'
p1308
sI1313
S'soaked'
p1309
sI1314
S'lads'
p1310
sI1315
S'stunt'
p1311
sI1316
S'cuffs'
p1312
sI1317
S'surprises'
p1313
sI1318
S'chest'
p1314
sI1319
S'signals'
p1315
sI1320
S'parents'
p1316
sI1321
S'crying'
p1317
sI1322
S'surprised'
p1318
sI1323
S'clutches'
p1319
sI1324
S'emergency'
p1320
sI1325
S'couple'
p1321
sI1326
S'standstill'
p1322
sI1327
S'pouncing'
p1323
sI1328
S'sorting'
p1324
sI1329
S'd'
sI1330
S'continue'
p1325
sI1331
S'stylish'
p1326
sI1332
S'spins'
p1327
sI1333
S'clipping'
p1328
sI1334
S'partying'
p1329
sI1335
S'spring'
p1330
sI1336
S'sorbet'
p1331
sI1337
S'bounce'
p1332
sI1338
S'sighs'
p1333
sI1339
S'bouncy'
p1334
sI1340
S'palm'
p1335
sI1341
S'sight'
p1336
sI1342
S'curious'
p1337
sI1343
S'sprint'
p1338
sI1344
S'pale'
p1339
sI1345
S'mummy'
p1340
sI1346
S'ornate'
p1341
sI1347
S'be'
p1342
sI1348
S'agreement'
p1343
sI1349
S'santa'
p1344
sI1350
S'by'
p1345
sI1351
S'anything'
p1346
sI1352
S'exaggerated'
p1347
sI1353
S'hatchet'
p1348
sI1354
S'whiteboard'
p1349
sI1355
S'garbage'
p1350
sI1356
S'into'
p1351
sI1357
S'arcade'
p1352
sI1358
S'sneaky'
p1353
sI1359
S'sock'
p1354
sI1360
S'sneaks'
p1355
sI1361
S'suit'
p1356
sI1362
S'spar'
p1357
sI1363
S'opens'
p1358
sI1364
S'poster'
p1359
sI1365
S'relaxed'
p1360
sI1366
S'link'
p1361
sI1367
S'interlock'
p1362
sI1368
S'line'
p1363
sI1369
S'relaxes'
p1364
sI1370
S'posted'
p1365
sI1371
S'fades'
p1366
sI1372
S'shimmying'
p1367
sI1373
S'up'
p1368
sI1374
S'us'
p1369
sI1375
S'faded'
p1370
sI1376
S'continuously'
p1371
sI1377
S'aerial'
p1372
sI1378
S'labrador'
p1373
sI1379
S'm'
sI1380
S'squinted'
p1374
sI1381
S'chan'
p1375
sI1382
S'skimming'
p1376
sI1383
S'chat'
p1377
sI1384
S'surveying'
p1378
sI1385
S'graceful'
p1379
sI1386
S'stiffly'
p1380
sI1387
S'fixing'
p1381
sI1388
S'scrape'
p1382
sI1389
S'actors'
p1383
sI1390
S'parakeet'
p1384
sI1391
S'swirl'
p1385
sI1392
S'tarp'
p1386
sI1393
S'lashing'
p1387
sI1394
S'strums'
p1388
sI1395
S'robots'
p1389
sI1396
S'cobblestone'
p1390
sI1397
S'pointy'
p1391
sI1398
S'sides'
p1392
sI1399
S'lane'
p1393
sI1400
S'land'
p1394
sI1401
S'mindlessly'
p1395
sI1402
S'expressionless'
p1396
sI1403
S'rescued'
p1397
sI1404
S'holes'
p1398
sI1405
S'walked'
p1399
sI1406
S'crease'
p1400
sI1407
S'satellite'
p1401
sI1408
S'beverage'
p1402
sI1409
S'doves'
p1403
sI1410
S'walker'
p1404
sI1411
S'rescues'
p1405
sI1412
S'code'
p1406
sI1413
S'partial'
p1407
sI1414
S'sharply'
p1408
sI1415
S'squats'
p1409
sI1416
S'scratch'
p1410
sI1417
S'splashing'
p1411
sI1418
S'astronauts'
p1412
sI1419
S'unbuttoning'
p1413
sI1420
S'flashback'
p1414
sI1421
S'trampling'
p1415
sI1422
S'detectives'
p1416
sI1423
S'windowsill'
p1417
sI1424
S'glows'
p1418
sI1425
S'concerned'
p1419
sI1426
S'young'
p1420
sI1427
S'send'
p1421
sI1428
S'sent'
p1422
sI1429
S'pestering'
p1423
sI1430
S'garden'
p1424
sI1431
S'panting'
p1425
sI1432
S'continues'
p1426
sI1433
S'llama'
p1427
sI1434
S'mixing'
p1428
sI1435
S'practicing'
p1429
sI1436
S'decorating'
p1430
sI1437
S'squirt'
p1431
sI1438
S'magic'
p1432
sI1439
S'having'
p1433
sI1440
S'anxious'
p1434
sI1441
S'race'
p1435
sI1442
S'disheveled'
p1436
sI1443
S'rack'
p1437
sI1444
S'awoman'
p1438
sI1445
S'enclosed'
p1439
sI1446
S'assembly'
p1440
sI1447
S'odd'
p1441
sI1448
S'graduating'
p1442
sI1449
S'index'
p1443
sI1450
S'sweats'
p1444
sI1451
S'apparatus'
p1445
sI1452
S'flannel'
p1446
sI1453
S'expressed'
p1447
sI1454
S'sweaty'
p1448
sI1455
S'twins'
p1449
sI1456
S'flowing'
p1450
sI1457
S'lolly'
p1451
sI1458
S'scenery'
p1452
sI1459
S'led'
p1453
sI1460
S'leg'
p1454
sI1461
S'gathered'
p1455
sI1462
S'punch'
p1456
sI1463
S'delivering'
p1457
sI1464
S'let'
p1458
sI1465
S'squirming'
p1459
sI1466
S'great'
p1460
sI1467
S'engage'
p1461
sI1468
S'receive'
p1462
sI1469
S'involved'
p1463
sI1470
S'resulting'
p1464
sI1471
S'popcorn'
p1465
sI1472
S'makes'
p1466
sI1473
S'maker'
p1467
sI1474
S'involves'
p1468
sI1475
S'assemble'
p1469
sI1476
S'neighs'
p1470
sI1477
S'nibbling'
p1471
sI1478
S'tools'
p1472
sI1479
S'desiring'
p1473
sI1480
S'standing'
p1474
sI1481
S'sketchbook'
p1475
sI1482
S'zip'
p1476
sI1483
S'whipping'
p1477
sI1484
S'chocolates'
p1478
sI1485
S'next'
p1479
sI1486
S'pelvic'
p1480
sI1487
S'doubling'
p1481
sI1488
S'pencil'
p1482
sI1489
S'crisscrossing'
p1483
sI1490
S'wades'
p1484
sI1491
S'bobbing'
p1485
sI1492
S'reloads'
p1486
sI1493
S'opposing'
p1487
sI1494
S'rubbish'
p1488
sI1495
S'baby'
p1489
sI1496
S'haircuts'
p1490
sI1497
S'customer'
p1491
sI1498
S'balls'
p1492
sI1499
S'animals'
p1493
sI1500
S'this'
p1494
sI1501
S'bally'
p1495
sI1502
S'athlete'
p1496
sI1503
S'pour'
p1497
sI1504
S'prompts'
p1498
sI1505
S'thin'
p1499
sI1506
S'drill'
p1500
sI1507
S'beavers'
p1501
sI1508
S'coffin'
p1502
sI1509
S'wedge'
p1503
sI1510
S'slid'
p1504
sI1511
S'bent'
p1505
sI1512
S'pawn'
p1506
sI1513
S'stropping'
p1507
sI1514
S'process'
p1508
sI1515
S'lock'
p1509
sI1516
S'slim'
p1510
sI1517
S'rode'
p1511
sI1518
S'signers'
p1512
sI1519
S'pieces'
p1513
sI1520
S'high'
p1514
sI1521
S'bend'
p1515
sI1522
S'slip'
p1516
sI1523
S'pelvis'
p1517
sI1524
S'rods'
p1518
sI1525
S'paws'
p1519
sI1526
S'trumpet'
p1520
sI1527
S'gums'
p1521
sI1528
S'shuffled'
p1522
sI1529
S'destroying'
p1523
sI1530
S'swishes'
p1524
sI1531
S'animal'
p1525
sI1532
S'swivels'
p1526
sI1533
S'wolf'
p1527
sI1534
S'intelligent'
p1528
sI1535
S'puckered'
p1529
sI1536
S'contraption'
p1530
sI1537
S'blocks'
p1531
sI1538
S'wallpaper'
p1532
sI1539
S'tied'
p1533
sI1540
S'paintball'
p1534
sI1541
S'notebook'
p1535
sI1542
S'demonstrating'
p1536
sI1543
S'fits'
p1537
sI1544
S'ties'
p1538
sI1545
S'cabbage'
p1539
sI1546
S'hawk'
p1540
sI1547
S'autograph'
p1541
sI1548
S'tomato'
p1542
sI1549
S'counter'
p1543
sI1550
S'robot'
p1544
sI1551
S'element'
p1545
sI1552
S'realizes'
p1546
sI1553
S'allow'
p1547
sI1554
S'pyramids'
p1548
sI1555
S'counted'
p1549
sI1556
S'erasing'
p1550
sI1557
S'antelope'
p1551
sI1558
S'boxing'
p1552
sI1559
S'thigh'
p1553
sI1560
S'knotting'
p1554
sI1561
S'produces'
p1555
sI1562
S'peck'
p1556
sI1563
S'move'
p1557
sI1564
S'spatula'
p1558
sI1565
S'motorcycle'
p1559
sI1566
S'perfect'
p1560
sI1567
S'tightrope'
p1561
sI1568
S'dock'
p1562
sI1569
S'bothering'
p1563
sI1570
S'kiss'
p1564
sI1571
S'rotation'
p1565
sI1572
S'cage'
p1566
sI1573
S'transparent'
p1567
sI1574
S'scenic'
p1568
sI1575
S'clasping'
p1569
sI1576
S'sniffing'
p1570
sI1577
S'beneath'
p1571
sI1578
S'stock'
p1572
sI1579
S'glasses'
p1573
sI1580
S'tents'
p1574
sI1581
S'doing'
p1575
sI1582
S'sportsman'
p1576
sI1583
S'books'
p1577
sI1584
S'static'
p1578
sI1585
S'goalkeeper'
p1579
sI1586
S'matrix'
p1580
sI1587
S"'"
sI1588
S'reload'
p1581
sI1589
S'discs'
p1582
sI1590
S'frowns'
p1583
sI1591
S'shut'
p1584
sI1592
S'yawns'
p1585
sI1593
S'inhaling'
p1586
sI1594
S'graze'
p1587
sI1595
S'thrust'
p1588
sI1596
S'steering'
p1589
sI1597
S'scary'
p1590
sI1598
S'spill'
p1591
sI1599
S'latches'
p1592
sI1600
S'dvd'
p1593
sI1601
S'length'
p1594
sI1602
S'pigs'
p1595
sI1603
S'motorbikes'
p1596
sI1604
S'scarf'
p1597
sI1605
S'blown'
p1598
sI1606
S'yells'
p1599
sI1607
S'scene'
p1600
sI1608
S'owner'
p1601
sI1609
S'blows'
p1602
sI1610
S'prank'
p1603
sI1611
S'quayside'
p1604
sI1612
S'ordering'
p1605
sI1613
S'system'
p1606
sI1614
S'decorations'
p1607
sI1615
S'spaceship'
p1608
sI1616
S'painful'
p1609
sI1617
S'gummy'
p1610
sI1618
S'stomach'
p1611
sI1619
S'lot'
p1612
sI1620
S'shepherd'
p1613
sI1621
S'shorts'
p1614
sI1622
S'applauds'
p1615
sI1623
S'colleagues'
p1616
sI1624
S'buttocks'
p1617
sI1625
S'bother'
p1618
sI1626
S'pads'
p1619
sI1627
S'steep'
p1620
sI1628
S'twos'
p1621
sI1629
S'steer'
p1622
sI1630
S'collecting'
p1623
sI1631
S'false'
p1624
sI1632
S'shrinks'
p1625
sI1633
S'viewer'
p1626
sI1634
S'lines'
p1627
sI1635
S'gently'
p1628
sI1636
S'spelled'
p1629
sI1637
S'reassuring'
p1630
sI1638
S'defending'
p1631
sI1639
S'ponders'
p1632
sI1640
S'clearly'
p1633
sI1641
S'illuminated'
p1634
sI1642
S'documents'
p1635
sI1643
S'dishes'
p1636
sI1644
S'studying'
p1637
sI1645
S'demolished'
p1638
sI1646
S'ashore'
p1639
sI1647
S'korean'
p1640
sI1648
S'seductive'
p1641
sI1649
S'scooping'
p1642
sI1650
S'soap'
p1643
sI1651
S'soar'
p1644
sI1652
S'warily'
p1645
sI1653
S'manor'
p1646
sI1654
S'petals'
p1647
sI1655
S'device'
p1648
sI1656
S'shaven'
p1649
sI1657
S'stronger'
p1650
sI1658
S'face'
p1651
sI1659
S'mechanical'
p1652
sI1660
S'painting'
p1653
sI1661
S'atmosphere'
p1654
sI1662
S'shirted'
p1655
sI1663
S'woolly'
p1656
sI1664
S'bring'
p1657
sI1665
S'biker'
p1658
sI1666
S'bikes'
p1659
sI1667
S'greenhouse'
p1660
sI1668
S'bedroom'
p1661
sI1669
S'rough'
p1662
sI1670
S'taps'
p1663
sI1671
S'pause'
p1664
sI1672
S'hops'
p1665
sI1673
S'jar'
p1666
sI1674
S'should'
p1667
sI1675
S'buttons'
p1668
sI1676
S'tape'
p1669
sI1677
S'riding'
p1670
sI1678
S'gnaws'
p1671
sI1679
S'handle'
p1672
sI1680
S'lucky'
p1673
sI1681
S'wiggle'
p1674
sI1682
S'smash'
p1675
sI1683
S'hoses'
p1676
sI1684
S'rapper'
p1677
sI1685
S'stuff'
p1678
sI1686
S'hosed'
p1679
sI1687
S'handstand'
p1680
sI1688
S'directs'
p1681
sI1689
S'appliance'
p1682
sI1690
S'frame'
p1683
sI1691
S'shreds'
p1684
sI1692
S'packet'
p1685
sI1693
S'slanted'
p1686
sI1694
S'skateboarding'
p1687
sI1695
S'packed'
p1688
sI1696
S'wire'
p1689
sI1697
S'superhero'
p1690
sI1698
S'interacting'
p1691
sI1699
S'insulting'
p1692
sI1700
S'nuclear'
p1693
sI1701
S'taunting'
p1694
sI1702
S'pistol'
p1695
sI1703
S'ends'
p1696
sI1704
S'scrolls'
p1697
sI1705
S'fancily'
p1698
sI1706
S'butts'
p1699
sI1707
S'courtyard'
p1700
sI1708
S'strides'
p1701
sI1709
S'staring'
p1702
sI1710
S'drum'
p1703
sI1711
S'handstands'
p1704
sI1712
S'ramp'
p1705
sI1713
S'drug'
p1706
sI1714
S'rams'
p1707
sI1715
S'doorway'
p1708
sI1716
S'figures'
p1709
sI1717
S'volley'
p1710
sI1718
S'carefully'
p1711
sI1719
S'pounces'
p1712
sI1720
S'ca'
p1713
sI1721
S'cd'
p1714
sI1722
S'pounced'
p1715
sI1723
S'whispering'
p1716
sI1724
S'pugs'
p1717
sI1725
S'powered'
p1718
sI1726
S'gondola'
p1719
sI1727
S'drank'
p1720
sI1728
S'chalkboard'
p1721
sI1729
S'aquamarine'
p1722
sI1730
S'feather'
p1723
sI1731
S'preteens'
p1724
sI1732
S'homosexual'
p1725
sI1733
S'toasting'
p1726
sI1734
S'laser'
p1727
sI1735
S'runway'
p1728
sI1736
S'grinning'
p1729
sI1737
S'apparitions'
p1730
sI1738
S'rigged'
p1731
sI1739
S'bathtub'
p1732
sI1740
S'groin'
p1733
sI1741
S'stuffing'
p1734
sI1742
S'site'
p1735
sI1743
S'rips'
p1736
sI1744
S'sits'
p1737
sI1745
S'tattoo'
p1738
sI1746
S'skateboarders'
p1739
sI1747
S'ruins'
p1740
sI1748
S'overcoats'
p1741
sI1749
S'digging'
p1742
sI1750
S'glaring'
p1743
sI1751
S'ball'
p1744
sI1752
S'emotionally'
p1745
sI1753
S'dusk'
p1746
sI1754
S'bale'
p1747
sI1755
S'bald'
p1748
sI1756
S'upon'
p1749
sI1757
S'fiddles'
p1750
sI1758
S'paving'
p1751
sI1759
S'robotic'
p1752
sI1760
S'dust'
p1753
sI1761
S'overalls'
p1754
sI1762
S'broccoli'
p1755
sI1763
S'off'
p1756
sI1764
S'shotgun'
p1757
sI1765
S'patterns'
p1758
sI1766
S'clambering'
p1759
sI1767
S'depict'
p1760
sI1768
S'snake'
p1761
sI1769
S'loincloths'
p1762
sI1770
S'bananas'
p1763
sI1771
S'moments'
p1764
sI1772
S'rooms'
p1765
sI1773
S'broomstick'
p1766
sI1774
S'clipper'
p1767
sI1775
S'web'
p1768
sI1776
S'undulating'
p1769
sI1777
S'combing'
p1770
sI1778
S'crack'
p1771
sI1779
S'flail'
p1772
sI1780
S'budgie'
p1773
sI1781
S'taunt'
p1774
sI1782
S'whispers'
p1775
sI1783
S'increases'
p1776
sI1784
S'five'
p1777
sI1785
S'desk'
p1778
sI1786
S'pier'
p1779
sI1787
S'smudge'
p1780
sI1788
S'chairs'
p1781
sI1789
S'accelerating'
p1782
sI1790
S'garage'
p1783
sI1791
S'springy'
p1784
sI1792
S'flickering'
p1785
sI1793
S'become'
p1786
sI1794
S'poor'
p1787
sI1795
S'polar'
p1788
sI1796
S'footage'
p1789
sI1797
S'gymnastics'
p1790
sI1798
S'hissing'
p1791
sI1799
S'humming'
p1792
sI1800
S'hipsters'
p1793
sI1801
S'disbelief'
p1794
sI1802
S'rubik'
p1795
sI1803
S'bedding'
p1796
sI1804
S'shone'
p1797
sI1805
S'does'
p1798
sI1806
S'passion'
p1799
sI1807
S'saucepan'
p1800
sI1808
S'kangaroos'
p1801
sI1809
S'stairway'
p1802
sI1810
S'blowing'
p1803
sI1811
S'manta'
p1804
sI1812
S'drift'
p1805
sI1813
S'whistling'
p1806
sI1814
S'zips'
p1807
sI1815
S'imaginary'
p1808
sI1816
S'cordless'
p1809
sI1817
S'sneezes'
p1810
sI1818
S'stage'
p1811
sI1819
S'iris'
p1812
sI1820
S'sister'
p1813
sI1821
S'drumming'
p1814
sI1822
S'asks'
p1815
sI1823
S'slayer'
p1816
sI1824
S'union'
p1817
sI1825
S'furred'
p1818
sI1826
S'seeds'
p1819
sI1827
S'swimming'
p1820
sI1828
S'flailing'
p1821
sI1829
S'snuggling'
p1822
sI1830
S'roads'
p1823
sI1831
S'cradling'
p1824
sI1832
S'spots'
p1825
sI1833
S'bump'
p1826
sI1834
S'much'
p1827
sI1835
S'frustration'
p1828
sI1836
S'bagged'
p1829
sI1837
S'overlapping'
p1830
sI1838
S'delivery'
p1831
sI1839
S'construction'
p1832
sI1840
S'grate'
p1833
sI1841
S'delivers'
p1834
sI1842
S'count'
p1835
sI1843
S'tossed'
p1836
sI1844
S'places'
p1837
sI1845
S'chained'
p1838
sI1846
S'smooth'
p1839
sI1847
S'triumphant'
p1840
sI1848
S'excitement'
p1841
sI1849
S'placed'
p1842
sI1850
S'tosses'
p1843
sI1851
S'monument'
p1844
sI1852
S'problem'
p1845
sI1853
S'bearing'
p1846
sI1854
S'nurses'
p1847
sI1855
S'slowing'
p1848
sI1856
S'ink'
p1849
sI1857
S'ina'
p1850
sI1858
S'variety'
p1851
sI1859
S'tubular'
p1852
sI1860
S'ponytail'
p1853
sI1861
S'frisbee'
p1854
sI1862
S'footprints'
p1855
sI1863
S'veil'
p1856
sI1864
S'dolphins'
p1857
sI1865
S'ghost'
p1858
sI1866
S'write'
p1859
sI1867
S'rural'
p1860
sI1868
S'trims'
p1861
sI1869
S'saves'
p1862
sI1870
S'crumpled'
p1863
sI1871
S'controversial'
p1864
sI1872
S'mansion'
p1865
sI1873
S'huffs'
p1866
sI1874
S'saved'
p1867
sI1875
S'tickle'
p1868
sI1876
S'bike'
p1869
sI1877
S'sped'
p1870
sI1878
S'blanket'
p1871
sI1879
S'closeup'
p1872
sI1880
S'washboard'
p1873
sI1881
S'porpoises'
p1874
sI1882
S'fogs'
p1875
sI1883
S'wincing'
p1876
sI1884
S'spacecraft'
p1877
sI1885
S'samurai'
p1878
sI1886
S'red'
p1879
sI1887
S'whist'
p1880
sI1888
S'chew'
p1881
sI1889
S'phones'
p1882
sI1890
S'bubbling'
p1883
sI1891
S'horn'
p1884
sI1892
S'chef'
p1885
sI1893
S'follow'
p1886
sI1894
S'guillotine'
p1887
sI1895
S'levitate'
p1888
sI1896
S'panda'
p1889
sI1897
S'sandbag'
p1890
sI1898
S'lizard'
p1891
sI1899
S'above'
p1892
sI1900
S'toll'
p1893
sI1901
S'zoomed'
p1894
sI1902
S'simultaneously'
p1895
sI1903
S'sinks'
p1896
sI1904
S'wrapping'
p1897
sI1905
S'protection'
p1898
sI1906
S'celebration'
p1899
sI1907
S'studs'
p1900
sI1908
S'daughter'
p1901
sI1909
S'items'
p1902
sI1910
S'smoky'
p1903
sI1911
S'pinning'
p1904
sI1912
S'smoke'
p1905
sI1913
S'pinkies'
p1906
sI1914
S'otters'
p1907
sI1915
S'spooky'
p1908
sI1916
S'angrily'
p1909
sI1917
S'romantically'
p1910
sI1918
S'glance'
p1911
sI1919
S'bra'
p1912
sI1920
S'devastation'
p1913
sI1921
S'saran'
p1914
sI1922
S'alligator'
p1915
sI1923
S'gingerly'
p1916
sI1924
S'sweater'
p1917
sI1925
S'coins'
p1918
sI1926
S'negative'
p1919
sI1927
S'lorry'
p1920
sI1928
S'separated'
p1921
sI1929
S'meowed'
p1922
sI1930
S'award'
p1923
sI1931
S'pierced'
p1924
sI1932
S'unraveled'
p1925
sI1933
S'bunnies'
p1926
sI1934
S'word'
p1927
sI1935
S'wore'
p1928
sI1936
S'taunts'
p1929
sI1937
S'work'
p1930
sI1938
S'eclipse'
p1931
sI1939
S'worm'
p1932
sI1940
S'worn'
p1933
sI1941
S'cuddly'
p1934
sI1942
S'cuddle'
p1935
sI1943
S'mechanic'
p1936
sI1944
S'blooming'
p1937
sI1945
S'elbow'
p1938
sI1946
S'elegantly'
p1939
sI1947
S'clinging'
p1940
sI1948
S'flung'
p1941
sI1949
S'acrobatic'
p1942
sI1950
S'agony'
p1943
sI1951
S'photocopy'
p1944
sI1952
S'nuts'
p1945
sI1953
S'recovers'
p1946
sI1954
S'frameqaorting'
p1947
sI1955
S'gapes'
p1948
sI1956
S'interview'
p1949
sI1957
S'beach'
p1950
sI1958
S'pizza'
p1951
sI1959
S'bares'
p1952
sI1960
S'transforming'
p1953
sI1961
S'ladder'
p1954
sI1962
S'after'
p1955
sI1963
S'lab'
p1956
sI1964
S'bombarded'
p1957
sI1965
S'lay'
p1958
sI1966
S'lap'
p1959
sI1967
S'nipped'
p1960
sI1968
S'greet'
p1961
sI1969
S'scare'
p1962
sI1970
S'wriggling'
p1963
sI1971
S'green'
p1964
sI1972
S'latched'
p1965
sI1973
S'ambulance'
p1966
sI1974
S'tucking'
p1967
sI1975
S'triggering'
p1968
sI1976
S'salon'
p1969
sI1977
S'infested'
p1970
sI1978
S'popsicle'
p1971
sI1979
S'office'
p1972
sI1980
S'muffin'
p1973
sI1981
S'satisfied'
p1974
sI1982
S'miming'
p1975
sI1983
S'oncoming'
p1976
sI1984
S'somewhere'
p1977
sI1985
S'highlights'
p1978
sI1986
S'avocado'
p1979
sI1987
S'production'
p1980
sI1988
S'brawling'
p1981
sI1989
S'carton'
p1982
sI1990
S'damages'
p1983
sI1991
S'then'
p1984
sI1992
S'them'
p1985
sI1993
S'woken'
p1986
sI1994
S'exhales'
p1987
sI1995
S'exhaling'
p1988
sI1996
S'collide'
p1989
sI1997
S'break'
p1990
sI1998
S'band'
p1991
sI1999
S'bang'
p1992
sI2000
S'giraffe'
p1993
sI2001
S'reaches'
p1994
sI2002
S'they'
p1995
sI2003
S'bank'
p1996
sI2004
S'bread'
p1997
sI2005
S'rocky'
p1998
sI2006
S'oxygen'
p1999
sI2007
S'routines'
p2000
sI2008
S'backgrounds'
p2001
sI2009
S'automobile'
p2002
sI2010
S'rocks'
p2003
sI2011
S'iguana'
p2004
sI2012
S'hurdle'
p2005
sI2013
S'feeds'
p2006
sI2014
S'lifted'
p2007
sI2015
S'kneels'
p2008
sI2016
S'logs'
p2009
sI2017
S'dumping'
p2010
sI2018
S'sled'
p2011
sI2019
S'logo'
p2012
sI2020
S'flock'
p2013
sI2021
S'motorized'
p2014
sI2022
S'blankly'
p2015
sI2023
S'cameras'
p2016
sI2024
S'hooked'
p2017
sI2025
S'trainers'
p2018
sI2026
S'medicine'
p2019
sI2027
S'forth'
p2020
sI2028
S'sliding'
p2021
sI2029
S'lesbians'
p2022
sI2030
S'barrier'
p2023
sI2031
S'negligee'
p2024
sI2032
S'standard'
p2025
sI2033
S'smacking'
p2026
sI2034
S'frameqatile'
p2027
sI2035
S'fastening'
p2028
sI2036
S'amazement'
p2029
sI2037
S'lollipop'
p2030
sI2038
S'staggers'
p2031
sI2039
S'recovering'
p2032
sI2040
S'created'
p2033
sI2041
S'writhing'
p2034
sI2042
S'creates'
p2035
sI2043
S'licked'
p2036
sI2044
S'chased'
p2037
sI2045
S'another'
p2038
sI2046
S'drones'
p2039
sI2047
S'thoughtfully'
p2040
sI2048
S'comic'
p2041
sI2049
S'perking'
p2042
sI2050
S'electronic'
p2043
sI2051
S'illustrate'
p2044
sI2052
S'crunches'
p2045
sI2053
S'swatting'
p2046
sI2054
S'elevator'
p2047
sI2055
S'flagpole'
p2048
sI2056
S'purposefully'
p2049
sI2057
S'dogs'
p2050
sI2058
S'emblem'
p2051
sI2059
S'happily'
p2052
sI2060
S'cereal'
p2053
sI2061
S'chases'
p2054
sI2062
S'target'
p2055
sI2063
S'scenes'
p2056
sI2064
S'seated'
p2057
sI2065
S'iron'
p2058
sI2066
S'tackled'
p2059
sI2067
S'solely'
p2060
sI2068
S'hologram'
p2061
sI2069
S'failing'
p2062
sI2070
S'navigate'
p2063
sI2071
S'sportsmen'
p2064
sI2072
S'manner'
p2065
sI2073
S'stalls'
p2066
sI2074
S'contents'
p2067
sI2075
S'forced'
p2068
sI2076
S'strength'
p2069
sI2077
S'necktie'
p2070
sI2078
S'latter'
p2071
sI2079
S'hamper'
p2072
sI2080
S'materials'
p2073
sI2081
S'luxury'
p2074
sI2082
S'forces'
p2075
sI2083
S'swims'
p2076
sI2084
S'circles'
p2077
sI2085
S'extending'
p2078
sI2086
S'circled'
p2079
sI2087
S'exercises'
p2080
sI2088
S'corded'
p2081
sI2089
S'grave'
p2082
sI2090
S'nostrils'
p2083
sI2091
S'duckling'
p2084
sI2092
S'goalpost'
p2085
sI2093
S'swamp'
p2086
sI2094
S'deeply'
p2087
sI2095
S'briskly'
p2088
sI2096
S'subtly'
p2089
sI2097
S'chandelier'
p2090
sI2098
S'enjoyed'
p2091
sI2099
S'blotting'
p2092
sI2100
S'toast'
p2093
sI2101
S'geyser'
p2094
sI2102
S'pursuing'
p2095
sI2103
S'goalie'
p2096
sI2104
S'do'
p2097
sI2105
S'dj'
p2098
sI2106
S'de'
p2099
sI2107
S'frowning'
p2100
sI2108
S'roundabout'
p2101
sI2109
S'carries'
p2102
sI2110
S'nasty'
p2103
sI2111
S'runs'
p2104
sI2112
S'covering'
p2105
sI2113
S'megaphones'
p2106
sI2114
S'gears'
p2107
sI2115
S'steak'
p2108
sI2116
S'steal'
p2109
sI2117
S'steam'
p2110
sI2118
S'secretary'
p2111
sI2119
S'newspaper'
p2112
sI2120
S'miserably'
p2113
sI2121
S'lemonade'
p2114
sI2122
S'checks'
p2115
sI2123
S'cattle'
p2116
sI2124
S'techniques'
p2117
sI2125
S'bunting'
p2118
sI2126
S'draws'
p2119
sI2127
S'away'
p2120
sI2128
S'gentleman'
p2121
sI2129
S'swimwear'
p2122
sI2130
S'unable'
p2123
sI2131
S'drawn'
p2124
sI2132
S'shields'
p2125
sI2133
S'handful'
p2126
sI2134
S'spectacles'
p2127
sI2135
S'unfold'
p2128
sI2136
S'convertible'
p2129
sI2137
S'kitchen'
p2130
sI2138
S'cop'
p2131
sI2139
S'cot'
p2132
sI2140
S'cow'
p2133
sI2141
S'ill'
p2134
sI2142
S'cob'
p2135
sI2143
S'receives'
p2136
sI2144
S'disappears'
p2137
sI2145
S'con'
p2138
sI2146
S'peacefully'
p2139
sI2147
S'widen'
p2140
sI2148
S'spear'
p2141
sI2149
S'royal'
p2142
sI2150
S'zigzagging'
p2143
sI2151
S'headlights'
p2144
sI2152
S'unhappily'
p2145
sI2153
S'equations'
p2146
sI2154
S'noel'
p2147
sI2155
S'flexible'
p2148
sI2156
S'relaxing'
p2149
sI2157
S'attacked'
p2150
sI2158
S'applied'
p2151
sI2159
S'tide'
p2152
sI2160
S'east'
p2153
sI2161
S'gnu'
p2154
sI2162
S'launches'
p2155
sI2163
S'air'
p2156
sI2164
S'aim'
p2157
sI2165
S'micheal'
p2158
sI2166
S'applies'
p2159
sI2167
S'aid'
p2160
sI2168
S'property'
p2161
sI2169
S'overtaking'
p2162
sI2170
S'launched'
p2163
sI2171
S'stink'
p2164
sI2172
S'sticker'
p2165
sI2173
S'dumped'
p2166
sI2174
S'skipping'
p2167
sI2175
S'dizzy'
p2168
sI2176
S'brake'
p2169
sI2177
S'cone'
p2170
sI2178
S'drawers'
p2171
sI2179
S'perform'
p2172
sI2180
S'descend'
p2173
sI2181
S'avoids'
p2174
sI2182
S'plates'
p2175
sI2183
S'bunny'
p2176
sI2184
S'wheel'
p2177
sI2185
S'plating'
p2178
sI2186
S'springing'
p2179
sI2187
S'rail'
p2180
sI2188
S'rain'
p2181
sI2189
S'hand'
p2182
sI2190
S'demolishes'
p2183
sI2191
S'animations'
p2184
sI2192
S'hungrily'
p2185
sI2193
S'hopping'
p2186
sI2194
S'camcorder'
p2187
sI2195
S'hispanic'
p2188
sI2196
S'contact'
p2189
sI2197
S'the'
p2190
sI2198
S'musical'
p2191
sI2199
S'athletic'
p2192
sI2200
S'photo'
p2193
sI2201
S'gravity'
p2194
sI2202
S'quotes'
p2195
sI2203
S'goggles'
p2196
sI2204
S'farther'
p2197
sI2205
S'goalies'
p2198
sI2206
S'adding'
p2199
sI2207
S'boars'
p2200
sI2208
S'unique'
p2201
sI2209
S'hills'
p2202
sI2210
S'flooring'
p2203
sI2211
S'photographer'
p2204
sI2212
S'reuniting'
p2205
sI2213
S'hilly'
p2206
sI2214
S'shout'
p2207
sI2215
S'spread'
p2208
sI2216
S'transformed'
p2209
sI2217
S'board'
p2210
sI2218
S'expelled'
p2211
sI2219
S'photographed'
p2212
sI2220
S'caps'
p2213
sI2221
S'boxes'
p2214
sI2222
S'boxer'
p2215
sI2223
S'cape'
p2216
sI2224
S'retreat'
p2217
sI2225
S'hairless'
p2218
sI2226
S'latino'
p2219
sI2227
S'cooler'
p2220
sI2228
S'lily'
p2221
sI2229
S'sculling'
p2222
sI2230
S'sparse'
p2223
sI2231
S'night'
p2224
sI2232
S'slouches'
p2225
sI2233
S'security'
p2226
sI2234
S'antique'
p2227
sI2235
S'lashes'
p2228
sI2236
S'sends'
p2229
sI2237
S'trainee'
p2230
sI2238
S'born'
p2231
sI2239
S'couture'
p2232
sI2240
S'stardust'
p2233
sI2241
S'bore'
p2234
sI2242
S'confusing'
p2235
sI2243
S'congratulate'
p2236
sI2244
S'nuzzles'
p2237
sI2245
S'purple'
p2238
sI2246
S'comments'
p2239
sI2247
S'filming'
p2240
sI2248
S'asking'
p2241
sI2249
S'beating'
p2242
sI2250
S'adorable'
p2243
sI2251
S'drink'
p2244
sI2252
S'peek'
p2245
sI2253
S'peel'
p2246
sI2254
S'lucille'
p2247
sI2255
S'pose'
p2248
sI2256
S'scarves'
p2249
sI2257
S'pees'
p2250
sI2258
S'post'
p2251
sI2259
S'trophy'
p2252
sI2260
S'rearrange'
p2253
sI2261
S'diner'
p2254
sI2262
S'theirs'
p2255
sI2263
S'accepts'
p2256
sI2264
S'sizzling'
p2257
sI2265
S'horizon'
p2258
sI2266
S'octopus'
p2259
sI2267
S'pays'
p2260
sI2268
S'float'
p2261
sI2269
S'bound'
p2262
sI2270
S'balances'
p2263
sI2271
S'prisoner'
p2264
sI2272
S'capped'
p2265
sI2273
S'balanced'
p2266
sI2274
S'stumble'
p2267
sI2275
S'strangely'
p2268
sI2276
S'fuchsia'
p2269
sI2277
S'fight'
p2270
sI2278
S'way'
p2271
sI2279
S'wax'
p2272
sI2280
S'was'
p2273
sI2281
S'war'
p2274
sI2282
S'pirouette'
p2275
sI2283
S'snowy'
p2276
sI2284
S'becoming'
p2277
sI2285
S'converse'
p2278
sI2286
S'snows'
p2279
sI2287
S'garages'
p2280
sI2288
S'elderly'
p2281
sI2289
S'astonished'
p2282
sI2290
S'responding'
p2283
sI2291
S'entertainers'
p2284
sI2292
S'crystal'
p2285
sI2293
S'coverings'
p2286
sI2294
S'emotional'
p2287
sI2295
S'flat'
p2288
sI2296
S'muscular'
p2289
sI2297
S'howling'
p2290
sI2298
S'prayer'
p2291
sI2299
S'mold'
p2292
sI2300
S'mole'
p2293
sI2301
S'physical'
p2294
sI2302
S'dimly'
p2295
sI2303
S'dying'
p2296
sI2304
S'dace'
p2297
sI2305
S'reality'
p2298
sI2306
S'interested'
p2299
sI2307
S'holding'
p2300
sI2308
S'test'
p2301
sI2309
S'bulling'
p2302
sI2310
S'frolic'
p2303
sI2311
S'scored'
p2304
sI2312
S'brothers'
p2305
sI2313
S'mulling'
p2306
sI2314
S'notepad'
p2307
sI2315
S'scores'
p2308
sI2316
S'together'
p2309
sI2317
S'beds'
p2310
sI2318
S'reception'
p2311
sI2319
S'songs'
p2312
sI2320
S'dance'
p2313
sI2321
S'horseback'
p2314
sI2322
S'switches'
p2315
sI2323
S'selection'
p2316
sI2324
S'grateful'
p2317
sI2325
S'battle'
p2318
sI2326
S'toothpick'
p2319
sI2327
S'interlaced'
p2320
sI2328
S'varnish'
p2321
sI2329
S'zone'
p2322
sI2330
S'hovers'
p2323
sI2331
S'flask'
p2324
sI2332
S'hump'
p2325
sI2333
S'flash'
p2326
sI2334
S'flopping'
p2327
sI2335
S'rhythm'
p2328
sI2336
S'terror'
p2329
sI2337
S'brown'
p2330
sI2338
S'protective'
p2331
sI2339
S'decking'
p2332
sI2340
S'seemingly'
p2333
sI2341
S'ferociously'
p2334
sI2342
S'kitten'
p2335
sI2343
S'trouble'
p2336
sI2344
S'blast'
p2337
sI2345
S'pixie'
p2338
sI2346
S'aggressively'
p2339
sI2347
S'presented'
p2340
sI2348
S'turns'
p2341
sI2349
S'gun'
p2342
sI2350
S'gum'
p2343
sI2351
S'evades'
p2344
sI2352
S'guitars'
p2345
sI2353
S'guy'
p2346
sI2354
S'upper'
p2347
sI2355
S'brave'
p2348
sI2356
S'temples'
p2349
sI2357
S'regained'
p2350
sI2358
S'yolks'
p2351
sI2359
S'agitate'
p2352
sI2360
S'cargo'
p2353
sI2361
S'appear'
p2354
sI2362
S'blotches'
p2355
sI2363
S'wildebeest'
p2356
sI2364
S'uniform'
p2357
sI2365
S'peels'
p2358
sI2366
S'saluting'
p2359
sI2367
S'supporting'
p2360
sI2368
S'explosion'
p2361
sI2369
S'peeled'
p2362
sI2370
S'whiteness'
p2363
sI2371
S'smearing'
p2364
sI2372
S'goldfish'
p2365
sI2373
S'roaring'
p2366
sI2374
S'teaches'
p2367
sI2375
S'appears'
p2368
sI2376
S'change'
p2369
sI2377
S'pedals'
p2370
sI2378
S'flames'
p2371
sI2379
S'exiting'
p2372
sI2380
S'bangs'
p2373
sI2381
S'pillow'
p2374
sI2382
S'puffer'
p2375
sI2383
S'marked'
p2376
sI2384
S'snowboard'
p2377
sI2385
S'marker'
p2378
sI2386
S'firearm'
p2379
sI2387
S'market'
p2380
sI2388
S'terminal'
p2381
sI2389
S'streetcar'
p2382
sI2390
S'masturbating'
p2383
sI2391
S'live'
p2384
sI2392
S'matador'
p2385
sI2393
S'intently'
p2386
sI2394
S'entrance'
p2387
sI2395
S'club'
p2388
sI2396
S'envelope'
p2389
sI2397
S'clue'
p2390
sI2398
S'slinky'
p2391
sI2399
S'envelops'
p2392
sI2400
S'beluga'
p2393
sI2401
S'bowler'
p2394
sI2402
S'skaters'
p2395
sI2403
S'indescribable'
p2396
sI2404
S'car'
p2397
sI2405
S'cap'
p2398
sI2406
S'cat'
p2399
sI2407
S'labeled'
p2400
sI2408
S'gathers'
p2401
sI2409
S'can'
p2402
sI2410
S'cam'
p2403
sI2411
S'cab'
p2404
sI2412
S'heart'
p2405
sI2413
S'grassy'
p2406
sI2414
S'pauses'
p2407
sI2415
S'expanding'
p2408
sI2416
S'chip'
p2409
sI2417
S'skydiving'
p2410
sI2418
S'chin'
p2411
sI2419
S'spa'
p2412
sI2420
S'clothing'
p2413
sI2421
S'airplane'
p2414
sI2422
S'discussion'
p2415
sI2423
S'spreads'
p2416
sI2424
S'freezer'
p2417
sI2425
S'freezes'
p2418
sI2426
S'lounge'
p2419
sI2427
S'frameqaairing'
p2420
sI2428
S'product'
p2421
sI2429
S'staircase'
p2422
sI2430
S'dive'
p2423
sI2431
S'bedclothes'
p2424
sI2432
S'disgusted'
p2425
sI2433
S'motorway'
p2426
sI2434
S'jousting'
p2427
sI2435
S'heroes'
p2428
sI2436
S'flourish'
p2429
sI2437
S'lifting'
p2430
sI2438
S'goal'
p2431
sI2439
S'visitors'
p2432
sI2440
S'noses'
p2433
sI2441
S'candles'
p2434
sI2442
S'nosed'
p2435
sI2443
S'serving'
p2436
sI2444
S'freckles'
p2437
sI2445
S'displayed'
p2438
sI2446
S'playful'
p2439
sI2447
S'ended'
p2440
sI2448
S'tablets'
p2441
sI2449
S'cold'
p2442
sI2450
S'still'
p2443
sI2451
S'birds'
p2444
sI2452
S'statuettes'
p2445
sI2453
S'cola'
p2446
sI2454
S'rooftop'
p2447
sI2455
S'curly'
p2448
sI2456
S'holing'
p2449
sI2457
S'reacting'
p2450
sI2458
S'curls'
p2451
sI2459
S'forms'
p2452
sI2460
S'window'
p2453
sI2461
S'spacious'
p2454
sI2462
S'showered'
p2455
sI2463
S'tiara'
p2456
sI2464
S'non'
p2457
sI2465
S'halt'
p2458
sI2466
S'fling'
p2459
sI2467
S'nod'
p2460
sI2468
S'rake'
p2461
sI2469
S'introduce'
p2462
sI2470
S'scaling'
p2463
sI2471
S'tails'
p2464
sI2472
S'half'
p2465
sI2473
S'not'
p2466
sI2474
S'hall'
p2467
sI2475
S'galloping'
p2468
sI2476
S'barrow'
p2469
sI2477
S'calipers'
p2470
sI2478
S'streaks'
p2471
sI2479
S'fumes'
p2472
sI2480
S'drop'
p2473
sI2481
S'bursts'
p2474
sI2482
S'cliffs'
p2475
sI2483
S'fired'
p2476
sI2484
S'ed'
p2477
sI2485
S'challenges'
p2478
sI2486
S'soy'
p2479
sI2487
S'fires'
p2480
sI2488
S'eyebrow'
p2481
sI2489
S'year'
p2482
sI2490
S'teams'
p2483
sI2491
S'pills'
p2484
sI2492
S'amusement'
p2485
sI2493
S'er'
p2486
sI2494
S'irons'
p2487
sI2495
S'shown'
p2488
sI2496
S'opened'
p2489
sI2497
S'space'
p2490
sI2498
S'hastily'
p2491
sI2499
S'looking'
p2492
sI2500
S'wholeheartedly'
p2493
sI2501
S'receiving'
p2494
sI2502
S'shows'
p2495
sI2503
S'screw'
p2496
sI2504
S'cars'
p2497
sI2505
S'cart'
p2498
sI2506
S'grimacing'
p2499
sI2507
S'ominous'
p2500
sI2508
S'card'
p2501
sI2509
S'care'
p2502
sI2510
S'cycles'
p2503
sI2511
S'tangled'
p2504
sI2512
S'sarcastically'
p2505
sI2513
S'tennis'
p2506
sI2514
S'striking'
p2507
sI2515
S'flipping'
p2508
sI2516
S'blink'
p2509
sI2517
S'directly'
p2510
sI2518
S'hairstyles'
p2511
sI2519
S'rind'
p2512
sI2520
S'message'
p2513
sI2521
S'drove'
p2514
sI2522
S'weightlifter'
p2515
sI2523
S'guitarists'
p2516
sI2524
S'sheep'
p2517
sI2525
S'sheer'
p2518
sI2526
S'checked'
p2519
sI2527
S'silent'
p2520
sI2528
S'caught'
p2521
sI2529
S'traction'
p2522
sI2530
S'carousel'
p2523
sI2531
S'friend'
p2524
sI2532
S'shampooed'
p2525
sI2533
S'poms'
p2526
sI2534
S'flowery'
p2527
sI2535
S'inmates'
p2528
sI2536
S'quad'
p2529
sI2537
S'flowers'
p2530
sI2538
S'than'
p2531
sI2539
S'professionals'
p2532
sI2540
S'television'
p2533
sI2541
S'karate'
p2534
sI2542
S'vocals'
p2535
sI2543
S'apples'
p2536
sI2544
S'cymbals'
p2537
sI2545
S'fruits'
p2538
sI2546
S'grooms'
p2539
sI2547
S'decapitates'
p2540
sI2548
S'angel'
p2541
sI2549
S'slap'
p2542
sI2550
S'contortion'
p2543
sI2551
S'slam'
p2544
sI2552
S'distorted'
p2545
sI2553
S'anger'
p2546
sI2554
S'spurting'
p2547
sI2555
S'breakfast'
p2548
sI2556
S'recover'
p2549
sI2557
S'snorting'
p2550
sI2558
S'offering'
p2551
sI2559
S'skidding'
p2552
sI2560
S'snout'
p2553
sI2561
S'equipment'
p2554
sI2562
S'hookah'
p2555
sI2563
S'dread'
p2556
sI2564
S'begin'
p2557
sI2565
S'sledge'
p2558
sI2566
S'america'
p2559
sI2567
S'egg'
p2560
sI2568
S'sidekick'
p2561
sI2569
S'steady'
p2562
sI2570
S'tooth'
p2563
sI2571
S'ferrari'
p2564
sI2572
S'clearing'
p2565
sI2573
S'conservatively'
p2566
sI2574
S'professional'
p2567
sI2575
S'washcloth'
p2568
sI2576
S'podiums'
p2569
sI2577
S'fifty'
p2570
sI2578
S'sheepdogs'
p2571
sI2579
S'fifth'
p2572
sI2580
S'ground'
p2573
sI2581
S'snack'
p2574
sI2582
S'gauges'
p2575
sI2583
S'stair'
p2576
sI2584
S'challenge'
p2577
sI2585
S'stained'
p2578
sI2586
S'only'
p2579
sI2587
S'onlooker'
p2580
sI2588
S'pumpkin'
p2581
sI2589
S'bracelets'
p2582
sI2590
S'celebrate'
p2583
sI2591
S'leather'
p2584
sI2592
S'hikers'
p2585
sI2593
S'reels'
p2586
sI2594
S'concert'
p2587
sI2595
S'burst'
p2588
sI2596
S'physically'
p2589
sI2597
S'asleep'
p2590
sI2598
S'sport'
p2591
sI2599
S'palette'
p2592
sI2600
S'3'
sI2601
S'between'
p2593
sI2602
S'clench'
p2594
sI2603
S'whipped'
p2595
sI2604
S'unlocks'
p2596
sI2605
S'smashed'
p2597
sI2606
S'hurts'
p2598
sI2607
S'article'
p2599
sI2608
S'talented'
p2600
sI2609
S'reluctantly'
p2601
sI2610
S'wheels'
p2602
sI2611
S'comes'
p2603
sI2612
S'nearby'
p2604
sI2613
S'snuggle'
p2605
sI2614
S'jeans'
p2606
sI2615
S'learning'
p2607
sI2616
S'pigtails'
p2608
sI2617
S'sledding'
p2609
sI2618
S'shimmies'
p2610
sI2619
S'cycling'
p2611
sI2620
S'lioness'
p2612
sI2621
S'reenacting'
p2613
sI2622
S'tropical'
p2614
sI2623
S'fours'
p2615
sI2624
S'language'
p2616
sI2625
S'rubs'
p2617
sI2626
S'rucksacks'
p2618
sI2627
S'foggy'
p2619
sI2628
S'skiers'
p2620
sI2629
S'prehistoric'
p2621
sI2630
S'crumb'
p2622
sI2631
S'developing'
p2623
sI2632
S'these'
p2624
sI2633
S'winks'
p2625
sI2634
S'trick'
p2626
sI2635
S'joke'
p2627
sI2636
S'recorders'
p2628
sI2637
S'inflatable'
p2629
sI2638
S'startling'
p2630
sI2639
S'embrace'
p2631
sI2640
S'heels'
p2632
sI2641
S'waterway'
p2633
sI2642
S'helium'
p2634
sI2643
S'ship'
p2635
sI2644
S'figurine'
p2636
sI2645
S'angered'
p2637
sI2646
S'coworkers'
p2638
sI2647
S'sweeper'
p2639
sI2648
S'finish'
p2640
sI2649
S'foal'
p2641
sI2650
S'foam'
p2642
sI2651
S'cymbal'
p2643
sI2652
S'fruit'
p2644
sI2653
S'investigates'
p2645
sI2654
S'puff'
p2646
sI2655
S'alligators'
p2647
sI2656
S'passing'
p2648
sI2657
S'theater'
p2649
sI2658
S'traps'
p2650
sI2659
S'charges'
p2651
sI2660
S'breezy'
p2652
sI2661
S'severe'
p2653
sI2662
S'breeze'
p2654
sI2663
S'taxi'
p2655
sI2664
S'choreography'
p2656
sI2665
S'clings'
p2657
sI2666
S'armour'
p2658
sI2667
S'dancers'
p2659
sI2668
S'neon'
p2660
sI2669
S'shouts'
p2661
sI2670
S'foot'
p2662
sI2671
S'wrecks'
p2663
sI2672
S'crowns'
p2664
sI2673
S'touch'
p2665
sI2674
S'co'
p2666
sI2675
S'speed'
p2667
sI2676
S'dueling'
p2668
sI2677
S'mingling'
p2669
sI2678
S'snowboarder'
p2670
sI2679
S'provocatively'
p2671
sI2680
S'thinking'
p2672
sI2681
S'desktop'
p2673
sI2682
S'treatment'
p2674
sI2683
S'struck'
p2675
sI2684
S'instructions'
p2676
sI2685
S'real'
p2677
sI2686
S'propped'
p2678
sI2687
S'frown'
p2679
sI2688
S'read'
p2680
sI2689
S'stools'
p2681
sI2690
S'amf'
p2682
sI2691
S'early'
p2683
sI2692
S'overlooks'
p2684
sI2693
S'listening'
p2685
sI2694
S'using'
p2686
sI2695
S'lady'
p2687
sI2696
S'rear'
p2688
sI2697
S'barbells'
p2689
sI2698
S'conversing'
p2690
sI2699
S'cheerily'
p2691
sI2700
S'conducts'
p2692
sI2701
S'greeting'
p2693
sI2702
S't'
sI2703
S'animating'
p2694
sI2704
S'downward'
p2695
sI2705
S'twelve'
p2696
sI2706
S'hacks'
p2697
sI2707
S'exposes'
p2698
sI2708
S'bobbed'
p2699
sI2709
S'rehearsing'
p2700
sI2710
S'cleanser'
p2701
sI2711
S'recorded'
p2702
sI2712
S'recorder'
p2703
sI2713
S'wheat'
p2704
sI2714
S'pylons'
p2705
sI2715
S'business'
p2706
sI2716
S'sixth'
p2707
sI2717
S'chefs'
p2708
sI2718
S'volkswagen'
p2709
sI2719
S'morphs'
p2710
sI2720
S'seducing'
p2711
sI2721
S'sniffs'
p2712
sI2722
S'papered'
p2713
sI2723
S'sixty'
p2714
sI2724
S'flinches'
p2715
sI2725
S'exciting'
p2716
sI2726
S'throw'
p2717
sI2727
S'patent'
p2718
sI2728
S'beseeches'
p2719
sI2729
S'paints'
p2720
sI2730
S'chop'
p2721
sI2731
S'escalating'
p2722
sI2732
S'supervised'
p2723
sI2733
S'backup'
p2724
sI2734
S'daringly'
p2725
sI2735
S'barrels'
p2726
sI2736
S'earring'
p2727
sI2737
S'stare'
p2728
sI2738
S'log'
p2729
sI2739
S'area'
p2730
sI2740
S'removing'
p2731
sI2741
S'stark'
p2732
sI2742
S'start'
p2733
sI2743
S'cats'
p2734
sI2744
S'low'
p2735
sI2745
S'stars'
p2736
sI2746
S'pitcher'
p2737
sI2747
S'pitches'
p2738
sI2748
S'curiously'
p2739
sI2749
S'recoil'
p2740
sI2750
S'cottage'
p2741
sI2751
S'trying'
p2742
sI2752
S'toned'
p2743
sI2753
S'bucket'
p2744
sI2754
S'sadness'
p2745
sI2755
S'tutus'
p2746
sI2756
S'wrestlers'
p2747
sI2757
S'juggles'
p2748
sI2758
S'scanner'
p2749
sI2759
S'sunroof'
p2750
sI2760
S'moved'
p2751
sI2761
S'sales'
p2752
sI2762
S'loops'
p2753
sI2763
S'pickax'
p2754
sI2764
S'sheath'
p2755
sI2765
S'mover'
p2756
sI2766
S'moves'
p2757
sI2767
S'tyrannosaurus'
p2758
sI2768
S'storage'
p2759
sI2769
S'milking'
p2760
sI2770
S'forcing'
p2761
sI2771
S'gaining'
p2762
sI2772
S'suites'
p2763
sI2773
S'pear'
p2764
sI2774
S'wields'
p2765
sI2775
S'podium'
p2766
sI2776
S'poof'
p2767
sI2777
S'peak'
p2768
sI2778
S'suited'
p2769
sI2779
S'torches'
p2770
sI2780
S'banners'
p2771
sI2781
S'pool'
p2772
sI2782
S'building'
p2773
sI2783
S'vines'
p2774
sI2784
S'moonlight'
p2775
sI2785
S'bystander'
p2776
sI2786
S'embracing'
p2777
sI2787
S'strings'
p2778
sI2788
S'skeleton'
p2779
sI2789
S'pointing'
p2780
sI2790
S'gown'
p2781
sI2791
S'month'
p2782
sI2792
S'thoughtful'
p2783
sI2793
S'messy'
p2784
sI2794
S'inflating'
p2785
sI2795
S'headscarf'
p2786
sI2796
S'carpet'
p2787
sI2797
S'gymnast'
p2788
sI2798
S'fountain'
p2789
sI2799
S'washroom'
p2790
sI2800
S'very'
p2791
sI2801
S'horror'
p2792
sI2802
S'robes'
p2793
sI2803
S'screwdriver'
p2794
sI2804
S'balancing'
p2795
sI2805
S'decide'
p2796
sI2806
S'sexily'
p2797
sI2807
S'instigates'
p2798
sI2808
S'throbbing'
p2799
sI2809
S'locomotive'
p2800
sI2810
S'dunk'
p2801
sI2811
S'cookies'
p2802
sI2812
S'fence'
p2803
sI2813
S'streets'
p2804
sI2814
S'casual'
p2805
sI2815
S'intersection'
p2806
sI2816
S'cues'
p2807
sI2817
S'darkness'
p2808
sI2818
S'dribbling'
p2809
sI2819
S'<EOS>'
p2810
sI2820
S'skid'
p2811
sI2821
S'belching'
p2812
sI2822
S'edited'
p2813
sI2823
S'loose'
p2814
sI2824
S'answers'
p2815
sI2825
S'tracks'
p2816
sI2826
S'trunk'
p2817
sI2827
S'strong'
p2818
sI2828
S'arena'
p2819
sI2829
S'creeps'
p2820
sI2830
S'colored'
p2821
sI2831
S'ahead'
p2822
sI2832
S'losses'
p2823
sI2833
S'exceptionally'
p2824
sI2834
S'creepy'
p2825
sI2835
S'soldier'
p2826
sI2836
S'amount'
p2827
sI2837
S'trainer'
p2828
sI2838
S'limos'
p2829
sI2839
S'family'
p2830
sI2840
S'put'
p2831
sI2841
S'analyzing'
p2832
sI2842
S'aimed'
p2833
sI2843
S'trained'
p2834
sI2844
S'toys'
p2835
sI2845
S'chunks'
p2836
sI2846
S'somersaulting'
p2837
sI2847
S'takes'
p2838
sI2848
S'contains'
p2839
sI2849
S'bicycles'
p2840
sI2850
S'taken'
p2841
sI2851
S'autographs'
p2842
sI2852
S'chestnut'
p2843
sI2853
S'lowering'
p2844
sI2854
S'propellers'
p2845
sI2855
S'fussed'
p2846
sI2856
S'broke'
p2847
sI2857
S'mounted'
p2848
sI2858
S'producing'
p2849
sI2859
S'grill'
p2850
sI2860
S'thorns'
p2851
sI2861
S'sweeps'
p2852
sI2862
S'f1'
p2853
sI2863
S'pushes'
p2854
sI2864
S'pushed'
p2855
sI2865
S'cows'
p2856
sI2866
S'phrase'
p2857
sI2867
S'hamburgers'
p2858
sI2868
S'terribly'
p2859
sI2869
S'chops'
p2860
sI2870
S'wigs'
p2861
sI2871
S'tried'
p2862
sI2872
S'rude'
p2863
sI2873
S'communicating'
p2864
sI2874
S'sneak'
p2865
sI2875
S'tries'
p2866
sI2876
S'purring'
p2867
sI2877
S'gasp'
p2868
sI2878
S'horizontal'
p2869
sI2879
S'a'
sI2880
S'morphing'
p2870
sI2881
S'bugs'
p2871
sI2882
S'chopsticks'
p2872
sI2883
S'scaring'
p2873
sI2884
S'dream'
p2874
sI2885
S'chicks'
p2875
sI2886
S'help'
p2876
sI2887
S'rhinos'
p2877
sI2888
S'cyclists'
p2878
sI2889
S'held'
p2879
sI2890
S'wiener'
p2880
sI2891
S'lasers'
p2881
sI2892
S'tousled'
p2882
sI2893
S'clarinet'
p2883
sI2894
S'fanning'
p2884
sI2895
S'quiff'
p2885
sI2896
S'carpeted'
p2886
sI2897
S'overhead'
p2887
sI2898
S'solving'
p2888
sI2899
S'peanuts'
p2889
sI2900
S'fool'
p2890
sI2901
S'evening'
p2891
sI2902
S'groping'
p2892
sI2903
S'yo'
p2893
sI2904
S'food'
p2894
sI2905
S'doughnuts'
p2895
sI2906
S'petted'
p2896
sI2907
S'cupcake'
p2897
sI2908
S'peeing'
p2898
sI2909
S'sweeping'
p2899
sI2910
S'ninja'
p2900
sI2911
S'develops'
p2901
sI2912
S'desperately'
p2902
sI2913
S'stopper'
p2903
sI2914
S'fully'
p2904
sI2915
S'did'
p2905
sI2916
S'stopped'
p2906
sI2917
S'fairy'
p2907
sI2918
S'trailer'
p2908
sI2919
S'heavy'
p2909
sI2920
S'positioned'
p2910
sI2921
S'beyond'
p2911
sI2922
S'event'
p2912
sI2923
S'surrounded'
p2913
sI2924
S'safety'
p2914
sI2925
S'issue'
p2915
sI2926
S'mittens'
p2916
sI2927
S'smock'
p2917
sI2928
S'overturns'
p2918
sI2929
S'bass'
p2919
sI2930
S'protruding'
p2920
sI2931
S'dirt'
p2921
sI2932
S'pug'
p2922
sI2933
S'pub'
p2923
sI2934
S'houses'
p2924
sI2935
S'reason'
p2925
sI2936
S'base'
p2926
sI2937
S'ask'
p2927
sI2938
S'ash'
p2928
sI2939
S'pup'
p2929
sI2940
S'dishwasher'
p2930
sI2941
S'launch'
p2931
sI2942
S'lemur'
p2932
sI2943
S'cheering'
p2933
sI2944
S'american'
p2934
sI2945
S'daisy'
p2935
sI2946
S'interviews'
p2936
sI2947
S'buffaloes'
p2937
sI2948
S'knocking'
p2938
sI2949
S'rails'
p2939
sI2950
S'mist'
p2940
sI2951
S'miss'
p2941
sI2952
S'horse'
p2942
sI2953
S'airborne'
p2943
sI2954
S'pinned'
p2944
sI2955
S'station'
p2945
sI2956
S'fingernail'
p2946
sI2957
S'hundred'
p2947
sI2958
S'banana'
p2948
sI2959
S'passed'
p2949
sI2960
S'trapped'
p2950
sI2961
S'jamie'
p2951
sI2962
S'jordan'
p2952
sI2963
S'signaling'
p2953
sI2964
S'sign'
p2954
sI2965
S'leotard'
p2955
sI2966
S'grocery'
p2956
sI2967
S'performers'
p2957
sI2968
S'grey'
p2958
sI2969
S'bride'
p2959
sI2970
S'toward'
p2960
sI2971
S'weapon'
p2961
sI2972
S'shirts'
p2962
sI2973
S'mickey'
p2963
sI2974
S'chipmunk'
p2964
sI2975
S'alongside'
p2965
sI2976
S'juice'
p2966
sI2977
S'concentration'
p2967
sI2978
S'sensual'
p2968
sI2979
S'lid'
p2969
sI2980
S'lie'
p2970
sI2981
S'koala'
p2971
sI2982
S'flaming'
p2972
sI2983
S'officers'
p2973
sI2984
S'camouflage'
p2974
sI2985
S'lit'
p2975
sI2986
S'swallowing'
p2976
sI2987
S'lip'
p2977
sI2988
S'nightie'
p2978
sI2989
S'arks'
p2979
sI2990
S'towards'
p2980
sI2991
S'eaten'
p2981
sI2992
S'mobile'
p2982
sI2993
S'clear'
p2983
sI2994
S'snapping'
p2984
sI2995
S'drawing'
p2985
sI2996
S'tongs'
p2986
sI2997
S'clean'
p2987
sI2998
S'tubes'
p2988
sI2999
S'hips'
p2989
sI3000
S'giggles'
p2990
sI3001
S'stunned'
p2991
sI3002
S'flicker'
p2992
sI3003
S'celebrities'
p2993
sI3004
S'barbell'
p2994
sI3005
S'crayon'
p2995
sI3006
S'flicked'
p2996
sI3007
S'gelled'
p2997
sI3008
S'northern'
p2998
sI3009
S'scooter'
p2999
sI3010
S'necking'
p3000
sI3011
S'flights'
p3001
sI3012
S'pretty'
p3002
sI3013
S'circle'
p3003
sI3014
S'porcupine'
p3004
sI3015
S'meanwhile'
p3005
sI3016
S'trees'
p3006
sI3017
S'strut'
p3007
sI3018
S'famous'
p3008
sI3019
S'capsule'
p3009
sI3020
S'strum'
p3010
sI3021
S'competing'
p3011
sI3022
S'boils'
p3012
sI3023
S'during'
p3013
sI3024
S'footballers'
p3014
sI3025
S'imitating'
p3015
sI3026
S'molten'
p3016
sI3027
S'fluff'
p3017
sI3028
S'catcher'
p3018
sI3029
S'withe'
p3019
sI3030
S'celebrates'
p3020
sI3031
S'perfume'
p3021
sI3032
S'gloves'
p3022
sI3033
S'corgi'
p3023
sI3034
S'crams'
p3024
sI3035
S'throwing'
p3025
sI3036
S'close'
p3026
sI3037
S'embarking'
p3027
sI3038
S'deploying'
p3028
sI3039
S'patties'
p3029
sI3040
S'pictures'
p3030
sI3041
S'wow'
p3031
sI3042
S'pictured'
p3032
sI3043
S'unconscious'
p3033
sI3044
S'missing'
p3034
sI3045
S'zipped'
p3035
sI3046
S'fenced'
p3036
sI3047
S'spray'
p3037
sI3048
S'invisible'
p3038
sI3049
S'zipper'
p3039
sI3050
S'abruptly'
p3040
sI3051
S'both'
p3041
sI3052
S'sensitive'
p3042
sI3053
S'eggplant'
p3043
sI3054
S'boxers'
p3044
sI3055
S'headed'
p3045
sI3056
S'cuts'
p3046
sI3057
S'whatever'
p3047
sI3058
S'skips'
p3048
sI3059
S'likes'
p3049
sI3060
S'vessel'
p3050
sI3061
S'catwalk'
p3051
sI3062
S'unaided'
p3052
sI3063
S'damp'
p3053
sI3064
S'mauls'
p3054
sI3065
S'tearfully'
p3055
sI3066
S'territory'
p3056
sI3067
S'empty'
p3057
sI3068
S'clipped'
p3058
sI3069
S'packs'
p3059
sI3070
S'wet'
p3060
sI3071
S'else'
p3061
sI3072
S'lives'
p3062
sI3073
S'intriguing'
p3063
sI3074
S'loom'
p3064
sI3075
S'look'
p3065
sI3076
S'rope'
p3066
sI3077
S'pace'
p3067
sI3078
S'while'
p3068
sI3079
S'match'
p3069
sI3080
S'animated'
p3070
sI3081
S'alike'
p3071
sI3082
S'erupting'
p3072
sI3083
S'reads'
p3073
sI3084
S'terminator'
p3074
sI3085
S'loosened'
p3075
sI3086
S'ready'
p3076
sI3087
S'speechlessly'
p3077
sI3088
S'fedora'
p3078
sI3089
S'makeshift'
p3079
sI3090
S'checking'
p3080
sI3091
S'madly'
p3081
sI3092
S'grand'
p3082
sI3093
S'hocking'
p3083
sI3094
S'hallway'
p3084
sI3095
S'used'
p3085
sI3096
S'overweight'
p3086
sI3097
S'youngsters'
p3087
sI3098
S'uses'
p3088
sI3099
S'cleaning'
p3089
sI3100
S'haunting'
p3090
sI3101
S'plugs'
p3091
sI3102
S'flirty'
p3092
sI3103
S'nylon'
p3093
sI3104
S'older'
p3094
sI3105
S'docked'
p3095
sI3106
S'obviously'
p3096
sI3107
S'clears'
p3097
sI3108
S'grossly'
p3098
sI3109
S'distances'
p3099
sI3110
S'lobsters'
p3100
sI3111
S'chord'
p3101
sI3112
S'powering'
p3102
sI3113
S'quarters'
p3103
sI3114
S'praying'
p3104
sI3115
S'afro'
p3105
sI3116
S'cocks'
p3106
sI3117
S'scrunches'
p3107
sI3118
S'cemetery'
p3108
sI3119
S'exercising'
p3109
sI3120
S'conjures'
p3110
sI3121
S'remaining'
p3111
sI3122
S'march'
p3112
sI3123
S'showing'
p3113
sI3124
S'enthusiastically'
p3114
sI3125
S'game'
p3115
sI3126
S'wings'
p3116
sI3127
S'vests'
p3117
sI3128
S'signal'
p3118
sI3129
S'eel'
p3119
sI3130
S'provoking'
p3120
sI3131
S'sofa'
p3121
sI3132
S'popular'
p3122
sI3133
S'cones'
p3123
sI3134
S'brakes'
p3124
sI3135
S'some'
p3125
sI3136
S'yolk'
p3126
sI3137
S'lips'
p3127
sI3138
S'entwining'
p3128
sI3139
S'trendy'
p3129
sI3140
S'clinking'
p3130
sI3141
S'describing'
p3131
sI3142
S'spouting'
p3132
sI3143
S'signifies'
p3133
sI3144
S'hairband'
p3134
sI3145
S'pounding'
p3135
sI3146
S'everybody'
p3136
sI3147
S'eating'
p3137
sI3148
S'rum'
p3138
sI3149
S'rub'
p3139
sI3150
S'rug'
p3140
sI3151
S'stem'
p3141
sI3152
S'step'
p3142
sI3153
S'alleyway'
p3143
sI3154
S'raspberry'
p3144
sI3155
S'shine'
p3145
sI3156
S'heel'
p3146
sI3157
S'positive'
p3147
sI3158
S'messaging'
p3148
sI3159
S'shiny'
p3149
sI3160
S'block'
p3150
sI3161
S'seeing'
p3151
sI3162
S'within'
p3152
sI3163
S'sprawled'
p3153
sI3164
S'rolls'
p3154
sI3165
S'smells'
p3155
sI3166
S'scenarios'
p3156
sI3167
S'placing'
p3157
sI3168
S'caresses'
p3158
sI3169
S'himself'
p3159
sI3170
S'dips'
p3160
sI3171
S'properly'
p3161
sI3172
S'toucan'
p3162
sI3173
S'russian'
p3163
sI3174
S'injection'
p3164
sI3175
S'collapses'
p3165
sI3176
S'skull'
p3166
sI3177
S'stumbling'
p3167
sI3178
S'sifting'
p3168
sI3179
S'cautiously'
p3169
sI3180
S'similar'
p3170
sI3181
S'adults'
p3171
sI3182
S'cotton'
p3172
sI3183
S'traditional'
p3173
sI3184
S'tito'
p3174
sI3185
S'upstage'
p3175
sI3186
S'nap'
p3176
sI3187
S'electrical'
p3177
sI3188
S'department'
p3178
sI3189
S'aprons'
p3179
sI3190
S'pandas'
p3180
sI3191
S'smiles'
p3181
sI3192
S'draw'
p3182
sI3193
S'spectators'
p3183
sI3194
S'crouching'
p3184
sI3195
S'lunging'
p3185
sI3196
S'drag'
p3186
sI3197
S'smiled'
p3187
sI3198
S'formal'
p3188
sI3199
S'restrained'
p3189
sI3200
S'earphones'
p3190
sI3201
S'zooming'
p3191
sI3202
S'blend'
p3192
sI3203
S'outing'
p3193
sI3204
S'bleached'
p3194
sI3205
S'pamphlets'
p3195
sI3206
S'downing'
p3196
sI3207
S'clenches'
p3197
sI3208
S'berries'
p3198
sI3209
S'avoid'
p3199
sI3210
S'doorstop'
p3200
sI3211
S'nuns'
p3201
sI3212
S'desserts'
p3202
sI3213
S'helped'
p3203
sI3214
S'go'
p3204
sI3215
S'compact'
p3205
sI3216
S'wizard'
p3206
sI3217
S'mosque'
p3207
sI3218
S'suits'
p3208
sI3219
S'suite'
p3209
sI3220
S'friendly'
p3210
sI3221
S'flinging'
p3211
sI3222
S'walled'
p3212
sI3223
S'fishnet'
p3213
sI3224
S'kitty'
p3214
sI3225
S'wave'
p3215
sI3226
S'wavy'
p3216
sI3227
S'trough'
p3217
sI3228
S'cellular'
p3218
sI3229
S'telling'
p3219
sI3230
S'exits'
p3220
sI3231
S'snowboards'
p3221
sI3232
S'positions'
p3222
sI3233
S'button'
p3223
sI3234
S'michael'
p3224
sI3235
S'ryan'
p3225
sI3236
S'comforts'
p3226
sI3237
S'booty'
p3227
sI3238
S'boots'
p3228
sI3239
S'waking'
p3229
sI3240
S'jump'
p3230
sI3241
S'noise'
p3231
sI3242
S'booth'
p3232
sI3243
S'picked'
p3233
sI3244
S'poke'
p3234
sI3245
S'plays'
p3235
sI3246
S'paintings'
p3236
sI3247
S'wallet'
p3237
sI3248
S'espresso'
p3238
sI3249
S'vampire'
p3239
sI3250
S'valet'
p3240
sI3251
S'cell'
p3241
sI3252
S'experiment'
p3242
sI3253
S'poles'
p3243
sI3254
S'commercial'
p3244
sI3255
S'pancake'
p3245
sI3256
S'ponytails'
p3246
sI3257
S'products'
p3247
sI3258
S'wig'
p3248
sI3259
S'examining'
p3249
sI3260
S'addresses'
p3250
sI3261
S'win'
p3251
sI3262
S'sparklers'
p3252
sI3263
S'manage'
p3253
sI3264
S'wii'
p3254
sI3265
S'wit'
p3255
sI3266
S'gimmick'
p3256
sI3267
S'singing'
p3257
sI3268
S'cloud'
p3258
sI3269
S'handfuls'
p3259
sI3270
S'strapped'
p3260
sI3271
S'clatters'
p3261
sI3272
S'remains'
p3262
sI3273
S'congratulated'
p3263
sI3274
S'coldly'
p3264
sI3275
S'crab'
p3265
sI3276
S'vehicle'
p3266
sI3277
S'hiding'
p3267
sI3278
S'reflects'
p3268
sI3279
S'cheeks'
p3269
sI3280
S'popped'
p3270
sI3281
S'formally'
p3271
sI3282
S'started'
p3272
sI3283
S'becomes'
p3273
sI3284
S'missile'
p3274
sI3285
S'crosses'
p3275
sI3286
S'arched'
p3276
sI3287
S'salad'
p3277
sI3288
S'ride'
p3278
sI3289
S'donut'
p3279
sI3290
S'arches'
p3280
sI3291
S'crossed'
p3281
sI3292
S'meet'
p3282
sI3293
S'drops'
p3283
sI3294
S'control'
p3284
sI3295
S'escapes'
p3285
sI3296
S'ferrets'
p3286
sI3297
S'halloween'
p3287
sI3298
S'pulling'
p3288
sI3299
S'suds'
p3289
sI3300
S'hit'
p3290
sI3301
S'drainpipe'
p3291
sI3302
S'skirt'
p3292
sI3303
S'fearsome'
p3293
sI3304
S'letterbox'
p3294
sI3305
S'filament'
p3295
sI3306
S'circular'
p3296
sI3307
S'furiously'
p3297
sI3308
S'farm'
p3298
sI3309
S'peeling'
p3299
sI3310
S'feels'
p3300
sI3311
S'scoop'
p3301
sI3312
S'bakery'
p3302
sI3313
S'crazed'
p3303
sI3314
S'scoot'
p3304
sI3315
S'bathing'
p3305
sI3316
S'pretending'
p3306
sI3317
S'basement'
p3307
sI3318
S'including'
p3308
sI3319
S'costume'
p3309
sI3320
S'outer'
p3310
sI3321
S'broom'
p3311
sI3322
S'notebooks'
p3312
sI3323
S'youngster'
p3313
sI3324
S'gymnasts'
p3314
sI3325
S'sword'
p3315
sI3326
S'auto'
p3316
sI3327
S'catches'
p3317
sI3328
S'ticker'
p3318
sI3329
S'pins'
p3319
sI3330
S'gloved'
p3320
sI3331
S'hands'
p3321
sI3332
S'front'
p3322
sI3333
S'slide'
p3323
sI3334
S'crossing'
p3324
sI3335
S'shaking'
p3325
sI3336
S'upward'
p3326
sI3337
S'showering'
p3327
sI3338
S'globe'
p3328
sI3339
S'mas'
p3329
sI3340
S'multicolored'
p3330
sI3341
S'measure'
p3331
sI3342
S'separating'
p3332
sI3343
S'laundry'
p3333
sI3344
S'special'
p3334
sI3345
S'armor'
p3335
sI3346
S'may'
p3336
sI3347
S'playground'
p3337
sI3348
S'wick'
p3338
sI3349
S'cause'
p3339
sI3350
S'umbrella'
p3340
sI3351
S'reacts'
p3341
sI3352
S'undressing'
p3342
sI3353
S'clenching'
p3343
sI3354
S'completely'
p3344
sI3355
S'x'
sI3356
S'drowning'
p3345
sI3357
S'wheeling'
p3346
sI3358
S'headbutt'
p3347
sI3359
S'keep'
p3348
sI3360
S'stride'
p3349
sI3361
S'wading'
p3350
sI3362
S'projectile'
p3351
sI3363
S'sabers'
p3352
sI3364
S'mad'
p3353
sI3365
S'powerful'
p3354
sI3366
S'disapproval'
p3355
sI3367
S'stump'
p3356
sI3368
S'horseman'
p3357
sI3369
S'bears'
p3358
sI3370
S'squinting'
p3359
sI3371
S'wrapper'
p3360
sI3372
S'attach'
p3361
sI3373
S'attack'
p3362
sI3374
S'fells'
p3363
sI3375
S'wrapped'
p3364
sI3376
S'jellyfish'
p3365
sI3377
S'tourists'
p3366
sI3378
S'beard'
p3367
sI3379
S'fuzzy'
p3368
sI3380
S'herself'
p3369
sI3381
S'newlywed'
p3370
sI3382
S'waist'
p3371
sI3383
S'photograph'
p3372
sI3384
S'dapple'
p3373
sI3385
S'thrashing'
p3374
sI3386
S'yawned'
p3375
sI3387
S'bed'
p3376
sI3388
S'bee'
p3377
sI3389
S'firework'
p3378
sI3390
S'bare'
p3379
sI3391
S'sultry'
p3380
sI3392
S'bet'
p3381
sI3393
S'exhibit'
p3382
sI3394
S'villains'
p3383
sI3395
S'lightly'
p3384
sI3396
S'carrots'
p3385
sI3397
S'portrait'
p3386
sI3398
S'tale'
p3387
sI3399
S'microphone'
p3388
sI3400
S'chatting'
p3389
sI3401
S'able'
p3390
sI3402
S'battles'
p3391
sI3403
S'sprinkled'
p3392
sI3404
S'truck'
p3393
sI3405
S'detector'
p3394
sI3406
S'coke'
p3395
sI3407
S'blades'
p3396
sI3408
S'lectures'
p3397
sI3409
S'passionately'
p3398
sI3410
S'plugging'
p3399
sI3411
S'parenting'
p3400
sI3412
S'connected'
p3401
sI3413
S'awe'
p3402
sI3414
S'cellphone'
p3403
sI3415
S'stereo'
p3404
sI3416
S'scrambles'
p3405
sI3417
S'urn'
p3406
sI3418
S'indy'
p3407
sI3419
S'scrambled'
p3408
sI3420
S'lowered'
p3409
sI3421
S'talk'
p3410
sI3422
S'wreaked'
p3411
sI3423
S'emerging'
p3412
sI3424
S'kiddie'
p3413
sI3425
S'indoor'
p3414
sI3426
S'crate'
p3415
sI3427
S'hovering'
p3416
sI3428
S'parked'
p3417
sI3429
S'ottoman'
p3418
sI3430
S'shoes'
p3419
sI3431
S'partners'
p3420
sI3432
S'based'
p3421
sI3433
S'tire'
p3422
sI3434
S'winner'
p3423
sI3435
S'employee'
p3424
sI3436
S'surfs'
p3425
sI3437
S'worktop'
p3426
sI3438
S'dodge'
p3427
sI3439
S'slows'
p3428
sI3440
S'sipping'
p3429
sI3441
S'joint'
p3430
sI3442
S'joins'
p3431
sI3443
S'sassy'
p3432
sI3444
S'scrolling'
p3433
sI3445
S'gray'
p3434
sI3446
S'trucks'
p3435
sI3447
S'shy'
p3436
sI3448
S'dishing'
p3437
sI3449
S'she'
p3438
sI3450
S'wish'
p3439
sI3451
S'fasteners'
p3440
sI3452
S'grab'
p3441
sI3453
S'widow'
p3442
sI3454
S'spotted'
p3443
sI3455
S'prayers'
p3444
sI3456
S'hardwood'
p3445
sI3457
S'pitch'
p3446
sI3458
S'humans'
p3447
sI3459
S'freeze'
p3448
sI3460
S'computer'
p3449
sI3461
S'powder'
p3450
sI3462
S'whinnying'
p3451
sI3463
S'unshaven'
p3452
sI3464
S'written'
p3453
sI3465
S'correctly'
p3454
sI3466
S'masking'
p3455
sI3467
S'chipmunks'
p3456
sI3468
S'juggle'
p3457
sI3469
S'tent'
p3458
sI3470
S'ken'
p3459
sI3471
S'barreling'
p3460
sI3472
S'munching'
p3461
sI3473
S'buckets'
p3462
sI3474
S'kicking'
p3463
sI3475
S'blinked'
p3464
sI3476
S'merry'
p3465
sI3477
S'police'
p3466
sI3478
S'hits'
p3467
sI3479
S'defense'
p3468
sI3480
S'sniff'
p3469
sI3481
S'aqua'
p3470
sI3482
S'jersey'
p3471
sI3483
S'torn'
p3472
sI3484
S'spandex'
p3473
sI3485
S'kings'
p3474
sI3486
S'heimlich'
p3475
sI3487
S'sari'
p3476
sI3488
S'tread'
p3477
sI3489
S'addition'
p3478
sI3490
S'disintegrate'
p3479
sI3491
S'polka'
p3480
sI3492
S'frenetically'
p3481
sI3493
S'slowly'
p3482
sI3494
S'treat'
p3483
sI3495
S'shoulders'
p3484
sI3496
S'controlled'
p3485
sI3497
S'hoisted'
p3486
sI3498
S'releasing'
p3487
sI3499
S'topless'
p3488
sI3500
S'controller'
p3489
sI3501
S'kicks'
p3490
sI3502
S'smoking'
p3491
sI3503
S'digger'
p3492
sI3504
S'pix'
p3493
sI3505
S'hesitant'
p3494
sI3506
S'cough'
p3495
sI3507
S'examines'
p3496
sI3508
S'surface'
p3497
sI3509
S'examined'
p3498
sI3510
S'swinging'
p3499
sI3511
S'claps'
p3500
sI3512
S'bucks'
p3501
sI3513
S'capture'
p3502
sI3514
S'shooting'
p3503
sI3515
S'balloon'
p3504
sI3516
S'roman'
p3505
sI3517
S'campus'
p3506
sI3518
S'parts'
p3507
sI3519
S'speaker'
p3508
sI3520
S'underground'
p3509
sI3521
S'party'
p3510
sI3522
S'tapped'
p3511
sI3523
S'fireman'
p3512
sI3524
S'effect'
p3513
sI3525
S'gestures'
p3514
sI3526
S'parachutist'
p3515
sI3527
S'steals'
p3516
sI3528
S'weld'
p3517
sI3529
S'reflection'
p3518
sI3530
S'lunch'
p3519
sI3531
S'obstacles'
p3520
sI3532
S'well'
p3521
sI3533
S'rink'
p3522
sI3534
S'drone'
p3523
sI3535
S'flexing'
p3524
sI3536
S'taller'
p3525
sI3537
S'spastic'
p3526
sI3538
S'distant'
p3527
sI3539
S'skill'
p3528
sI3540
S'mysterious'
p3529
sI3541
S'grappling'
p3530
sI3542
S'lures'
p3531
sI3543
S'battery'
p3532
sI3544
S'lured'
p3533
sI3545
S'extends'
p3534
sI3546
S'morgue'
p3535
sI3547
S'riverside'
p3536
sI3548
S'balloons'
p3537
sI3549
S'kick'
p3538
sI3550
S'clouded'
p3539
sI3551
S'sonic'
p3540
sI3552
S'ledge'
p3541
sI3553
S'fate'
p3542
sI3554
S'propelled'
p3543
sI3555
S'unseen'
p3544
sI3556
S'bottoms'
p3545
sI3557
S'propeller'
p3546
sI3558
S'crushes'
p3547
sI3559
S'crusher'
p3548
sI3560
S'lost'
p3549
sI3561
S'sizes'
p3550
sI3562
S'starry'
p3551
sI3563
S'revving'
p3552
sI3564
S'candy'
p3553
sI3565
S'sized'
p3554
sI3566
S'lose'
p3555
sI3567
S'page'
p3556
sI3568
S'climbers'
p3557
sI3569
S'shed'
p3558
sI3570
S'crisps'
p3559
sI3571
S'scuffle'
p3560
sI3572
S'library'
p3561
sI3573
S'home'
p3562
sI3574
S'competitor'
p3563
sI3575
S'steaming'
p3564
sI3576
S'demonstrates'
p3565
sI3577
S'kettle'
p3566
sI3578
S'injects'
p3567
sI3579
S'grinding'
p3568
sI3580
S'tadpole'
p3569
sI3581
S'cradle'
p3570
sI3582
S'medieval'
p3571
sI3583
S'reaching'
p3572
sI3584
S'goatee'
p3573
sI3585
S'journal'
p3574
sI3586
S'shakily'
p3575
sI3587
S'sways'
p3576
sI3588
S'cleans'
p3577
sI3589
S'nightclub'
p3578
sI3590
S'beige'
p3579
sI3591
S'puppies'
p3580
sI3592
S'tongue'
p3581
sI3593
S'readjusts'
p3582
sI3594
S'mushrooms'
p3583
sI3595
S'artists'
p3584
sI3596
S'strategy'
p3585
sI3597
S'gerbil'
p3586
sI3598
S'museum'
p3587
sI3599
S'reciprocate'
p3588
sI3600
S'funnily'
p3589
sI3601
S'protectors'
p3590
sI3602
S'synthesizer'
p3591
sI3603
S'inner'
p3592
sI3604
S'notices'
p3593
sI3605
S'drumstick'
p3594
sI3606
S'cricket'
p3595
sI3607
S'chinning'
p3596
sI3608
S'fountains'
p3597
sI3609
S'hi'
p3598
sI3610
S'sprinkling'
p3599
sI3611
S'overflow'
p3600
sI3612
S'ear'
p3601
sI3613
S'eat'
p3602
sI3614
S'he'
p3603
sI3615
S'hosting'
p3604
sI3616
S'rumba'
p3605
sI3617
S'carriage'
p3606
sI3618
S'cello'
p3607
sI3619
S'suggestively'
p3608
sI3620
S'piece'
p3609
sI3621
S'display'
p3610
sI3622
S'penny'
p3611
sI3623
S'kisses'
p3612
sI3624
S'twist'
p3613
sI3625
S'utensils'
p3614
sI3626
S'beats'
p3615
sI3627
S'crystals'
p3616
sI3628
S'kissed'
p3617
sI3629
S'balcony'
p3618
sI3630
S'contest'
p3619
sI3631
S'fencing'
p3620
sI3632
S'offensive'
p3621
sI3633
S'meteor'
p3622
sI3634
S'suspiciously'
p3623
sI3635
S'jamming'
p3624
sI3636
S'derails'
p3625
sI3637
S'star'
p3626
sI3638
S'emerges'
p3627
sI3639
S'stay'
p3628
sI3640
S'foil'
p3629
sI3641
S'stab'
p3630
sI3642
S'candyfloss'
p3631
sI3643
S'friends'
p3632
sI3644
S'amp'
p3633
sI3645
S'amputated'
p3634
sI3646
S'furrowing'
p3635
sI3647
S'powdery'
p3636
sI3648
S'dynamic'
p3637
sI3649
S'protest'
p3638
sI3650
S'asian'
p3639
sI3651
S'captain'
p3640
sI3652
S'whose'
p3641
sI3653
S'buddy'
p3642
sI3654
S'swam'
p3643
sI3655
S'presents'
p3644
sI3656
S'swat'
p3645
sI3657
S'swap'
p3646
sI3658
S'trousers'
p3647
sI3659
S'teaching'
p3648
sI3660
S'sway'
p3649
sI3661
S'assembles'
p3650
sI3662
S'fists'
p3651
sI3663
S'cruising'
p3652
sI3664
S'rescue'
p3653
sI3665
S'vase'
p3654
sI3666
S'smack'
p3655
sI3667
S'sleek'
p3656
sI3668
S'vast'
p3657
sI3669
S'snowflakes'
p3658
sI3670
S'clothed'
p3659
sI3671
S'convenience'
p3660
sI3672
S'mopped'
p3661
sI3673
S'ups'
p3662
sI3674
S'clothes'
p3663
sI3675
S'uncovers'
p3664
sI3676
S'force'
p3665
sI3677
S'quilt'
p3666
sI3678
S'chaises'
p3667
sI3679
S'japanese'
p3668
sI3680
S'gator'
p3669
sI3681
S'subordinate'
p3670
sI3682
S'even'
p3671
sI3683
S'trapping'
p3672
sI3684
S'wreck'
p3673
sI3685
S'orchestra'
p3674
sI3686
S'bikini'
p3675
sI3687
S'asia'
p3676
sI3688
S'lights'
p3677
sI3689
S'new'
p3678
sI3690
S'net'
p3679
sI3691
S'helmets'
p3680
sI3692
S'screams'
p3681
sI3693
S'pancakes'
p3682
sI3694
S'men'
p3683
sI3695
S'weirdly'
p3684
sI3696
S'drew'
p3685
sI3697
S'pumping'
p3686
sI3698
S'active'
p3687
sI3699
S'cardboard'
p3688
sI3700
S'dry'
p3689
sI3701
S'disintegrates'
p3690
sI3702
S'rests'
p3691
sI3703
S'piercing'
p3692
sI3704
S'ignoring'
p3693
sI3705
S'taped'
p3694
sI3706
S'floorboards'
p3695
sI3707
S'pack'
p3696
sI3708
S'eyebrows'
p3697
sI3709
S'heeled'
p3698
sI3710
S'digitally'
p3699
sI3711
S'besides'
p3700
sI3712
S'slices'
p3701
sI3713
S'sliced'
p3702
sI3714
S'jackets'
p3703
sI3715
S'gorillas'
p3704
sI3716
S'landscape'
p3705
sI3717
S'scarred'
p3706
sI3718
S'army'
p3707
sI3719
S'watering'
p3708
sI3720
S'barks'
p3709
sI3721
S'arms'
p3710
sI3722
S'leaks'
p3711
sI3723
S'call'
p3712
sI3724
S'calm'
p3713
sI3725
S'twirled'
p3714
sI3726
S'type'
p3715
sI3727
S'calf'
p3716
sI3728
S'peeping'
p3717
sI3729
S'oscar'
p3718
sI3730
S'expose'
p3719
sI3731
S'343'
p3720
sI3732
S'lunge'
p3721
sI3733
S'warm'
p3722
sI3734
S'adult'
p3723
sI3735
S'blindfold'
p3724
sI3736
S'room'
p3725
sI3737
S'trots'
p3726
sI3738
S'wadding'
p3727
sI3739
S'somber'
p3728
sI3740
S'roof'
p3729
sI3741
S'suggestive'
p3730
sI3742
S'foliage'
p3731
sI3743
S'defecates'
p3732
sI3744
S'vodka'
p3733
sI3745
S'sensually'
p3734
sI3746
S'give'
p3735
sI3747
S'laughs'
p3736
sI3748
S'foods'
p3737
sI3749
S'braids'
p3738
sI3750
S'twitching'
p3739
sI3751
S'blackish'
p3740
sI3752
S'answer'
p3741
sI3753
S'butting'
p3742
sI3754
S'scooters'
p3743
sI3755
S'sportsperson'
p3744
sI3756
S'briefcase'
p3745
sI3757
S'abdomen'
p3746
sI3758
S'curiosity'
p3747
sI3759
S'passageway'
p3748
sI3760
S'waterfront'
p3749
sI3761
S'president'
p3750
sI3762
S'bushes'
p3751
sI3763
S'attemps'
p3752
sI3764
S'attempt'
p3753
sI3765
S'third'
p3754
sI3766
S'longingly'
p3755
sI3767
S'owls'
p3756
sI3768
S'goodbye'
p3757
sI3769
S'leggings'
p3758
sI3770
S'overtakes'
p3759
sI3771
S'athletes'
p3760
sI3772
S'unfolds'
p3761
sI3773
S'deck'
p3762
sI3774
S'pianos'
p3763
sI3775
S'hairnet'
p3764
sI3776
S'sheltering'
p3765
sI3777
S'keyboard'
p3766
sI3778
S'windshield'
p3767
sI3779
S'before'
p3768
sI3780
S'scoring'
p3769
sI3781
S'chihuahua'
p3770
sI3782
S'harmonica'
p3771
sI3783
S'frisks'
p3772
sI3784
S','
sI3785
S'crew'
p3773
sI3786
S'sprays'
p3774
sI3787
S'differently'
p3775
sI3788
S'personas'
p3776
sI3789
S'gents'
p3777
sI3790
S'confidently'
p3778
sI3791
S'combination'
p3779
sI3792
S'workout'
p3780
sI3793
S'caterpillar'
p3781
sI3794
S'glazed'
p3782
sI3795
S'whisk'
p3783
sI3796
S'fringed'
p3784
sI3797
S'meat'
p3785
sI3798
S'fringes'
p3786
sI3799
S'mounts'
p3787
sI3800
S'acoustic'
p3788
sI3801
S'ducking'
p3789
sI3802
S'bong'
p3790
sI3803
S'side'
p3791
sI3804
S'bone'
p3792
sI3805
S'mean'
p3793
sI3806
S'calmly'
p3794
sI3807
S'stealing'
p3795
sI3808
S'navy'
p3796
sI3809
S'dawn'
p3797
sI3810
S'bodywork'
p3798
sI3811
S'enclosure'
p3799
sI3812
S'sparkly'
p3800
sI3813
S'particles'
p3801
sI3814
S'debit'
p3802
sI3815
S'revolving'
p3803
sI3816
S'hushes'
p3804
sI3817
S'flutters'
p3805
sI3818
S'turning'
p3806
sI3819
S'ascending'
p3807
sI3820
S'struggle'
p3808
sI3821
S'beanies'
p3809
sI3822
S'mistress'
p3810
sI3823
S'aisle'
p3811
sI3824
S'starts'
p3812
sI3825
S'shush'
p3813
sI3826
S'steward'
p3814
sI3827
S'murky'
p3815
sI3828
S'swiping'
p3816
sI3829
S'loud'
p3817
sI3830
S'features'
p3818
sI3831
S'hoop'
p3819
sI3832
S'twitches'
p3820
sI3833
S'comforted'
p3821
sI3834
S'buttock'
p3822
sI3835
S'hook'
p3823
sI3836
S'featured'
p3824
sI3837
S'floors'
p3825
sI3838
S'disappearing'
p3826
sI3839
S'comforter'
p3827
sI3840
S'twitched'
p3828
sI3841
S'ditch'
p3829
sI3842
S'hood'
p3830
sI3843
S'struts'
p3831
sI3844
S'girls'
p3832
sI3845
S'twisted'
p3833
sI3846
S'bouncing'
p3834
sI3847
S'gym'
p3835
sI3848
S'digs'
p3836
sI3849
S'dilates'
p3837
sI3850
S'stocking'
p3838
sI3851
S'begins'
p3839
sI3852
S'distance'
p3840
sI3853
S'matter'
p3841
sI3854
S'fabulous'
p3842
sI3855
S'silly'
p3843
sI3856
S'speaking'
p3844
sI3857
S'childlike'
p3845
sI3858
S'knights'
p3846
sI3859
S'mini'
p3847
sI3860
S'mink'
p3848
sI3861
S'sees'
p3849
sI3862
S'bounces'
p3850
sI3863
S'modern'
p3851
sI3864
S'ginger'
p3852
sI3865
S'seed'
p3853
sI3866
S'seen'
p3854
sI3867
S'seem'
p3855
sI3868
S'grind'
p3856
sI3869
S'seek'
p3857
sI3870
S'tells'
p3858
sI3871
S'fitting'
p3859
sI3872
S'chess'
p3860
sI3873
S'musketeers'
p3861
sI3874
S'hoods'
p3862
sI3875
S'panties'
p3863
sI3876
S'wrists'
p3864
sI3877
S'buggies'
p3865
sI3878
S'rappers'
p3866
sI3879
S'phonograph'
p3867
sI3880
S'grins'
p3868
sI3881
S'regular'
p3869
sI3882
S'es'
p3870
sI3883
S'medical'
p3871
sI3884
S'nighttime'
p3872
sI3885
S'dog'
p3873
sI3886
S'breathes'
p3874
sI3887
S'competitors'
p3875
sI3888
S'points'
p3876
sI3889
S'hamming'
p3877
sI3890
S'dos'
p3878
sI3891
S'annoyed'
p3879
sI3892
S'dot'
p3880
sI3893
S'roaster'
p3881
sI3894
S'ending'
p3882
sI3895
S'attempts'
p3883
sI3896
S'sown'
p3884
sI3897
S'stepping'
p3885
sI3898
S'sneaking'
p3886
sI3899
S'judges'
p3887
sI3900
S'explain'
p3888
sI3901
S'folded'
p3889
sI3902
S'sugar'
p3890
sI3903
S'celery'
p3891
sI3904
S'stabbing'
p3892
sI3905
S'folder'
p3893
sI3906
S'wearing'
p3894
sI3907
S'tiles'
p3895
sI3908
S'glaciers'
p3896
sI3909
S'colorful'
p3897
sI3910
S'frameqalacing'
p3898
sI3911
S'stop'
p3899
sI3912
S'coast'
p3900
sI3913
S'patted'
p3901
sI3914
S'watermelon'
p3902
sI3915
S'tiled'
p3903
sI3916
S'smug'
p3904
sI3917
S'bat'
p3905
sI3918
S'bar'
p3906
sI3919
S'fields'
p3907
sI3920
S'thrusts'
p3908
sI3921
S'disco'
p3909
sI3922
S'bag'
p3910
sI3923
S'bad'
p3911
sI3924
S'softly'
p3912
sI3925
S'troop'
p3913
sI3926
S'ban'
p3914
sI3927
S'ears'
p3915
sI3928
S'fluffs'
p3916
sI3929
S'decides'
p3917
sI3930
S'imitate'
p3918
sI3931
S'fluffy'
p3919
sI3932
S'testing'
p3920
sI3933
S'mournfully'
p3921
sI3934
S'pebbles'
p3922
sI3935
S'said'
p3923
sI3936
S'coats'
p3924
sI3937
S'sail'
p3925
sI3938
S'artificial'
p3926
sI3939
S'smacks'
p3927
sI3940
S'pets'
p3928
sI3941
S'baboon'
p3929
sI3942
S'lethargic'
p3930
sI3943
S'warrior'
p3931
sI3944
S'lazy'
p3932
sI3945
S'wears'
p3933
sI3946
S'vacuuming'
p3934
sI3947
S'lotion'
p3935
sI3948
S'modeling'
p3936
sI3949
S'picking'
p3937
sI3950
S'against'
p3938
sI3951
S'peddling'
p3939
sI3952
S'motioning'
p3940
sI3953
S'appeared'
p3941
sI3954
S'awesomely'
p3942
sI3955
S'lanterns'
p3943
sI3956
S'drilled'
p3944
sI3957
S'loaded'
p3945
sI3958
S'putt'
p3946
sI3959
S'immobile'
p3947
sI3960
S'puts'
p3948
sI3961
S'three'
p3949
sI3962
S'tiny'
p3950
sI3963
S'trigger'
p3951
sI3964
S'basin'
p3952
sI3965
S'lovely'
p3953
sI3966
S'threw'
p3954
sI3967
S'brandishing'
p3955
sI3968
S'deeper'
p3956
sI3969
S'mushroom'
p3957
sI3970
S'sunshine'
p3958
sI3971
S'locations'
p3959
sI3972
S'houseplants'
p3960
sI3973
S'tapping'
p3961
sI3974
S'tank'
p3962
sI3975
S'reddish'
p3963
sI3976
S'say'
p3964
sI3977
S'ugly'
p3965
sI3978
S'near'
p3966
sI3979
S'melted'
p3967
sI3980
S'camouflages'
p3968
sI3981
S'balance'
p3969
sI3982
S'employees'
p3970
sI3983
S'seven'
p3971
sI3984
S'cane'
p3972
sI3985
S'is'
p3973
sI3986
S'it'
p3974
sI3987
S'fakes'
p3975
sI3988
S'sequined'
p3976
sI3989
S'cans'
p3977
sI3990
S'in'
p3978
sI3991
S'mouse'
p3979
sI3992
S'id'
p3980
sI3993
S'disappear'
p3981
sI3994
S'if'
p3982
sI3995
S'grown'
p3983
sI3996
S'waging'
p3984
sI3997
S'bottles'
p3985
sI3998
S'shimmering'
p3986
sI3999
S'occupied'
p3987
sI4000
S'make'
p3988
sI4001
S'polaroid'
p3989
sI4002
S'changed'
p3990
sI4003
S'belly'
p3991
sI4004
S'vegetable'
p3992
sI4005
S'filtered'
p3993
sI4006
S'shoveling'
p3994
sI4007
S'sidelines'
p3995
sI4008
S'grows'
p3996
sI4009
S'bells'
p3997
sI4010
S'vibrates'
p3998
sI4011
S'meets'
p3999
sI4012
S'bearded'
p4000
sI4013
S'scarfs'
p4001
sI4014
S'kit'
p4002
sI4015
S'delight'
p4003
sI4016
S'waterfall'
p4004
sI4017
S'garlic'
p4005
sI4018
S'unicorn'
p4006
sI4019
S'thoughts'
p4007
sI4020
S'kid'
p4008
sI4021
S'butter'
p4009
sI4022
S'practiced'
p4010
sI4023
S'smokey'
p4011
sI4024
S'settled'
p4012
sI4025
S'fashionable'
p4013
sI4026
S'smokes'
p4014
sI4027
S'smoker'
p4015
sI4028
S'bedspread'
p4016
sI4029
S'practices'
p4017
sI4030
S'tombstone'
p4018
sI4031
S'butted'
p4019
sI4032
S'warriors'
p4020
sI4033
S'flops'
p4021
sI4034
S'pooping'
p4022
sI4035
S'left'
p4023
sI4036
S'just'
p4024
sI4037
S'sporting'
p4025
sI4038
S'offs'
p4026
sI4039
S'somethings'
p4027
sI4040
S'fighters'
p4028
sI4041
S'transforms'
p4029
sI4042
S'human'
p4030
sI4043
S'yes'
p4031
sI4044
S'tattooed'
p4032
sI4045
S'sunflower'
p4033
sI4046
S'agile'
p4034
sI4047
S'faceof'
p4035
sI4048
S'character'
p4036
sI4049
S'catsuit'
p4037
sI4050
S'save'
p4038
sI4051
S'trimming'
p4039
sI4052
S'sailors'
p4040
sI4053
S'gyrating'
p4041
sI4054
S'background'
p4042
sI4055
S'destroy'
p4043
sI4056
S'feelings'
p4044
sI4057
S'shoulder'
p4045
sI4058
S'waddling'
p4046
sI4059
S'nude'
p4047
sI4060
S'performing'
p4048
sI4061
S'switching'
p4049
sI4062
S'zombies'
p4050
sI4063
S'pillar'
p4051
sI4064
S'somehow'
p4052
sI4065
S'dead'
p4053
sI4066
S'intern'
p4054
sI4067
S'fingering'
p4055
sI4068
S'pain'
p4056
sI4069
S'tripped'
p4057
sI4070
S'theatrical'
p4058
sI4071
S'dense'
p4059
sI4072
S'carts'
p4060
sI4073
S'daytime'
p4061
sI4074
S'arguing'
p4062
sI4075
S'onlooking'
p4063
sI4076
S'skateboarder'
p4064
sI4077
S'burn'
p4065
sI4078
S'boll'
p4066
sI4079
S'sleigh'
p4067
sI4080
S'bolt'
p4068
sI4081
S'keeper'
p4069
sI4082
S'super'
p4070
sI4083
S'dunking'
p4071
sI4084
S'yelling'
p4072
sI4085
S'assault'
p4073
sI4086
S'magazine'
p4074
sI4087
S'crucifix'
p4075
sI4088
S'wintertime'
p4076
sI4089
S'automatically'
p4077
sI4090
S'gloss'
p4078
sI4091
S'managers'
p4079
sI4092
S'chimp'
p4080
sI4093
S'chooses'
p4081
sI4094
S'down'
p4082
sI4095
S'lies'
p4083
sI4096
S'carving'
p4084
sI4097
S'frightened'
p4085
sI4098
S'snorts'
p4086
sI4099
S'weathered'
p4087
sI4100
S'amazingly'
p4088
sI4101
S'flying'
p4089
sI4102
S'avatar'
p4090
sI4103
S'victorious'
p4091
sI4104
S'fork'
p4092
sI4105
S'form'
p4093
sI4106
S'forks'
p4094
sI4107
S'fireworks'
p4095
sI4108
S'landing'
p4096
sI4109
S'diaper'
p4097
sI4110
S'fort'
p4098
sI4111
S'prevents'
p4099
sI4112
S'outsmarting'
p4100
sI4113
S'attached'
p4101
sI4114
S'blueberry'
p4102
sI4115
S'boomerang'
p4103
sI4116
S'attaches'
p4104
sI4117
S'grenades'
p4105
sI4118
S'refection'
p4106
sI4119
S'sticks'
p4107
sI4120
S'classic'
p4108
sI4121
S'toss'
p4109
sI4122
S'covers'
p4110
sI4123
S'sticky'
p4111
sI4124
S'fashioned'
p4112
sI4125
S'floating'
p4113
sI4126
S'marking'
p4114
sI4127
S'agreeing'
p4115
sI4128
S'leafless'
p4116
sI4129
S'tossing'
p4117
sI4130
S'handed'
p4118
sI4131
S'warehouse'
p4119
sI4132
S'ribbons'
p4120
sI4133
S'compactor'
p4121
sI4134
S'dies'
p4122
sI4135
S'felt'
p4123
sI4136
S'grassland'
p4124
sI4137
S'fell'
p4125
sI4138
S'shatters'
p4126
sI4139
S'pizzas'
p4127
sI4140
S'unlocking'
p4128
sI4141
S'derail'
p4129
sI4142
S'happening'
p4130
sI4143
S'potato'
p4131
sI4144
S'blushing'
p4132
sI4145
S'jacket'
p4133
sI4146
S'gorilla'
p4134
sI4147
S'stripping'
p4135
sI4148
S'teeth'
p4136
sI4149
S'themed'
p4137
sI4150
S'skip'
p4138
sI4151
S'skis'
p4139
sI4152
S'manager'
p4140
sI4153
S'manages'
p4141
sI4154
S'skin'
p4142
sI4155
S'mill'
p4143
sI4156
S'bomber'
p4144
sI4157
S'milk'
p4145
sI4158
S'burnout'
p4146
sI4159
S'technique'
p4147
sI4160
S'father'
p4148
sI4161
S'finally'
p4149
sI4162
S'marks'
p4150
sI4163
S'advises'
p4151
sI4164
S'string'
p4152
sI4165
S'congratulating'
p4153
sI4166
S'piggybacking'
p4154
sI4167
S'ma'
p4155
sI4168
S'dim'
p4156
sI4169
S'biceps'
p4157
sI4170
S'swapping'
p4158
sI4171
S'malamute'
p4159
sI4172
S'die'
p4160
sI4173
S'dig'
p4161
sI4174
S'accidentally'
p4162
sI4175
S'travels'
p4163
sI4176
S'item'
p4164
sI4177
S'brownish'
p4165
sI4178
S'grimace'
p4166
sI4179
S'dip'
p4167
sI4180
S'round'
p4168
sI4181
S'attracting'
p4169
sI4182
S'talked'
p4170
sI4183
S'undoes'
p4171
sI4184
S'sneakily'
p4172
sI4185
S'refusing'
p4173
sI4186
S'run'
p4174
sI4187
S'targets'
p4175
sI4188
S'vandalized'
p4176
sI4189
S'sweaters'
p4177
sI4190
S'filled'
p4178
sI4191
S'growls'
p4179
sI4192
S'makeup'
p4180
sI4193
S'french'
p4181
sI4194
S'frosting'
p4182
sI4195
S'earthquake'
p4183
sI4196
S'wait'
p4184
sI4197
S'box'
p4185
sI4198
S'boy'
p4186
sI4199
S'bot'
p4187
sI4200
S'bow'
p4188
sI4201
S'simultaneous'
p4189
sI4202
S'boo'
p4190
sI4203
S'raccoon'
p4191
sI4204
S'boa'
p4192
sI4205
S'bob'
p4193
sI4206
S'shook'
p4194
sI4207
S'bruised'
p4195
sI4208
S'massage'
p4196
sI4209
S'teenage'
p4197
sI4210
S'kayak'
p4198
sI4211
S'stiletto'
p4199
sI4212
S'lamppost'
p4200
sI4213
S'verge'
p4201
sI4214
S'sweating'
p4202
sI4215
S'lockers'
p4203
sI4216
S'stoops'
p4204
sI4217
S'dude'
p4205
sI4218
S'vineyard'
p4206
sI4219
S'creamy'
p4207
sI4220
S'somersault'
p4208
sI4221
S'creams'
p4209
sI4222
S'sharing'
p4210
sI4223
S'mouthing'
p4211
sI4224
S'tandem'
p4212
sI4225
S'olive'
p4213
sI4226
S'effort'
p4214
sI4227
S'robe'
p4215
sI4228
S'capturing'
p4216
sI4229
S'fly'
p4217
sI4230
S'demolish'
p4218
sI4231
S'deformed'
p4219
sI4232
S'avoiding'
p4220
sI4233
S'androgynous'
p4221
sI4234
S'soup'
p4222
sI4235
S'drags'
p4223
sI4236
S'growing'
p4224
sI4237
S'making'
p4225
sI4238
S'excitedly'
p4226
sI4239
S'bites'
p4227
sI4240
S'crazy'
p4228
sI4241
S'confused'
p4229
sI4242
S'agent'
p4230
sI4243
S'drawer'
p4231
sI4244
S'battered'
p4232
sI4245
S'whirls'
p4233
sI4246
S'pink'
p4234
sI4247
S'woodpecker'
p4235
sI4248
S'tilt'
p4236
sI4249
S'necklaces'
p4237
sI4250
S'ping'
p4238
sI4251
S'till'
p4239
sI4252
S'emotionless'
p4240
sI4253
S'skater'
p4241
sI4254
S'skates'
p4242
sI4255
S'tile'
p4243
sI4256
S'pathway'
p4244
sI4257
S'map'
p4245
sI4258
S'staying'
p4246
sI4259
S'designer'
p4247
sI4260
S'mat'
p4248
sI4261
S'strokes'
p4249
sI4262
S'max'
p4250
sI4263
S'fed'
p4251
sI4264
S'designed'
p4252
sI4265
S'mocks'
p4253
sI4266
S'tablecloth'
p4254
sI4267
S'guys'
p4255
sI4268
S'grow'
p4256
sI4269
S'man'
p4257
sI4270
S'scrambling'
p4258
sI4271
S'neck'
p4259
sI4272
S'q'
sI4273
S'switch'
p4260
sI4274
S'jail'
p4261
sI4275
S'african'
p4262
sI4276
S'basket'
p4263
sI4277
S'tall'
p4264
sI4278
S'gesture'
p4265
sI4279
S'cute'
p4266
sI4280
S'shield'
p4267
sI4281
S'pointed'
p4268
sI4282
S'shake'
p4269
sI4283
S'marshmallows'
p4270
sI4284
S'pointer'
p4271
sI4285
S'group'
p4272
sI4286
S'monitor'
p4273
sI4287
S'interesting'
p4274
sI4288
S'yorkshire'
p4275
sI4289
S'maid'
p4276
sI4290
S'listing'
p4277
sI4291
S'mail'
p4278
sI4292
S'main'
p4279
sI4293
S'piglets'
p4280
sI4294
S'views'
p4281
sI4295
S'killer'
p4282
sI4296
S'boats'
p4283
sI4297
S'touching'
p4284
sI4298
S'markings'
p4285
sI4299
S'rattles'
p4286
sI4300
S'arrows'
p4287
sI4301
S'rock'
p4288
sI4302
S'showcasing'
p4289
sI4303
S'elephants'
p4290
sI4304
S'treacherous'
p4291
sI4305
S'unlock'
p4292
sI4306
S'girl'
p4293
sI4307
S'pucks'
p4294
sI4308
S'living'
p4295
sI4309
S'jackson'
p4296
sI4310
S'ymca'
p4297
sI4311
S'correct'
p4298
sI4312
S'monster'
p4299
sI4313
S'sideways'
p4300
sI4314
S'gagging'
p4301
sI4315
S'spies'
p4302
sI4316
S'vinyl'
p4303
sI4317
S'headband'
p4304
sI4318
S'underwear'
p4305
sI4319
S'carnival'
p4306
sI4320
S'waiter'
p4307
sI4321
S'headphones'
p4308
sI4322
S'contented'
p4309
sI4323
S'thing'
p4310
sI4324
S'blacksmith'
p4311
sI4325
S'think'
p4312
sI4326
S'first'
p4313
sI4327
S'cheese'
p4314
sI4328
S'fleeing'
p4315
sI4329
S'lone'
p4316
sI4330
S'gargling'
p4317
sI4331
S'crib'
p4318
sI4332
S'long'
p4319
sI4333
S'suspended'
p4320
sI4334
S'carry'
p4321
sI4335
S'little'
p4322
sI4336
S'meaningful'
p4323
sI4337
S'slept'
p4324
sI4338
S'headdress'
p4325
sI4339
S'fiery'
p4326
sI4340
S'mermaid'
p4327
sI4341
S'douse'
p4328
sI4342
S'eyes'
p4329
sI4343
S'massaged'
p4330
sI4344
S'buts'
p4331
sI4345
S'eyed'
p4332
sI4346
S'butt'
p4333
sI4347
S'bobs'
p4334
sI4348
S'10'
p4335
sI4349
S'cracks'
p4336
sI4350
S'sailing'
p4337
sI4351
S'19'
p4338
sI4352
S'scraping'
p4339
sI4353
S'knives'
p4340
sI4354
S'were'
p4341
sI4355
S'tractor'
p4342
sI4356
S'gathering'
p4343
sI4357
S'lick'
p4344
sI4358
S'marijuana'
p4345
sI4359
S'winding'
p4346
sI4360
S'comedian'
p4347
sI4361
S'pastry'
p4348
sI4362
S'mitts'
p4349
sI4363
S'speakers'
p4350
sI4364
S'hooded'
p4351
sI4365
S'answering'
p4352
sI4366
S'shocked'
p4353
sI4367
S'squad'
p4354
sI4368
S'interior'
p4355
sI4369
S'performance'
p4356
sI4370
S'pranks'
p4357
sI4371
S'collapsed'
p4358
sI4372
S'channel'
p4359
sI4373
S'skinned'
p4360
sI4374
S'straightening'
p4361
sI4375
S'pail'
p4362
sI4376
S'normal'
p4363
sI4377
S'track'
p4364
sI4378
S'beta'
p4365
sI4379
S'sheets'
p4366
sI4380
S'pair'
p4367
sI4381
S'tugging'
p4368
sI4382
S'surprising'
p4369
sI4383
S'fills'
p4370
sI4384
S'wreathed'
p4371
sI4385
S'napkin'
p4372
sI4386
S'gracefully'
p4373
sI4387
S'order'
p4374
sI4388
S'stockings'
p4375
sI4389
S'hedgehog'
p4376
sI4390
S'trotted'
p4377
sI4391
S'shop'
p4378
sI4392
S'shot'
p4379
sI4393
S'show'
p4380
sI4394
S'contemporary'
p4381
sI4395
S'shoe'
p4382
sI4396
S'corner'
p4383
sI4397
S'curled'
p4384
sI4398
S'fend'
p4385
sI4399
S'dice'
p4386
sI4400
S'stormy'
p4387
sI4401
S'plume'
p4388
sI4402
S'behind'
p4389
sI4403
S'either'
p4390
sI4404
S'black'
p4391
sI4405
S'incredulous'
p4392
sI4406
S'defenders'
p4393
sI4407
S'plump'
p4394
sI4408
S'hippo'
p4395
sI4409
S'savoring'
p4396
sI4410
S'get'
p4397
sI4411
S'hostage'
p4398
sI4412
S'stomp'
p4399
sI4413
S'spraying'
p4400
sI4414
S'hailed'
p4401
sI4415
S'nearly'
p4402
sI4416
S'teens'
p4403
sI4417
S'keyboards'
p4404
sI4418
S'morning'
p4405
sI4419
S'stupid'
p4406
sI4420
S'finishing'
p4407
sI4421
S'silently'
p4408
sI4422
S'ballroom'
p4409
sI4423
S'seat'
p4410
sI4424
S'cocktails'
p4411
sI4425
S'seal'
p4412
sI4426
S'wonder'
p4413
sI4427
S'camping'
p4414
sI4428
S'ornament'
p4415
sI4429
S'label'
p4416
sI4430
S'pump'
p4417
sI4431
S'chimpanzees'
p4418
sI4432
S'chews'
p4419
sI4433
S'geometric'
p4420
sI4434
S'reading'
p4421
sI4435
S'across'
p4422
sI4436
S'tux'
p4423
sI4437
S'parent'
p4424
sI4438
S'killing'
p4425
sI4439
S'tum'
p4426
sI4440
S'singers'
p4427
sI4441
S'tub'
p4428
sI4442
S'tug'
p4429
sI4443
S'bopping'
p4430
sI4444
S'rugby'
p4431
sI4445
S'tuck'
p4432
sI4446
S'trades'
p4433
sI4447
S'according'
p4434
sI4448
S'restroom'
p4435
sI4449
S'disappointment'
p4436
sI4450
S'awards'
p4437
sI4451
S'holders'
p4438
sI4452
S'among'
p4439
sI4453
S'stretches'
p4440
sI4454
S'stretcher'
p4441
sI4455
S'stretched'
p4442
sI4456
S'pacifier'
p4443
sI4457
S'arts'
p4444
sI4458
S'caricature'
p4445
sI4459
S'tuning'
p4446
sI4460
S'undershirt'
p4447
sI4461
S'mark'
p4448
sI4462
S'attaching'
p4449
sI4463
S'shopping'
p4450
sI4464
S'graveyard'
p4451
sI4465
S'offered'
p4452
sI4466
S'laptops'
p4453
sI4467
S'spills'
p4454
sI4468
S'wake'
p4455
sI4469
S'those'
p4456
sI4470
S'sound'
p4457
sI4471
S'stacked'
p4458
sI4472
S'turtles'
p4459
sI4473
S'romping'
p4460
sI4474
S'profiles'
p4461
sI4475
S"n't"
p4462
sI4476
S'ignition'
p4463
sI4477
S'coco'
p4464
sI4478
S'investigating'
p4465
sI4479
S'slapping'
p4466
sI4480
S'cock'
p4467
sI4481
S'eventually'
p4468
sI4482
S'rubbing'
p4469
sI4483
S'coffee'
p4470
sI4484
S'sleeping'
p4471
sI4485
S'middle'
p4472
sI4486
S'pressing'
p4473
sI4487
S'dangerously'
p4474
sI4488
S'movements'
p4475
sI4489
S'bags'
p4476
sI4490
S'different'
p4477
sI4491
S'pat'
p4478
sI4492
S'harsh'
p4479
sI4493
S'doctor'
p4480
sI4494
S'pay'
p4481
sI4495
S'woodland'
p4482
sI4496
S'same'
p4483
sI4497
S'wizards'
p4484
sI4498
S'pad'
p4485
sI4499
S'jerking'
p4486
sI4500
S'stepped'
p4487
sI4501
S'pan'
p4488
sI4502
S'meaningfully'
p4489
sI4503
S'exhaust'
p4490
sI4504
S'extended'
p4491
sI4505
S'flexes'
p4492
sI4506
S'seagulls'
p4493
sI4507
S'companion'
p4494
sI4508
S'running'
p4495
sI4509
S'stairwell'
p4496
sI4510
S'climbing'
p4497
sI4511
S'weave'
p4498
sI4512
S'ruffling'
p4499
sI4513
S'roughly'
p4500
sI4514
S'bottle'
p4501
sI4515
S'bumping'
p4502
sI4516
S'amazed'
p4503
sI4517
S'outdoor'
p4504
sI4518
S'money'
p4505
sI4519
S'sights'
p4506
sI4520
S'dipped'
p4507
sI4521
S'pups'
p4508
sI4522
S'pile'
p4509
sI4523
S'4'
sI4524
S'pegs'
p4510
sI4525
S'pill'
p4511
sI4526
S'grip'
p4512
sI4527
S'mop'
p4513
sI4528
S'chainsaw'
p4514
sI4529
S'luring'
p4515
sI4530
S'grid'
p4516
sI4531
S'mom'
p4517
sI4532
S'railroad'
p4518
sI4533
S'aiming'
p4519
sI4534
S'blankets'
p4520
sI4535
S'grim'
p4521
sI4536
S'grin'
p4522
sI4537
S'fondling'
p4523
sI4538
S'vending'
p4524
sI4539
S'adams'
p4525
sI4540
S'serves'
p4526
sI4541
S'lightning'
p4527
sI4542
S'facing'
p4528
sI4543
S'audience'
p4529
sI4544
S'thighs'
p4530
sI4545
S'robbery'
p4531
sI4546
S'served'
p4532
sI4547
S'passionate'
p4533
sI4548
S'escalators'
p4534
sI4549
S'sneaker'
p4535
sI4550
S'doll'
p4536
sI4551
S'alternately'
p4537
sI4552
S'sneaked'
p4538
sI4553
S'images'
p4539
sI4554
S'pasture'
p4540
sI4555
S'gramophone'
p4541
sI4556
S'matching'
p4542
sI4557
S'outs'
p4543
sI4558
S'drenched'
p4544
sI4559
S'trowing'
p4545
sI4560
S'overly'
p4546
sI4561
S'panics'
p4547
sI4562
S'expressing'
p4548
sI4563
S'doggy'
p4549
sI4564
S'drenches'
p4550
sI4565
S'measuring'
p4551
sI4566
S'seconds'
p4552
sI4567
S'fitness'
p4553
sI4568
S'unusual'
p4554
sI4569
S'broken'
p4555
sI4570
S'drums'
p4556
sI4571
S'giggle'
p4557
sI4572
S'conducting'
p4558
sI4573
S'tease'
p4559
sI4574
S'roar'
p4560
sI4575
S'island'
p4561
sI4576
S'fringe'
p4562
sI4577
S'insect'
p4563
sI4578
S'mixer'
p4564
sI4579
S'mixes'
p4565
sI4580
S'pockets'
p4566
sI4581
S'mounting'
p4567
sI4582
S'mixed'
p4568
sI4583
S'road'
p4569
sI4584
S'quietly'
p4570
sI4585
S'lands'
p4571
sI4586
S'whites'
p4572
sI4587
S'spreading'
p4573
sI4588
S'skilled'
p4574
sI4589
S'splint'
p4575
sI4590
S'harness'
p4576
sI4591
S'imitates'
p4577
sI4592
S'dreaming'
p4578
sI4593
S'annoys'
p4579
sI4594
S'shells'
p4580
sI4595
S'trapeze'
p4581
sI4596
S'distracted'
p4582
sI4597
S'styling'
p4583
sI4598
S'handcuffed'
p4584
sI4599
S'lions'
p4585
sI4600
S'structure'
p4586
sI4601
S'pretends'
p4587
sI4602
S'enough'
p4588
sI4603
S'strikes'
p4589
sI4604
S'gymnasium'
p4590
sI4605
S'wiping'
p4591
sI4606
S'staircases'
p4592
sI4607
S'walkway'
p4593
sI4608
S'overhangs'
p4594
sI4609
S'shrugs'
p4595
sI4610
S'downstairs'
p4596
sI4611
S'swabs'
p4597
sI4612
S'arranged'
p4598
sI4613
S'strawberry'
p4599
sI4614
S'peeking'
p4600
sI4615
S'suitcase'
p4601
sI4616
S'grouch'
p4602
sI4617
S'affection'
p4603
sI4618
S'hanged'
p4604
sI4619
S'videos'
p4605
sI4620
S'deer'
p4606
sI4621
S'deep'
p4607
sI4622
S'fellow'
p4608
sI4623
S'grasped'
p4609
sI4624
S'file'
p4610
sI4625
S'girlfriend'
p4611
sI4626
S'cables'
p4612
sI4627
S'fill'
p4613
sI4628
S'again'
p4614
sI4629
S'pensive'
p4615
sI4630
S'personnel'
p4616
sI4631
S'drivers'
p4617
sI4632
S'field'
p4618
sI4633
S'astronaut'
p4619
sI4634
S'rollerblading'
p4620
sI4635
S'outfield'
p4621
sI4636
S'complected'
p4622
sI4637
S'shelter'
p4623
sI4638
S'important'
p4624
sI4639
S'tackle'
p4625
sI4640
S'dunked'
p4626
sI4641
S'revolve'
p4627
sI4642
S'awkwardly'
p4628
sI4643
S'sicks'
p4629
sI4644
S'gripped'
p4630
sI4645
S'remote'
p4631
sI4646
S'photos'
p4632
sI4647
S'casts'
p4633
sI4648
S'wets'
p4634
sI4649
S'tightened'
p4635
sI4650
S'resembles'
p4636
sI4651
S'husky'
p4637
sI4652
S'once'
p4638
sI4653
S'starting'
p4639
sI4654
S'growling'
p4640
sI4655
S'lapped'
p4641
sI4656
S'washed'
p4642
sI4657
S'dollar'
p4643
sI4658
S'talks'
p4644
sI4659
S'expressions'
p4645
sI4660
S'children'
p4646
sI4661
S'reluctant'
p4647
sI4662
S'shredding'
p4648
sI4663
S'uniformed'
p4649
sI4664
S'crimson'
p4650
sI4665
S'enjoying'
p4651
sI4666
S'puffs'
p4652
sI4667
S'premium'
p4653
sI4668
S'parcel'
p4654
sI4669
S'returning'
p4655
sI4670
S'puffy'
p4656
sI4671
S'fall'
p4657
sI4672
S'squirted'
p4658
sI4673
S'washing'
p4659
sI4674
S'mothers'
p4660
sI4675
S'skeletal'
p4661
sI4676
S'celebrity'
p4662
sI4677
S'disused'
p4663
sI4678
S'neighborhood'
p4664
sI4679
S'portable'
p4665
sI4680
S'grasshopper'
p4666
sI4681
S'grabs'
p4667
sI4682
S'endures'
p4668
sI4683
S'knitted'
p4669
sI4684
S'burger'
p4670
sI4685
S'zero'
p4671
sI4686
S'perspective'
p4672
sI4687
S'further'
p4673
sI4688
S'ribbon'
p4674
sI4689
S'creatures'
p4675
sI4690
S'residue'
p4676
sI4691
S'dial'
p4677
sI4692
S'stood'
p4678
sI4693
S'sweetly'
p4679
sI4694
S'wrecked'
p4680
sI4695
S'stool'
p4681
sI4696
S'overshot'
p4682
sI4697
S'exasperation'
p4683
sI4698
S'abs'
p4684
sI4699
S'everlasting'
p4685
sI4700
S'public'
p4686
sI4701
S'movement'
p4687
sI4702
S'tattoos'
p4688
sI4703
S'lightnings'
p4689
sI4704
S'surfer'
p4690
sI4705
S'puddles'
p4691
sI4706
S'ranger'
p4692
sI4707
S'threads'
p4693
sI4708
S'affectionately'
p4694
sI4709
S'meowing'
p4695
sI4710
S'awakened'
p4696
sI4711
S'search'
p4697
sI4712
S'tortoise'
p4698
sI4713
S'stretching'
p4699
sI4714
S'scurry'
p4700
sI4715
S'sofas'
p4701
sI4716
S'airport'
p4702
sI4717
S'narrow'
p4703
sI4718
S'skids'
p4704
sI4719
S'kimonos'
p4705
sI4720
S'clapping'
p4706
sI4721
S'emptied'
p4707
sI4722
S'hunching'
p4708
sI4723
S'forcibly'
p4709
sI4724
S'empties'
p4710
sI4725
S'rollover'
p4711
sI4726
S'armed'
p4712
sI4727
S'dachshund'
p4713
sI4728
S'eye'
p4714
sI4729
S'destination'
p4715
sI4730
S'two'
p4716
sI4731
S'comparing'
p4717
sI4732
S'splash'
p4718
sI4733
S'jive'
p4719
sI4734
S'raft'
p4720
sI4735
S'dunks'
p4721
sI4736
S'megaphone'
p4722
sI4737
S'wiper'
p4723
sI4738
S'wipes'
p4724
sI4739
S'pawing'
p4725
sI4740
S'diamond'
p4726
sI4741
S'engaged'
p4727
sI4742
S'chimpanzee'
p4728
sI4743
S'landed'
p4729
sI4744
S'controlling'
p4730
sI4745
S'nineteen'
p4731
sI4746
S'town'
p4732
sI4747
S'sucks'
p4733
sI4748
S'intercepted'
p4734
sI4749
S'fencer'
p4735
sI4750
S'guards'
p4736
sI4751
S'remain'
p4737
sI4752
S'dazed'
p4738
sI4753
S'tows'
p4739
sI4754
S'shark'
p4740
sI4755
S'hamburger'
p4741
sI4756
S'synchronized'
p4742
sI4757
S'prods'
p4743
sI4758
S'share'
p4744
sI4759
S'collision'
p4745
sI4760
S'numbers'
p4746
sI4761
S'sharp'
p4747
sI4762
S'!'
sI4763
S'ukulele'
p4748
sI4764
S'awkward'
p4749
sI4765
S'cocking'
p4750
sI4766
S'comfort'
p4751
sI4767
S'preening'
p4752
sI4768
S'stir'
p4753
sI4769
S'ensemble'
p4754
sI4770
S'frilly'
p4755
sI4771
S'blood'
p4756
sI4772
S'coming'
p4757
sI4773
S'response'
p4758
sI4774
S'hedgehogs'
p4759
sI4775
S'spool'
p4760
sI4776
S'chute'
p4761
sI4777
S'crowded'
p4762
sI4778
S'coat'
p4763
sI4779
S'paw'
p4764
sI4780
S'eats'
p4765
sI4781
S'bathed'
p4766
sI4782
S'dragon'
p4767
sI4783
S'deserted'
p4768
sI4784
S'redirecting'
p4769
sI4785
S'playing'
p4770
sI4786
S'infant'
p4771
sI4787
S'rifles'
p4772
sI4788
S'winged'
p4773
sI4789
S'industrial'
p4774
sI4790
S'through'
p4775
sI4791
S'lava'
p4776
sI4792
S'sleepily'
p4777
sI4793
S'clumsily'
p4778
sI4794
S'golfing'
p4779
sI4795
S'20'
p4780
sI4796
S'late'
p4781
sI4797
S'messes'
p4782
sI4798
S'speech'
p4783
sI4799
S'upping'
p4784
sI4800
S'crawls'
p4785
sI4801
S'dolls'
p4786
sI4802
S'goof'
p4787
sI4803
S'good'
p4788
sI4804
S'males'
p4789
sI4805
S'noticing'
p4790
sI4806
S'encouraging'
p4791
sI4807
S'walls'
p4792
sI4808
S'struggling'
p4793
sI4809
S'easily'
p4794
sI4810
S'huddle'
p4795
sI4811
S'pregnant'
p4796
sI4812
S'fluttered'
p4797
sI4813
S'micro'
p4798
sI4814
S'goofy'
p4799
sI4815
S'gender'
p4800
sI4816
S'biscuits'
p4801
sI4817
S'clamp'
p4802
sI4818
S'nuzzle'
p4803
sI4819
S'harm'
p4804
sI4820
S'dumbbells'
p4805
sI4821
S'delicious'
p4806
sI4822
S'house'
p4807
sI4823
S'energy'
p4808
sI4824
S'hard'
p4809
sI4825
S'beret'
p4810
sI4826
S'foxes'
p4811
sI4827
S'engaging'
p4812
sI4828
S'wiggling'
p4813
sI4829
S'fist'
p4814
sI4830
S'backpacks'
p4815
sI4831
S'thick'
p4816
sI4832
S'flower'
p4817
sI4833
S'pigeon'
p4818
sI4834
S'projected'
p4819
sI4835
S'acting'
p4820
sI4836
S'print'
p4821
sI4837
S'jacketed'
p4822
sI4838
S'foreground'
p4823
sI4839
S'devours'
p4824
sI4840
S'crouched'
p4825
sI4841
S'squished'
p4826
sI4842
S'bulls'
p4827
sI4843
S'difficulty'
p4828
sI4844
S'members'
p4829
sI4845
S'beginning'
p4830
sI4846
S'squishes'
p4831
sI4847
S'faucet'
p4832
sI4848
S'throwers'
p4833
sI4849
S'computers'
p4834
sI4850
S'snowbank'
p4835
sI4851
S'dribbles'
p4836
sI4852
S'embraces'
p4837
sI4853
S'stabs'
p4838
sI4854
S'mistakenly'
p4839
sI4855
S'jogs'
p4840
sI4856
S'instances'
p4841
sI4857
S'slithers'
p4842
sI4858
S'done'
p4843
sI4859
S'embraced'
p4844
sI4860
S'shoal'
p4845
sI4861
S'campground'
p4846
sI4862
S'plows'
p4847
sI4863
S'cups'
p4848
sI4864
S'razor'
p4849
sI4865
S'bloodied'
p4850
sI4866
S'twenty'
p4851
sI4867
S'jetty'
p4852
sI4868
S'paint'
p4853
sI4869
S'leash'
p4854
sI4870
S'compartment'
p4855
sI4871
S'lease'
p4856
sI4872
S'muscles'
p4857
sI4873
S'drapes'
p4858
sI4874
S'needle'
p4859
sI4875
S'park'
p4860
sI4876
S'draped'
p4861
sI4877
S'dentist'
p4862
sI4878
S'scantily'
p4863
sI4879
S'muscled'
p4864
sI4880
S'doctors'
p4865
sI4881
S'stirs'
p4866
sI4882
S'peaked'
p4867
sI4883
S'b'
sI4884
S'plateaus'
p4868
sI4885
S'youth'
p4869
sI4886
S'hurdling'
p4870
sI4887
S'polishing'
p4871
sI4888
S'swerve'
p4872
sI4889
S'bassinet'
p4873
sI4890
S'ages'
p4874
sI4891
S'awoken'
p4875
sI4892
S'piggybacks'
p4876
sI4893
S'smirking'
p4877
sI4894
S'showers'
p4878
sI4895
S'aged'
p4879
sI4896
S'fading'
p4880
sI4897
S'backseat'
p4881
sI4898
S'mountain'
p4882
sI4899
S'cardigan'
p4883
sI4900
S'built'
p4884
sI4901
S'dancing'
p4885
sI4902
S'pinkie'
p4886
sI4903
S'couch'
p4887
sI4904
S'flares'
p4888
sI4905
S'lifts'
p4889
sI4906
S'sweatshirts'
p4890
sI4907
S'eggs'
p4891
sI4908
S'flute'
p4892
sI4909
S'salmon'
p4893
sI4910
S'pondering'
p4894
sI4911
S'cupcakes'
p4895
sI4912
S'charm'
p4896
sI4913
S'eskimo'
p4897
sI4914
S'extremely'
p4898
sI4915
S'refrigerator'
p4899
sI4916
S'giggling'
p4900
sI4917
S'chested'
p4901
sI4918
S'drifts'
p4902
sI4919
S'weigh'
p4903
sI4920
S'dodging'
p4904
sI4921
S'fins'
p4905
sI4922
S'hugging'
p4906
sI4923
S'perches'
p4907
sI4924
S'hillside'
p4908
sI4925
S'crocheted'
p4909
sI4926
S'perched'
p4910
sI4927
S'chock'
p4911
sI4928
S'find'
p4912
sI4929
S'giant'
p4913
sI4930
S'sluggishly'
p4914
sI4931
S'nervous'
p4915
sI4932
S'ruin'
p4916
sI4933
S'unhappy'
p4917
sI4934
S'8'
sI4935
S'express'
p4918
sI4936
S'ferret'
p4919
sI4937
S'batter'
p4920
sI4938
S'silk'
p4921
sI4939
S'sill'
p4922
sI4940
S'spikes'
p4923
sI4941
S'motorcycles'
p4924
sI4942
S'tracksuit'
p4925
sI4943
S'remove'
p4926
sI4944
S'coughs'
p4927
sI4945
S'spiked'
p4928
sI4946
S'witches'
p4929
sI4947
S'scruffy'
p4930
sI4948
S'lion'
p4931
sI4949
S'individual'
p4932
sI4950
S'tender'
p4933
sI4951
S'cozy'
p4934
sI4952
S'fans'
p4935
sI4953
S'distraught'
p4936
sI4954
S'cutout'
p4937
sI4955
S'champagne'
p4938
sI4956
S'mailbox'
p4939
sI4957
S'vanishing'
p4940
sI4958
S'pepsi'
p4941
sI4959
S'drawings'
p4942
sI4960
S'prams'
p4943
sI4961
S'floats'
p4944
sI4962
S'cubes'
p4945
sI4963
S'folding'
p4946
sI4964
S'reverse'
p4947
sI4965
S'restaurant'
p4948
sI4966
S'tipping'
p4949
sI4967
S'foreign'
p4950
sI4968
S'sparring'
p4951
sI4969
S'afar'
p4952
sI4970
S'cakes'
p4953
sI4971
S'danced'
p4954
sI4972
S'point'
p4955
sI4973
S'newborn'
p4956
sI4974
S'panicking'
p4957
sI4975
S'dances'
p4958
sI4976
S'dancer'
p4959
sI4977
S'unsuccessful'
p4960
sI4978
S'expensive'
p4961
sI4979
S'patiently'
p4962
sI4980
S'platinum'
p4963
sI4981
S'weaving'
p4964
sI4982
S'raise'
p4965
sI4983
S'create'
p4966
sI4984
S'cowers'
p4967
sI4985
S'secret'
p4968
sI4986
S'dropping'
p4969
sI4987
S'peppers'
p4970
sI4988
S'meeting'
p4971
sI4989
S'slips'
p4972
sI4990
S'settling'
p4973
sI4991
S'vans'
p4974
sI4992
S'gas'
p4975
sI4993
S'gap'
p4976
sI4994
S'understand'
p4977
sI4995
S'gag'
p4978
sI4996
S'fut'
p4979
sI4997
S'fur'
p4980
sI4998
S'grains'
p4981
sI4999
S'raw'
p4982
sI5000
S'bill'
p4983
sI5001
S'eclipsed'
p4984
sI5002
S'crutch'
p4985
sI5003
S'fun'
p4986
sI5004
S'larger'
p4987
sI5005
S'violently'
p4988
sI5006
S'decoration'
p4989
sI5007
S'itself'
p4990
sI5008
S'truncheon'
p4991
sI5009
S'primping'
p4992
sI5010
S'seduce'
p4993
sI5011
S'stilettos'
p4994
sI5012
S'copying'
p4995
sI5013
S'relatively'
p4996
sI5014
S'windmill'
p4997
sI5015
S'strips'
p4998
sI5016
S'keys'
p4999
sI5017
S'stripy'
p5000
sI5018
S'leopard'
p5001
sI5019
S'desks'
p5002
sI5020
S'flurry'
p5003
sI5021
S'stripe'
p5004
sI5022
S'wheelchairs'
p5005
sI5023
S'sandals'
p5006
sI5024
S'carver'
p5007
sI5025
S'lacrosse'
p5008
sI5026
S'dark'
p5009
sI5027
S'beanie'
p5010
sI5028
S'swish'
p5011
sI5029
S'werewolf'
p5012
sI5030
S'flags'
p5013
sI5031
S'nordic'
p5014
sI5032
S'y'
sI5033
S'chemistry'
p5015
sI5034
S'howl'
p5016
sI5035
S'eyeglasses'
p5017
sI5036
S'shape'
p5018
sI5037
S'circling'
p5019
sI5038
S'jumpsuit'
p5020
sI5039
S'letting'
p5021
sI5040
S'cut'
p5022
sI5041
S'cup'
p5023
sI5042
S'disappointed'
p5024
sI5043
S'shouting'
p5025
sI5044
S'cue'
p5026
sI5045
S'deliberately'
p5027
sI5046
S'cub'
p5028
sI5047
S'wags'
p5029
sI5048
S'snap'
p5030
sI5049
S'bridal'
p5031
sI5050
S'excited'
p5032
sI5051
S'ridiculously'
p5033
sI5052
S'big'
p5034
sI5053
S'jerked'
p5035
sI5054
S'bib'
p5036
sI5055
S'bit'
p5037
sI5056
S'salutes'
p5038
sI5057
S'knock'
p5039
sI5058
S'semi'
p5040
sI5059
S'follows'
p5041
sI5060
S'disks'
p5042
sI5061
S'glove'
p5043
sI5062
S'banknotes'
p5044
sI5063
S'bamboo'
p5045
sI5064
S'walrus'
p5046
sI5065
S'humorous'
p5047
sI5066
S'inching'
p5048
sI5067
S'back'
p5049
sI5068
S'martial'
p5050
sI5069
S'ornaments'
p5051
sI5070
S'mirror'
p5052
sI5071
S'candle'
p5053
sI5072
S'minefield'
p5054
sI5073
S'jewelry'
p5055
sI5074
S'pet'
p5056
sI5075
S'pep'
p5057
sI5076
S'pen'
p5058
sI5077
S'sneakers'
p5059
sI5078
S'gallops'
p5060
sI5079
S'nose'
p5061
sI5080
S'cameraman'
p5062
sI5081
S'patient'
p5063
sI5082
S'rapping'
p5064
sI5083
S'continuing'
p5065
sI5084
S'costumes'
p5066
sI5085
S'lounges'
p5067
sI5086
S'stomps'
p5068
sI5087
S'costumed'
p5069
sI5088
S'tripping'
p5070
sI5089
S'usb'
p5071
sI5090
S'goods'
p5072
sI5091
S'graduation'
p5073
sI5092
S'piled'
p5074
sI5093
S'slams'
p5075
sI5094
S'cribs'
p5076
sI5095
S'framed'
p5077
sI5096
S'rackets'
p5078
sI5097
S'frames'
p5079
sI5098
S'downhill'
p5080
sI5099
S'jockey'
p5081
sI5100
S'grub'
p5082
sI5101
S'batons'
p5083
sI5102
S'homemade'
p5084
sI5103
S'forward'
p5085
sI5104
S'bored'
p5086
sI5105
S'opponent'
p5087
sI5106
S'adjusting'
p5088
sI5107
S'boys'
p5089
sI5108
S'calico'
p5090
sI5109
S'planet'
p5091
sI5110
S"'re"
p5092
sI5111
S'planes'
p5093
sI5112
S'groove'
p5094
sI5113
S'skittish'
p5095
sI5114
S'geese'
p5096
sI5115
S'flow'
p5097
sI5116
S'beckoning'
p5098
sI5117
S'single'
p5099
sI5118
S'curb'
p5100
sI5119
S'necks'
p5101
sI5120
S'underbellies'
p5102
sI5121
S'cafe'
p5103
sI5122
S'oval'
p5104
sI5123
S'stripper'
p5105
sI5124
S'inchworm'
p5106
sI5125
S'pecks'
p5107
sI5126
S'bubblegum'
p5108
sI5127
S'pails'
p5109
sI5128
S'kirk'
p5110
sI5129
S'dimmer'
p5111
sI5130
S'scurrying'
p5112
sI5131
S'mayonnaise'
p5113
sI5132
S'brushing'
p5114
sI5133
S'explaining'
p5115
sI5134
S'cellar'
p5116
sI5135
S'firetruck'
p5117
sI5136
S'lens'
p5118
sI5137
S'fishes'
p5119
sI5138
S'desert'
p5120
sI5139
S'wristband'
p5121
sI5140
S'overlooking'
p5122
sI5141
S'cooker'
p5123
sI5142
S'blinks'
p5124
sI5143
S'admiring'
p5125
sI5144
S'cooked'
p5126
sI5145
S'presenting'
p5127
sI5146
S'amuses'
p5128
sI5147
S'stroller'
p5129
sI5148
S'footing'
p5130
sI5149
S'amplifier'
p5131
sI5150
S'groceries'
p5132
sI5151
S'snowmobile'
p5133
sI5152
S'golfer'
p5134
sI5153
S'mitten'
p5135
sI5154
S'gyrates'
p5136
sI5155
S'peanut'
p5137
sI5156
S'mower'
p5138
sI5157
S'helps'
p5139
sI5158
S'mowed'
p5140
sI5159
S'gravel'
p5141
sI5160
S'inject'
p5142
sI5161
S'sequins'
p5143
sI5162
S'dessert'
p5144
sI5163
S'huddled'
p5145
sI5164
S'putting'
p5146
sI5165
S'splattering'
p5147
sI5166
S'entire'
p5148
sI5167
S'linoleum'
p5149
sI5168
S'knight'
p5150
sI5169
S'shock'
p5151
sI5170
S'knife'
p5152
sI5171
S'lapse'
p5153
sI5172
S'crow'
p5154
sI5173
S'uncomfortably'
p5155
sI5174
S'mural'
p5156
sI5175
S'uncomfortable'
p5157
sI5176
S'retracting'
p5158
sI5177
S'wiggled'
p5159
sI5178
S'giving'
p5160
sI5179
S'pipes'
p5161
sI5180
S'wiggles'
p5162
sI5181
S'clipboard'
p5163
sI5182
S'exercise'
p5164
sI5183
S'3d'
p5165
sI5184
S'body'
p5166
sI5185
S'sharks'
p5167
sI5186
S'exchange'
p5168
sI5187
S'baring'
p5169
sI5188
S'nimble'
p5170
sI5189
S'packing'
p5171
sI5190
S'objects'
p5172
sI5191
S'sink'
p5173
sI5192
S'others'
p5174
sI5193
S'sing'
p5175
sI5194
S'pantomimes'
p5176
sI5195
S'capsules'
p5177
sI5196
S'stalks'
p5178
sI5197
S'poured'
p5179
sI5198
S'30'
p5180
sI5199
S'climb'
p5181
sI5200
S'proof'
p5182
sI5201
S'blizzard'
p5183
sI5202
S'private'
p5184
sI5203
S'beanstalk'
p5185
sI5204
S'limb'
p5186
sI5205
S'gateway'
p5187
sI5206
S'lime'
p5188
sI5207
S'humidifier'
p5189
sI5208
S'spying'
p5190
sI5209
S'debbie'
p5191
sI5210
S'butler'
p5192
sI5211
S'themselves'
p5193
sI5212
S'disgust'
p5194
sI5213
S'trail'
p5195
sI5214
S'train'
p5196
sI5215
S'armadillo'
p5197
sI5216
S'arranging'
p5198
sI5217
S'billed'
p5199
sI5218
S'tearing'
p5200
sI5219
S'fooling'
p5201
sI5220
S'f'
sI5221
S'tunnel'
p5202
sI5222
S'carrot'
p5203
sI5223
S'smear'
p5204
sI5224
S'closing'
p5205
sI5225
S'fetch'
p5206
sI5226
S'unpacking'
p5207
sI5227
S'snacks'
p5208
sI5228
S'sanding'
p5209
sI5229
S'exclaims'
p5210
sI5230
S'bones'
p5211
sI5231
S'hoardings'
p5212
sI5232
S'hangar'
p5213
sI5233
S'lamb'
p5214
sI5234
S'curving'
p5215
sI5235
S'regains'
p5216
sI5236
S'noises'
p5217
sI5237
S'holds'
p5218
sI5238
S'grimaces'
p5219
sI5239
S'formations'
p5220
sI5240
S'lamp'
p5221
sI5241
S'forest'
p5222
sI5242
S'revs'
p5223
sI5243
S'nips'
p5224
sI5244
S'onlookers'
p5225
sI5245
S'buildings'
p5226
sI5246
S'railings'
p5227
sI5247
S'waters'
p5228
sI5248
S'collection'
p5229
sI5249
S'terrier'
p5230
sI5250
S'tracksuits'
p5231
sI5251
S'cuddling'
p5232
sI5252
S'drape'
p5233
sI5253
S'chasing'
p5234
sI5254
S'platypus'
p5235
sI5255
S'liner'
p5236
sI5256
S'trembling'
p5237
sI5257
S'minivan'
p5238
sI5258
S'furious'
p5239
sI5259
S'lined'
p5240
sI5260
S'unmade'
p5241
sI5261
S'mustache'
p5242
sI5262
S'six'
p5243
sI5263
S'symbols'
p5244
sI5264
S'hugged'
p5245
sI5265
S'horns'
p5246
sI5266
S'flattering'
p5247
sI5267
S'kneeing'
p5248
sI5268
S'bunch'
p5249
sI5269
S'bridges'
p5250
sI5270
S'twirls'
p5251
sI5271
S'burning'
p5252
sI5272
S'll'
p5253
sI5273
S'winning'
p5254
sI5274
S'squatting'
p5255
sI5275
S'dad'
p5256
sI5276
S'tickled'
p5257
sI5277
S'spell'
p5258
sI5278
S'cutting'
p5259
sI5279
S'tickles'
p5260
sI5280
S'hairdryers'
p5261
sI5281
S'day'
p5262
sI5282
S'stunts'
p5263
sI5283
S'blindfolded'
p5264
sI5284
S'reloading'
p5265
sI5285
S'slipping'
p5266
sI5286
S'lingerie'
p5267
sI5287
S'tubing'
p5268
sI5288
S'gazing'
p5269
sI5289
S'flair'
p5270
sI5290
S'activate'
p5271
sI5291
S'strip'
p5272
sI5292
S'winked'
p5273
sI5293
S'puppets'
p5274
sI5294
S'slumped'
p5275
sI5295
S'sweatshirt'
p5276
sI5296
S'sexual'
p5277
sI5297
S'popping'
p5278
sI5298
S'hippopotamus'
p5279
sI5299
S'mats'
p5280
sI5300
S'announcer'
p5281
sI5301
S'defend'
p5282
sI5302
S'rev'
p5283
sI5303
S'mate'
p5284
sI5304
S'oriental'
p5285
sI5305
S'flushing'
p5286
sI5306
S'fondly'
p5287
sI5307
S'affirming'
p5288
sI5308
S'approached'
p5289
sI5309
S'approaches'
p5290
sI5310
S'retrieves'
p5291
sI5311
S'retriever'
p5292
sI5312
S'backwards'
p5293
sI5313
S'yard'
p5294
sI5314
S'mortar'
p5295
sI5315
S'recipes'
p5296
sI5316
S'skateboard'
p5297
sI5317
S'yarn'
p5298
sI5318
S'mortal'
p5299
sI5319
S'barriers'
p5300
sI5320
S'unrolling'
p5301
sI5321
S'overshoot'
p5302
sI5322
S'sack'
p5303
sI5323
S'puppet'
p5304
sI5324
S'reached'
p5305
sI5325
S'braces'
p5306
sI5326
S'ancient'
p5307
sI5327
S'sadly'
p5308
sI5328
S'monkey'
p5309
sI5329
S'laps'
p5310
sI5330
S'pots'
p5311
sI5331
S'ripples'
p5312
sI5332
S'messing'
p5313
sI5333
S'liquor'
p5314
sI5334
S'gear'
p5315
sI5335
S'bulldog'
p5316
sI5336
S'xylophone'
p5317
sI5337
S'motionless'
p5318
sI5338
S'mantelpiece'
p5319
sI5339
S'blazers'
p5320
sI5340
S'hen'
p5321
sI5341
S'ipad'
p5322
sI5342
S'lightening'
p5323
sI5343
S'glamorous'
p5324
sI5344
S'shampoo'
p5325
sI5345
S'flashed'
p5326
sI5346
S'loves'
p5327
sI5347
S'lover'
p5328
sI5348
S'flashes'
p5329
sI5349
S'nuzzling'
p5330
sI5350
S'wakes'
p5331
sI5351
S'curves'
p5332
sI5352
S'comfortable'
p5333
sI5353
S'patting'
p5334
sI5354
S'comfortably'
p5335
sI5355
S'have'
p5336
sI5356
S'throat'
p5337
sI5357
S'curved'
p5338
sI5358
S'apparently'
p5339
sI5359
S'acceleration'
p5340
sI5360
S'mic'
p5341
sI5361
S'mid'
p5342
sI5362
S'parks'
p5343
sI5363
S'mix'
p5344
sI5364
S'takeaway'
p5345
sI5365
S'mimics'
p5346
sI5366
S'eight'
p5347
sI5367
S'handbag'
p5348
sI5368
S'stranded'
p5349
sI5369
S'absurd'
p5350
sI5370
S'skinny'
p5351
sI5371
S'planks'
p5352
sI5372
S'feline'
p5353
sI5373
S'kite'
p5354
sI5374
S'absorbing'
p5355
sI5375
S'text'
p5356
sI5376
S'rotating'
p5357
sI5377
S'gasping'
p5358
sI5378
S'sparks'
p5359
sI5379
S'scorpion'
p5360
sI5380
S'startle'
p5361
sI5381
S'controls'
p5362
sI5382
S'scuttling'
p5363
sI5383
S'prancing'
p5364
sI5384
S'emitting'
p5365
sI5385
S'discovers'
p5366
sI5386
S'photographs'
p5367
sI5387
S'beat'
p5368
sI5388
S'photography'
p5369
sI5389
S'stripes'
p5370
sI5390
S'bear'
p5371
sI5391
S'beam'
p5372
sI5392
S'bean'
p5373
sI5393
S'dribble'
p5374
sI5394
S'beak'
p5375
sI5395
S'striped'
p5376
sI5396
S'halo'
p5377
sI5397
S'areas'
p5378
sI5398
S'organ'
p5379
sI5399
S'ashtray'
p5380
sI5400
S'fixes'
p5381
sI5401
S'kilts'
p5382
sI5402
S'calling'
p5383
sI5403
S'mascara'
p5384
sI5404
S'tightening'
p5385
sI5405
S'fixed'
p5386
sI5406
S'puddle'
p5387
sI5407
S'outfielder'
p5388
sI5408
S'enhanced'
p5389
sI5409
S'racket'
p5390
sI5410
S'tuxedos'
p5391
sI5411
S'exploited'
p5392
sI5412
S'attempting'
p5393
sI5413
S'pattern'
p5394
sI5414
S'purses'
p5395
sI5415
S'hammock'
p5396
sI5416
S'patters'
p5397
sI5417
S'routine'
p5398
sI5418
S'progress'
p5399
sI5419
S'horizontally'
p5400
sI5420
S'deliver'
p5401
sI5421
S'freely'
p5402
sI5422
S'taking'
p5403
sI5423
S'agree'
p5404
sI5424
S'busted'
p5405
sI5425
S'swallow'
p5406
sI5426
S'aquarium'
p5407
sI5427
S'vent'
p5408
sI5428
S'statues'
p5409
sI5429
S'gone'
p5410
sI5430
S'denim'
p5411
sI5431
S'overcoat'
p5412
sI5432
S'teasing'
p5413
sI5433
S'gong'
p5414
sI5434
S'laugh'
p5415
sI5435
S'bespectacled'
p5416
sI5436
S'pouring'
p5417
sI5437
S'muddy'
p5418
sI5438
S'bumblebee'
p5419
sI5439
S'copies'
p5420
sI5440
S'gaze'
p5421
sI5441
S'teamwork'
p5422
sI5442
S'curtain'
p5423
sI5443
S'scribbling'
p5424
sI5444
S'antlers'
p5425
sI5445
S'perplexed'
p5426
sI5446
S'finishes'
p5427
sI5447
S'received'
p5428
sI5448
S'airplanes'
p5429
sI5449
S'preforming'
p5430
sI5450
S'al'
p5431
sI5451
S'ridden'
p5432
sI5452
S'tenderly'
p5433
sI5453
S'angles'
p5434
sI5454
S'bull'
p5435
sI5455
S'bulb'
p5436
sI5456
S'homes'
p5437
sI5457
S'plaid'
p5438
sI5458
S'splits'
p5439
sI5459
S'plain'
p5440
sI5460
S'appearance'
p5441
sI5461
S'plait'
p5442
sI5462
S'almost'
p5443
sI5463
S'squid'
p5444
sI5464
S'weighed'
p5445
sI5465
S'arrangements'
p5446
sI5466
S'haunches'
p5447
sI5467
S'watched'
p5448
sI5468
S'partner'
p5449
sI5469
S'superheroes'
p5450
sI5470
S'whirl'
p5451
sI5471
S'exorcising'
p5452
sI5472
S'anorak'
p5453
sI5473
S'tumbling'
p5454
sI5474
S'tumbles'
p5455
sI5475
S'shuttle'
p5456
sI5476
S'injured'
p5457
sI5477
S'practice'
p5458
sI5478
S'binoculars'
p5459
sI5479
S'oranges'
p5460
sI5480
S'spitting'
p5461
sI5481
S'tighter'
p5462
sI5482
S'center'
p5463
sI5483
S'sweets'
p5464
sI5484
S'builder'
p5465
sI5485
S'thought'
p5466
sI5486
S'snorkel'
p5467
sI5487
S'sets'
p5468
sI5488
S'position'
p5469
sI5489
S'muscle'
p5470
sI5490
S'arising'
p5471
sI5491
S'coaster'
p5472
sI5492
S'barking'
p5473
sI5493
S'proximity'
p5474
sI5494
S'domestic'
p5475
sI5495
S'stored'
p5476
sI5496
S'voltage'
p5477
sI5497
S'seats'
p5478
sI5498
S'protecting'
p5479
sI5499
S'seductively'
p5480
sI5500
S'hypocritically'
p5481
sI5501
S'flashlight'
p5482
sI5502
S'raves'
p5483
sI5503
S'tong'
p5484
sI5504
S'lake'
p5485
sI5505
S'bench'
p5486
sI5506
S'slits'
p5487
sI5507
S'smart'
p5488
sI5508
S'raven'
p5489
sI5509
S'unplugging'
p5490
sI5510
S'molding'
p5491
sI5511
S'dryer'
p5492
sI5512
S'flamingo'
p5493
sI5513
S'crawled'
p5494
sI5514
S'journalist'
p5495
sI5515
S'chick'
p5496
sI5516
S'works'
p5497
sI5517
S'soft'
p5498
sI5518
S'frameqaulsing'
p5499
sI5519
S'crazily'
p5500
sI5520
S'alive'
p5501
sI5521
S'hair'
p5502
sI5522
S'goaltender'
p5503
sI5523
S'stuffs'
p5504
sI5524
S'happens'
p5505
sI5525
S'foosball'
p5506
sI5526
S'students'
p5507
sI5527
S'masked'
p5508
sI5528
S'screwed'
p5509
sI5529
S'speak'
p5510
sI5530
S'chains'
p5511
sI5531
S'panes'
p5512
sI5532
S'pepper'
p5513
sI5533
S'hose'
p5514
sI5534
S'buttoned'
p5515
sI5535
S'tucks'
p5516
sI5536
S'host'
p5517
sI5537
S'whacks'
p5518
sI5538
S'panel'
p5519
sI5539
S'gifts'
p5520
sI5540
S'about'
p5521
sI5541
S'actual'
p5522
sI5542
S'boards'
p5523
sI5543
S'smartly'
p5524
sI5544
S'introduces'
p5525
sI5545
S'socked'
p5526
sI5546
S'tailed'
p5527
sI5547
S'tomb'
p5528
sI5548
S'introduced'
p5529
sI5549
S'obliterated'
p5530
sI5550
S'zooms'
p5531
sI5551
S'socks'
p5532
sI5552
S'guard'
p5533
sI5553
S'female'
p5534
sI5554
S'blower'
p5535
sI5555
S'decorated'
p5536
sI5556
S'knuckles'
p5537
sI5557
S'brides'
p5538
sI5558
S'vegetables'
p5539
sI5559
S'outline'
p5540
sI5560
S'firefighter'
p5541
sI5561
S'rushes'
p5542
sI5562
S'buy'
p5543
sI5563
S'bobble'
p5544
sI5564
S'bus'
p5545
sI5565
S'brand'
p5546
sI5566
S'but'
p5547
sI5567
S'bun'
p5548
sI5568
S'bum'
p5549
sI5569
S'bookshelf'
p5550
sI5570
S'inverted'
p5551
sI5571
S'bug'
p5552
sI5572
S'bud'
p5553
sI5573
S'partially'
p5554
sI5574
S'misty'
p5555
sI5575
S'dangerous'
p5556
sI5576
S'flip'
p5557
sI5577
S'waddles'
p5558
sI5578
S'squat'
p5559
sI5579
S'skating'
p5560
sI5580
S'rabbits'
p5561
sI5581
S'pin'
p5562
sI5582
S'whisper'
p5563
sI5583
S'circus'
p5564
sI5584
S'pie'
p5565
sI5585
S'pig'
p5566
sI5586
S'skywards'
p5567
sI5587
S'mysteriously'
p5568
sI5588
S'pit'
p5569
sI5589
S'proceeds'
p5570
sI5590
S'dressed'
p5571
sI5591
S'45'
p5572
sI5592
S'claiming'
p5573
sI5593
S'virtual'
p5574
sI5594
S'sandy'
p5575
sI5595
S'ducked'
p5576
sI5596
S'dresses'
p5577
sI5597
S'dresser'
p5578
sI5598
S'thumping'
p5579
sI5599
S'gangway'
p5580
sI5600
S'stirred'
p5581
sI5601
S'yell'
p5582
sI5602
S'baked'
p5583
sI5603
S'ladybird'
p5584
sI5604
S'hats'
p5585
sI5605
S'hitch'
p5586
sI5606
S'sleep'
p5587
sI5607
S'cartwheeling'
p5588
sI5608
S'hate'
p5589
sI5609
S'poorly'
p5590
sI5610
S'trolley'
p5591
sI5611
S'feeding'
p5592
sI5612
S'clasps'
p5593
sI5613
S'patches'
p5594
sI5614
S'teapot'
p5595
sI5615
S'under'
p5596
sI5616
S'lure'
p5597
sI5617
S'performs'
p5598
sI5618
S'tampons'
p5599
sI5619
S'rise'
p5600
sI5620
S'fishbowl'
p5601
sI5621
S'every'
p5602
sI5622
S'jack'
p5603
sI5623
S'confetti'
p5604
sI5624
S'monkeys'
p5605
sI5625
S'encounter'
p5606
sI5626
S'school'
p5607
sI5627
S'parrot'
p5608
sI5628
S'supports'
p5609
sI5629
S'venue'
p5610
sI5630
S'flashy'
p5611
sI5631
S'venus'
p5612
sI5632
S'humps'
p5613
sI5633
S'joggers'
p5614
sI5634
S'enjoy'
p5615
sI5635
S'parted'
p5616
sI5636
S'bicycle'
p5617
sI5637
S'feathery'
p5618
sI5638
S'feathers'
p5619
sI5639
S'direct'
p5620
sI5640
S'frosted'
p5621
sI5641
S'unscrewing'
p5622
sI5642
S'nail'
p5623
sI5643
S'surrounding'
p5624
sI5644
S'street'
p5625
sI5645
S'shining'
p5626
sI5646
S'blue'
p5627
sI5647
S'hide'
p5628
sI5648
S'solemn'
p5629
sI5649
S'revolver'
p5630
sI5650
S'liberty'
p5631
sI5651
S'sung'
p5632
sI5652
S'lampshade'
p5633
sI5653
S'coasters'
p5634
sI5654
S'conduct'
p5635
sI5655
S'supplies'
p5636
sI5656
S'chinking'
p5637
sI5657
S'disney'
p5638
sI5658
S'pats'
p5639
sI5659
S'kicked'
p5640
sI5660
S'stared'
p5641
sI5661
S'ramps'
p5642
sI5662
S'hundreds'
p5643
sI5663
S'studio'
p5644
sI5664
S'undo'
p5645
sI5665
S'path'
p5646
sI5666
S'stares'
p5647
sI5667
S'crossbow'
p5648
sI5668
S'monarch'
p5649
sI5669
S'voice'
p5650
sI5670
S'luggage'
p5651
sI5671
S'leaves'
p5652
sI5672
S'settles'
p5653
sI5673
S'jogging'
p5654
sI5674
S'changes'
p5655
sI5675
S'swearing'
p5656
sI5676
S'straw'
p5657
sI5677
S'cylinder'
p5658
sI5678
S'strap'
p5659
sI5679
S'visible'
p5660
sI5680
S'punching'
p5661
sI5681
S'swings'
p5662
sI5682
S'would'
p5663
sI5683
S'hospital'
p5664
sI5684
S'spiky'
p5665
sI5685
S'fainting'
p5666
sI5686
S'breathe'
p5667
sI5687
S'saber'
p5668
sI5688
S'tress'
p5669
sI5689
S'billowing'
p5670
sI5690
S'phone'
p5671
sI5691
S'overtake'
p5672
sI5692
S'pinching'
p5673
sI5693
S'excellent'
p5674
sI5694
S'pouch'
p5675
sI5695
S'shoot'
p5676
sI5696
S'hideout'
p5677
sI5697
S'join'
p5678
sI5698
S'swiped'
p5679
sI5699
S'tissue'
p5680
sI5700
S'mr'
p5681
sI5701
S'my'
p5682
sI5702
S'grenade'
p5683
sI5703
S'swipes'
p5684
sI5704
S'decorative'
p5685
sI5705
S'overhears'
p5686
sI5706
S'dolphin'
p5687
sI5707
S'paparazzi'
p5688
sI5708
S'mermaids'
p5689
sI5709
S'times'
p5690
sI5710
S'looses'
p5691
sI5711
S'end'
p5692
sI5712
S'bunk'
p5693
sI5713
S'sitting'
p5694
sI5714
S'buns'
p5695
sI5715
S'drummer'
p5696
sI5716
S'gate'
p5697
sI5717
S'charging'
p5698
sI5718
S'eyeballs'
p5699
sI5719
S'badly'
p5700
sI5720
S'poker'
p5701
sI5721
S'pokes'
p5702
sI5722
S'mouths'
p5703
sI5723
S'mess'
p5704
sI5724
S'jumping'
p5705
sI5725
S'poked'
p5706
sI5726
S'sparkler'
p5707
sI5727
S'sparkles'
p5708
sI5728
S'burly'
p5709
sI5729
S'parallel'
p5710
sI5730
S'snarling'
p5711
sI5731
S'amid'
p5712
sI5732
S'pinstriped'
p5713
sI5733
S'upside'
p5714
sI5734
S'jungle'
p5715
sI5735
S'enter'
p5716
sI5736
S'corsets'
p5717
sI5737
S'vapor'
p5718
sI5738
S'fillers'
p5719
sI5739
S'unsteady'
p5720
sI5740
S'flippers'
p5721
sI5741
S'over'
p5722
sI5742
S'plushy'
p5723
sI5743
S'uncross'
p5724
sI5744
S'underside'
p5725
sI5745
S'executes'
p5726
sI5746
S'oven'
p5727
sI5747
S'rowdies'
p5728
sI5748
S'glances'
p5729
sI5749
S'beside'
p5730
sI5750
S'writing'
p5731
sI5751
S'tilts'
p5732
sI5752
S'whips'
p5733
sI5753
S'prevented'
p5734
sI5754
S'flotation'
p5735
sI5755
S'shadows'
p5736
sI5756
S'swaying'
p5737
sI5757
S'regularly'
p5738
sI5758
S'faceful'
p5739
sI5759
S'chuck'
p5740
sI5760
S'explode'
p5741
sI5761
S'frantically'
p5742
sI5762
S'victory'
p5743
sI5763
S'each'
p5744
sI5764
S'signing'
p5745
sI5765
S'hanger'
p5746
sI5766
S'tumbleweed'
p5747
sI5767
S'clinks'
p5748
sI5768
S'cloths'
p5749
sI5769
S'traffics'
p5750
sI5770
S'waffle'
p5751
sI5771
S'celebrating'
p5752
sI5772
S'juggling'
p5753
sI5773
S'ghosts'
p5754
sI5774
S'poncho'
p5755
sI5775
S'clothe'
p5756
sI5776
S'pounce'
p5757
sI5777
S'goo'
p5758
sI5778
S'lair'
p5759
sI5779
S'driving'
p5760
sI5780
S'dinosaur'
p5761
sI5781
S'stringed'
p5762
sI5782
S'haired'
p5763
sI5783
S'sighing'
p5764
sI5784
S'conga'
p5765
sI5785
S'laid'
p5766
sI5786
S'adjust'
p5767
sI5787
S'got'
p5768
sI5788
S'washer'
p5769
sI5789
S'washes'
p5770
sI5790
S'splashed'
p5771
sI5791
S'carcass'
p5772
sI5792
S'hang'
p5773
sI5793
S'harry'
p5774
sI5794
S'free'
p5775
sI5795
S'formation'
p5776
sI5796
S'splashes'
p5777
sI5797
S'scoped'
p5778
sI5798
S'frameqaort'
p5779
sI5799
S'wanted'
p5780
sI5800
S'okaying'
p5781
sI5801
S'outfits'
p5782
sI5802
S'filter'
p5783
sI5803
S'heck'
p5784
sI5804
S'soda'
p5785
sI5805
S'onto'
p5786
sI5806
S'grassed'
p5787
sI5807
S'key'
p5788
sI5808
S'already'
p5789
sI5809
S'gazelle'
p5790
sI5810
S'puck'
p5791
sI5811
S'bandages'
p5792
sI5812
S'hearing'
p5793
sI5813
S'scissors'
p5794
sI5814
S'bandaged'
p5795
sI5815
S'toy'
p5796
sI5816
S'top'
p5797
sI5817
S'licorice'
p5798
sI5818
S'tow'
p5799
sI5819
S'fiction'
p5800
sI5820
S'too'
p5801
sI5821
S'wildly'
p5802
sI5822
S'gowns'
p5803
sI5823
S'fixedly'
p5804
sI5824
S'toe'
p5805
sI5825
S'curtains'
p5806
sI5826
S'ceiling'
p5807
sI5827
S'tool'
p5808
sI5828
S'brushes'
p5809
sI5829
S'serve'
p5810
sI5830
S'took'
p5811
sI5831
S'ankle'
p5812
sI5832
S'nudging'
p5813
sI5833
S'brushed'
p5814
sI5834
S'perfectly'
p5815
sI5835
S'reclining'
p5816
sI5836
S'flame'
p5817
sI5837
S'paved'
p5818
sI5838
S'bridge'
p5819
sI5839
S'donkey'
p5820
sI5840
S'fashion'
p5821
sI5841
S'handkerchief'
p5822
sI5842
S'ran'
p5823
sI5843
S'ram'
p5824
sI5844
S'talking'
p5825
sI5845
S'rat'
p5826
sI5846
S'shell'
p5827
sI5847
S'rap'
p5828
sI5848
S'careening'
p5829
sI5849
S'screws'
p5830
sI5850
S'spade'
p5831
sI5851
S'ray'
p5832
sI5852
S'nipples'
p5833
sI5853
S'slithering'
p5834
sI5854
S'1964'
p5835
sI5855
S'snow'
p5836
sI5856
S'rodents'
p5837
sI5857
S'laughed'
p5838
sI5858
S'cigars'
p5839
sI5859
S'rides'
p5840
sI5860
S'rider'
p5841
sI5861
S'though'
p5842
sI5862
S'gesticulates'
p5843
sI5863
S'candlestick'
p5844
sI5864
S'coin'
p5845
sI5865
S'unorthodox'
p5846
sI5866
S'parting'
p5847
sI5867
S'glow'
p5848
sI5868
S'peers'
p5849
sI5869
S'treats'
p5850
sI5870
S'flop'
p5851
sI5871
S'metal'
p5852
sI5872
S'freeway'
p5853
sI5873
S'enterprise'
p5854
sI5874
S'swerves'
p5855
sI5875
S'entertaining'
p5856
sI5876
S'policewoman'
p5857
sI5877
S'floe'
p5858
sI5878
S'bait'
p5859
sI5879
S'pope'
p5860
sI5880
S'queen'
p5861
sI5881
S'bugger'
p5862
sI5882
S'crotches'
p5863
sI5883
S'pops'
p5864
sI5884
S'colors'
p5865
sI5885
S'radio'
p5866
sI5886
S'earth'
p5867
sI5887
S'peddle'
p5868
sI5888
S'bail'
p5869
sI5889
S'spits'
p5870
sI5890
S'knuckle'
p5871
sI5891
S'zipping'
p5872
sI5892
S'mixture'
p5873
sI5893
S'sunglasses'
p5874
sI5894
S'asians'
p5875
sI5895
S'watch'
p5876
sI5896
S'fluid'
p5877
sI5897
S'blinking'
p5878
sI5898
S'shutting'
p5879
sI5899
S'wedding'
p5880
sI5900
S'knocks'
p5881
sI5901
S'pouting'
p5882
sI5902
S'tailpipes'
p5883
sI5903
S'rowing'
p5884
sI5904
S'anxiously'
p5885
sI5905
S'licking'
p5886
sI5906
S'plush'
p5887
sI5907
S'twice'
p5888
sI5908
S'shots'
p5889
sI5909
S'automatic'
p5890
sI5910
S'duck'
p5891
sI5911
S'swept'
p5892
sI5912
S'nut'
p5893
sI5913
S'skeptically'
p5894
sI5914
S'nun'
p5895
sI5915
S'disturbing'
p5896
sI5916
S'noodles'
p5897
sI5917
S'jerseys'
p5898
sI5918
S'gladiator'
p5899
sI5919
S'postbox'
p5900
sI5920
S'interviewing'
p5901
sI5921
S'mud'
p5902
sI5922
S'mug'
p5903
sI5923
S'finger'
p5904
sI5924
S'approach'
p5905
sI5925
S'360'
p5906
sI5926
S'rims'
p5907
sI5927
S'confusion'
p5908
sI5928
S'diapers'
p5909
sI5929
S'toothbrush'
p5910
sI5930
S'wear'
p5911
sI5931
S'news'
p5912
sI5932
S'mule'
p5913
sI5933
S'drowsy'
p5914
sI5934
S'improve'
p5915
sI5935
S'faced'
p5916
sI5936
S'protect'
p5917
sI5937
S'jelly'
p5918
sI5938
S'participating'
p5919
sI5939
S'players'
p5920
sI5940
S'chandeliers'
p5921
sI5941
S'games'
p5922
sI5942
S'faces'
p5923
sI5943
S'snooker'
p5924
sI5944
S'operating'
p5925
sI5945
S'lenses'
p5926
sI5946
S'betting'
p5927
sI5947
S'towels'
p5928
sI5948
S'trust'
p5929
sI5949
S'staggering'
p5930
sI5950
S'hysterically'
p5931
sI5951
S'bathroom'
p5932
sI5952
S'frameqalaced'
p5933
sI5953
S'bikinis'
p5934
sI5954
S'ropes'
p5935
sI5955
S'been'
p5936
sI5956
S'quickly'
p5937
sI5957
S'beer'
p5938
sI5958
S'roped'
p5939
sI5959
S'containers'
p5940
sI5960
S'pursing'
p5941
sI5961
S'loft'
p5942
sI5962
S'drugs'
p5943
sI5963
S'pecked'
p5944
sI5964
S'catch'
p5945
sI5965
S'glides'
p5946
sI5966
S'glider'
p5947
sI5967
S'n'
sI5968
S'dashboard'
p5948
sI5969
S'stopping'
p5949
sI5970
S'cracked'
p5950
sI5971
S'erratically'
p5951
sI5972
S'provocative'
p5952
sI5973
S'handrail'
p5953
sI5974
S'nightgowns'
p5954
sI5975
S'accessories'
p5955
sI5976
S'dazzles'
p5956
sI5977
S'interacts'
p5957
sI5978
S'containing'
p5958
sI5979
S'pyrotechnics'
p5959
sI5980
S'nike'
p5960
sI5981
S'wound'
p5961
sI5982
S'forehead'
p5962
sI5983
S'advances'
p5963
sI5984
S'several'
p5964
sI5985
S'moose'
p5965
sI5986
S'peaks'
p5966
sI5987
S'sings'
p5967
sI5988
S'social'
p5968
sI5989
S'characters'
p5969
sI5990
S'tassel'
p5970
sI5991
S'incredulously'
p5971
sI5992
S'charlie'
p5972
sI5993
S'vacuumed'
p5973
sI5994
S'ocean'
p5974
sI5995
S'mother'
p5975
sI5996
S'hearts'
p5976
sI5997
S'jean'
p5977
sI5998
S'snowman'
p5978
sI5999
S'wedging'
p5979
sI6000
S'toque'
p5980
sI6001
S'laptop'
p5981
sI6002
S'rodent'
p5982
sI6003
S'thumbs'
p5983
sI6004
S'rhythmically'
p5984
sI6005
S'unzips'
p5985
sI6006
S'furry'
p5986
sI6007
S'elf'
p5987
sI6008
S'teenager'
p5988
sI6009
S'trashed'
p5989
sI6010
S'gave'
p5990
sI6011
S'turquoise'
p5991
sI6012
S'casting'
p5992
sI6013
S'melting'
p5993
sI6014
S'bands'
p5994
sI6015
S'breaks'
p5995
sI6016
S'descending'
p5996
sI6017
S'spanner'
p5997
sI6018
S'sanitary'
p5998
sI6019
S'roach'
p5999
sI6020
S'burns'
p6000
sI6021
S'apart'
p6001
sI6022
S'amok'
p6002
sI6023
S'ninjas'
p6003
sI6024
S'appearing'
p6004
sI6025
S'gift'
p6005
sI6026
S'hunt'
p6006
sI6027
S'zoom'
p6007
sI6028
S'unsuspecting'
p6008
sI6029
S'offices'
p6009
sI6030
S'flaps'
p6010
sI6031
S'hung'
p6011
sI6032
S'gritting'
p6012
sI6033
S'petting'
p6013
sI6034
S'successfully'
p6014
sI6035
S'proudly'
p6015
sI6036
S'chests'
p6016
sI6037
S'accost'
p6017
sI6038
S'clubs'
p6018
sI6039
S'clawed'
p6019
sI6040
S'escape'
p6020
sI6041
S'clash'
p6021
sI6042
S'ice'
p6022
sI6043
S'rhino'
p6023
sI6044
S'everything'
p6024
sI6045
S'icy'
p6025
sI6046
S'christmas'
p6026
sI6047
S'officer'
p6027
sI6048
S'cord'
p6028
sI6049
S'corn'
p6029
sI6050
S'cork'
p6030
sI6051
S'lamps'
p6031
sI6052
S'dalmatian'
p6032
sI6053
S'cowboy'
p6033
sI6054
S'attacks'
p6034
sI6055
S'choke'
p6035
sI6056
S'surround'
p6036
sI6057
S'dinner'
p6037
sI6058
S'steadily'
p6038
sI6059
S'axle'
p6039
sI6060
S'presence'
p6040
sI6061
S'puzzle'
p6041
sI6062
S'bath'
p6042
sI6063
S'accommodate'
p6043
sI6064
S'bats'
p6044
sI6065
S'trafficked'
p6045
sI6066
S'cubicle'
p6046
sI6067
S'rounds'
p6047
sI6068
S'sneezing'
p6048
sI6069
S'transform'
p6049
sI6070
S'sunlight'
p6050
sI6071
S'peignoir'
p6051
sI6072
S'gig'
p6052
sI6073
S'stuck'
p6053
sI6074
S'striding'
p6054
sI6075
S'fought'
p6055
sI6076
S'head'
p6056
sI6077
S'medium'
p6057
sI6078
S'steers'
p6058
sI6079
S'attempted'
p6059
sI6080
S'heal'
p6060
sI6081
S'removes'
p6061
sI6082
S'wireless'
p6062
sI6083
S'heat'
p6063
sI6084
S'hear'
p6064
sI6085
S'wobbles'
p6065
sI6086
S'removed'
p6066
sI6087
S'sponge'
p6067
sI6088
S'ruined'
p6068
sI6089
S'nerds'
p6069
sI6090
S'trim'
p6070
sI6091
S'brightly'
p6071
sI6092
S'upset'
p6072
sI6093
S'swatter'
p6073
sI6094
S'shines'
p6074
sI6095
S'annoying'
p6075
sI6096
S'check'
p6076
sI6097
S'looked'
p6077
sI6098
S'outstretched'
p6078
sI6099
S'no'
p6079
sI6100
S'whereas'
p6080
sI6101
S'when'
p6081
sI6102
S'vanishes'
p6082
sI6103
S'meows'
p6083
sI6104
S'setting'
p6084
sI6105
S'papers'
p6085
sI6106
S'tie'
p6086
sI6107
S'realize'
p6087
sI6108
S'evergreen'
p6088
sI6109
S'picture'
p6089
sI6110
S'grasps'
p6090
sI6111
S'football'
p6091
sI6112
S'nods'
p6092
sI6113
S'flushed'
p6093
sI6114
S'younger'
p6094
sI6115
S'faster'
p6095
sI6116
S'bullet'
p6096
sI6117
S'sacks'
p6097
sI6118
S'vigorously'
p6098
sI6119
S'yacht'
p6099
sI6120
S'uncovered'
p6100
sI6121
S'serious'
p6101
sI6122
S'backward'
p6102
sI6123
S'stacks'
p6103
sI6124
S'coach'
p6104
sI6125
S'rom'
p6105
sI6126
S'rob'
p6106
sI6127
S'rod'
p6107
sI6128
S'focus'
p6108
sI6129
S'snip'
p6109
sI6130
S'displaying'
p6110
sI6131
S'row'
p6111
sI6132
S'contemplating'
p6112
sI6133
S'environment'
p6113
sI6134
S'charge'
p6114
sI6135
S'discovering'
p6115
sI6136
S'furrows'
p6116
sI6137
S'broadly'
p6117
sI6138
S'keeping'
p6118
sI6139
S'tanks'
p6119
sI6140
S'cook'
p6120
sI6141
S'cool'
p6121
sI6142
S'tortillas'
p6122
sI6143
S'clouds'
p6123
sI6144
S'impressive'
p6124
sI6145
S'policeman'
p6125
sI6146
S'posts'
p6126
sI6147
S'cloudy'
p6127
sI6148
S'starlit'
p6128
sI6149
S'slouching'
p6129
sI6150
S'quick'
p6130
sI6151
S'lever'
p6131
sI6152
S'dries'
p6132
sI6153
S'says'
p6133
sI6154
S'eights'
p6134
sI6155
S'ladling'
p6135
sI6156
S'deflating'
p6136
sI6157
S'dried'
p6137
sI6158
S'comforting'
p6138
sI6159
S'soldiers'
p6139
sI6160
S'chicken'
p6140
sI6161
S'drinks'
p6141
sI6162
S'stands'
p6142
sI6163
S'tarmac'
p6143
sI6164
S'goes'
p6144
sI6165
S'hairy'
p6145
sI6166
S'orangutans'
p6146
sI6167
S'hairs'
p6147
sI6168
S'water'
p6148
sI6169
S'entertain'
p6149
sI6170
S'baseball'
p6150
sI6171
S'groups'
p6151
sI6172
S'seagull'
p6152
sI6173
S'beanbag'
p6153
sI6174
S'thirty'
p6154
sI6175
S'expressly'
p6155
sI6176
S'marble'
p6156
sI6177
S'sharpening'
p6157
sI6178
S'weird'
p6158
sI6179
S'lowers'
p6159
sI6180
S'emerge'
p6160
sI6181
S'somersaults'
p6161
sI6182
S'tuxedo'
p6162
sI6183
S'peer'
p6163
sI6184
S'touchdown'
p6164
sI6185
S'swallowed'
p6165
sI6186
S'isles'
p6166
sI6187
S'projector'
p6167
sI6188
S'wrecking'
p6168
sI6189
S'sports'
p6169
sI6190
S'handles'
p6170
sI6191
S'handler'
p6171
sI6192
S'prey'
p6172
sI6193
S'today'
p6173
sI6194
S'smeared'
p6174
sI6195
S'smudged'
p6175
sI6196
S'conductor'
p6176
sI6197
S'clicking'
p6177
sI6198
S'cashier'
p6178
sI6199
S'chocolate'
p6179
sI6200
S'teases'
p6180
sI6201
S'beers'
p6181
sI6202
S'flapping'
p6182
sI6203
S'cases'
p6183
sI6204
S'piano'
p6184
sI6205
S'judo'
p6185
sI6206
S'sphere'
p6186
sI6207
S'wands'
p6187
sI6208
S'unruly'
p6188
sI6209
S'ferry'
p6189
sI6210
S'meatball'
p6190
sI6211
S'laughter'
p6191
sI6212
S'streak'
p6192
sI6213
S'vigor'
p6193
sI6214
S'dropper'
p6194
sI6215
S'stream'
p6195
sI6216
S'geeks'
p6196
sI6217
S'tinted'
p6197
sI6218
S'dropped'
p6198
sI6219
S'unloads'
p6199
sI6220
S'counting'
p6200
sI6221
S'sailboat'
p6201
sI6222
S'1'
sI6223
S'fourth'
p6202
sI6224
S'speaks'
p6203
sI6225
S'begs'
p6204
sI6226
S'narrowly'
p6205
sI6227
S'cocktail'
p6206
sI6228
S'information'
p6207
sI6229
S'grooving'
p6208
sI6230
S'eighty'
p6209
sI6231
S'crashed'
p6210
sI6232
S'birthday'
p6211
sI6233
S'tipped'
p6212
sI6234
S'floral'
p6213
sI6235
S'wagging'
p6214
sI6236
S'classroom'
p6215
sI6237
S'branches'
p6216
sI6238
S'liquid'
p6217
sI6239
S'drumsticks'
p6218
sI6240
S'amuse'
p6219
sI6241
S'glancing'
p6220
sI6242
S'acts'
p6221
sI6243
S'fangs'
p6222
sI6244
S'ducklings'
p6223
sI6245
S'motions'
p6224
sI6246
S'blocked'
p6225
sI6247
S'cheerleaders'
p6226
sI6248
S'joysticks'
p6227
sI6249
S'platform'
p6228
sI6250
S'offers'
p6229
sI6251
S'farmer'
p6230
sI6252
S'coordinated'
p6231
sI6253
S'budgerigar'
p6232
sI6254
S'happened'
p6233
sI6255
S'lonely'
p6234
sI6256
S'devastated'
p6235
sI6257
S'underneath'
p6236
sI6258
S'feathered'
p6237
sI6259
S'wagon'
p6238
sI6260
S'showcased'
p6239
sI6261
S'polish'
p6240
sI6262
S'tobacco'
p6241
sI6263
S'clutch'
p6242
sI6264
S'nodding'
p6243
sI6265
S'trunks'
p6244
sI6266
S'populated'
p6245
sI6267
S'hiccups'
p6246
sI6268
S'torch'
p6247
sI6269
S'catching'
p6248
sI6270
S'zebra'
p6249
sI6271
S'sunrise'
p6250
sI6272
S'overflowing'
p6251
sI6273
S'eagle'
p6252
sI6274
S'attended'
p6253
sI6275
S'hula'
p6254
sI6276
S'bolts'
p6255
sI6277
S'boobs'
p6256
sI6278
S'overground'
p6257
sI6279
S'hulk'
p6258
sI6280
S'aria'
p6259
sI6281
S'skillfully'
p6260
sI6282
S'clown'
p6261
sI6283
S'roosters'
p6262
sI6284
S'flare'
p6263
sI6285
S'motion'
p6264
sI6286
S'turn'
p6265
sI6287
S'butterflies'
p6266
sI6288
S'place'
p6267
sI6289
S'swing'
p6268
sI6290
S'charleston'
p6269
sI6291
S'view'
p6270
sI6292
S'creepily'
p6271
sI6293
S'teammates'
p6272
sI6294
S'pelican'
p6273
sI6295
S'vandalizing'
p6274
sI6296
S'clumsy'
p6275
sI6297
S'soaring'
p6276
sI6298
S'fetches'
p6277
sI6299
S'hairdressers'
p6278
sI6300
S'cheerfully'
p6279
sI6301
S'disinterested'
p6280
sI6302
S'given'
p6281
sI6303
S'burying'
p6282
sI6304
S'plastic'
p6283
sI6305
S'returns'
p6284
sI6306
S'white'
p6285
sI6307
S'gives'
p6286
sI6308
S'exploring'
p6287
sI6309
S'hug'
p6288
sI6310
S'releases'
p6289
sI6311
S'terrain'
p6290
sI6312
S'cops'
p6291
sI6313
S'corning'
p6292
sI6314
S'holder'
p6293
sI6315
S'wide'
p6294
sI6316
S'cards'
p6295
sI6317
S'driveway'
p6296
sI6318
S'and'
p6297
sI6319
S'armored'
p6298
sI6320
S'pro'
p6299
sI6321
S'ant'
p6300
sI6322
S'mates'
p6301
sI6323
S'ans'
p6302
sI6324
S'exchanging'
p6303
sI6325
S'any'
p6304
sI6326
S'batting'
p6305
sI6327
S'superman'
p6306
sI6328
S'silhouette'
p6307
sI6329
S'dining'
p6308
sI6330
S'animation'
p6309
sI6331
S'resembling'
p6310
sI6332
S'tambourine'
p6311
sI6333
S'blunt'
p6312
sI6334
S'surf'
p6313
sI6335
S'hooves'
p6314
sI6336
S'multiple'
p6315
sI6337
S'equestrian'
p6316
sI6338
S'tornado'
p6317
sI6339
S'falls'
p6318
sI6340
S'boiling'
p6319
sI6341
S'pencils'
p6320
sI6342
S'cuddles'
p6321
sI6343
S'hungry'
p6322
sI6344
S'beaded'
p6323
sI6345
S'readjust'
p6324
sI6346
S'cuddled'
p6325
sI6347
S'shrieking'
p6326
sI6348
S'slope'
p6327
sI6349
S'perch'
p6328
sI6350
S'convoy'
p6329
sI6351
S'applauding'
p6330
sI6352
S'cheap'
p6331
sI6353
S'dandelions'
p6332
sI6354
S'trot'
p6333
sI6355
S'woolen'
p6334
sI6356
S'crime'
p6335
sI6357
S'prays'
p6336
sI6358
S'wood'
p6337
sI6359
S'crimp'
p6338
sI6360
S'wool'
p6339
sI6361
S'lighted'
p6340
sI6362
S'narrows'
p6341
sI6363
S'begging'
p6342
sI6364
S'lighter'
p6343
sI6365
S'dye'
p6344
sI6366
S'hedge'
p6345
sI6367
S'flicks'
p6346
sI6368
S'freaking'
p6347
sI6369
S'reveal'
p6348
sI6370
S'aluminum'
p6349
sI6371
S'naked'
p6350
sI6372
S'jokes'
p6351
sI6373
S'penguins'
p6352
sI6374
S'dough'
p6353
sI6375
S'discussing'
p6354
sI6376
S'microphones'
p6355
sI6377
S'ignored'
p6356
sI6378
S'picnic'
p6357
sI6379
S'brim'
p6358
sI6380
S'turntable'
p6359
sI6381
S'ignores'
p6360
sI6382
S'parking'
p6361
sI6383
S'turbine'
p6362
sI6384
S'surfaces'
p6363
sI6385
S'fails'
p6364
sI6386
S'bicyclist'
p6365
sI6387
S'ways'
p6366
sI6388
S'weapons'
p6367
sI6389
S'outside'
p6368
sI6390
S'hiss'
p6369
sI6391
S'smokestack'
p6370
sI6392
S'toying'
p6371
sI6393
S'warding'
p6372
sI6394
S'guitar'
p6373
sI6395
S'fiddling'
p6374
sI6396
S'diners'
p6375
sI6397
S'unusually'
p6376
sI6398
S'comb'
p6377
sI6399
S'come'
p6378
sI6400
S'priests'
p6379
sI6401
S'quiet'
p6380
sI6402
S'berry'
p6381
sI6403
S'railway'
p6382
sI6404
S'groundhog'
p6383
sI6405
S'duty'
p6384
sI6406
S'afterwards'
p6385
sI6407
S'color'
p6386
sI6408
S'armchair'
p6387
sI6409
S'pot'
p6388
sI6410
S'period'
p6389
sI6411
S'pop'
p6390
sI6412
S'poo'
p6391
sI6413
S'pole'
p6392
sI6414
S'pom'
p6393
sI6415
S'polo'
p6394
sI6416
S'dribbled'
p6395
sI6417
S'fireflies'
p6396
sI6418
S'hunches'
p6397
sI6419
S'stroking'
p6398
sI6420
S'teammate'
p6399
sI6421
S'spotlights'
p6400
sI6422
S'coupe'
p6401
sI6423
S'helicopter'
p6402
sI6424
S'featuring'
p6403
sI6425
S'hardly'
p6404
sI6426
S'ruining'
p6405
sI6427
S'engine'
p6406
sI6428
S'direction'
p6407
sI6429
S'tiger'
p6408
sI6430
S'padlock'
p6409
sI6431
S'squirrels'
p6410
sI6432
S'pilot'
p6411
sI6433
S'paying'
p6412
sI6434
S'shaft'
p6413
sI6435
S'mount'
p6414
sI6436
S'cupping'
p6415
sI6437
S'cash'
p6416
sI6438
S'cast'
p6417
sI6439
S'dorky'
p6418
sI6440
S'electrocuted'
p6419
sI6441
S'slippery'
p6420
sI6442
S'mound'
p6421
sI6443
S'interconnected'
p6422
sI6444
S'slippers'
p6423
sI6445
S'vest'
p6424
sI6446
S'punches'
p6425
sI6447
S'candies'
p6426
sI6448
S'telephone'
p6427
sI6449
S'couples'
p6428
sI6450
S'someone'
p6429
sI6451
S'punched'
p6430
sI6452
S'whimpering'
p6431
sI6453
S'ironic'
p6432
sI6454
S'helmet'
p6433
sI6455
S'bowl'
p6434
sI6456
S'siberian'
p6435
sI6457
S'trip'
p6436
sI6458
S'shifts'
p6437
sI6459
S'bows'
p6438
sI6460
S'bobbles'
p6439
sI6461
S'agitated'
p6440
sI6462
S'barefoot'
p6441
sI6463
S'applaud'
p6442
sI6464
S'nest'
p6443
sI6465
S'driver'
p6444
sI6466
S'drives'
p6445
sI6467
S'weed'
p6446
sI6468
S'driven'
p6447
sI6469
S'persons'
p6448
sI6470
S'canister'
p6449
sI6471
S'statue'
p6450
sI6472
S'changing'
p6451
sI6473
S'cartoon'
p6452
sI6474
S'deflates'
p6453
sI6475
S'caressing'
p6454
sI6476
S'pframeqaaring'
p6455
sI6477
S'without'
p6456
sI6478
S'model'
p6457
sI6479
S'bodies'
p6458
sI6480
S'desolate'
p6459
sI6481
S'captures'
p6460
sI6482
S'guided'
p6461
sI6483
S'actress'
p6462
sI6484
S'loosening'
p6463
sI6485
S'kill'
p6464
sI6486
S'pirouetting'
p6465
sI6487
S'satin'
p6466
sI6488
S'kneeling'
p6467
sI6489
S'captured'
p6468
sI6490
S'blow'
p6469
sI6491
S'\\?'
p6470
sI6492
S'seems'
p6471
sI6493
S'tin'
p6472
sI6494
S'pallet'
p6473
sI6495
S'lets'
p6474
sI6496
S'outstretches'
p6475
sI6497
S'hing'
p6476
sI6498
S'hind'
p6477
sI6499
S'engulfed'
p6478
sI6500
S'flashing'
p6479
sI6501
S'styles'
p6480
sI6502
S'kills'
p6481
sI6503
S'blowout'
p6482
sI6504
S'fridge'
p6483
sI6505
S'styled'
p6484
sI6506
S'correcting'
p6485
sI6507
S'furniture'
p6486
sI6508
S'towel'
p6487
sI6509
S'particle'
p6488
sI6510
S'nissan'
p6489
sI6511
S'buddies'
p6490
sI6512
S'bracelet'
p6491
sI6513
S'oddly'
p6492
sI6514
S'footballs'
p6493
sI6515
S'snort'
p6494
sI6516
S'waiving'
p6495
sI6517
S'tower'
p6496
sI6518
S'snatches'
p6497
sI6519
S'joking'
p6498
sI6520
S'competition'
p6499
sI6521
S'cowboys'
p6500
sI6522
S'slice'
p6501
sI6523
S'mood'
p6502
sI6524
S'shirtless'
p6503
sI6525
S'slick'
p6504
sI6526
S'stops'
p6505
sI6527
S'moon'
p6506
sI6528
S'teardrop'
p6507
sI6529
S'buddha'
p6508
sI6530
S'itching'
p6509
sI6531
S'nails'
p6510
sI6532
S'inspect'
p6511
sI6533
S'communicate'
p6512
sI6534
S'terrified'
p6513
sI6535
S'on'
p6514
sI6536
S'jeep'
p6515
sI6537
S'of'
p6516
sI6538
S'shrimp'
p6517
sI6539
S'mutually'
p6518
sI6540
S'stand'
p6519
sI6541
S'ox'
p6520
sI6542
S'or'
p6521
sI6543
S'ladies'
p6522
sI6544
S'instruments'
p6523
sI6545
S'garb'
p6524
sI6546
S'breakwater'
p6525
sI6547
S'everyone'
p6526
sI6548
S'rising'
p6527
sI6549
S'determine'
p6528
sI6550
S'gary'
p6529
sI6551
S'syringe'
p6530
sI6552
S'buds'
p6531
sI6553
S'whales'
p6532
sI6554
S'there'
p6533
sI6555
S'arbitrator'
p6534
sI6556
S'turbo'
p6535
sI6557
S'ferris'
p6536
sI6558
S'valley'
p6537
sI6559
S'fish'
p6538
sI6560
S'jug'
p6539
sI6561
S'kittens'
p6540
sI6562
S'eyeliner'
p6541
sI6563
S'cabinet'
p6542
sI6564
S'applying'
p6543
sI6565
S'grasp'
p6544
sI6566
S'grass'
p6545
sI6567
S'creeping'
p6546
sI6568
S'strongly'
p6547
sI6569
S'toilet'
p6548
sI6570
S'toiler'
p6549
sI6571
S'taste'
p6550
sI6572
S'frighten'
p6551
sI6573
S'tasty'
p6552
sI6574
S'cringes'
p6553
sI6575
S'collared'
p6554
sI6576
S'stumbled'
p6555
sI6577
S'rubbed'
p6556
sI6578
S'swords'
p6557
sI6579
S'rubber'
p6558
sI6580
S'roses'
p6559
sI6581
S'5'
sI6582
S'stumbles'
p6560
sI6583
S'trash'
p6561
sI6584
S'briefly'
p6562
sI6585
S'championship'
p6563
sI6586
S'winking'
p6564
sI6587
S'pillows'
p6565
sI6588
S'separate'
p6566
sI6589
S'symbol'
p6567
sI6590
S'whiskers'
p6568
sI6591
S'includes'
p6569
sI6592
S'lovers'
p6570
sI6593
S'bullets'
p6571
sI6594
S'fasten'
p6572
sI6595
S'brass'
p6573
sI6596
S'prongs'
p6574
sI6597
S'lipstick'
p6575
sI6598
S'blacks'
p6576
sI6599
S'curve'
p6577
sI6600
S'fuse'
p6578
sI6601
S'curvy'
p6579
sI6602
S'rimmed'
p6580
sI6603
S'apparel'
p6581
sI6604
S'peeks'
p6582
sI6605
S'tanned'
p6583
sI6606
S'swirls'
p6584
sI6607
S'lace'
p6585
sI6608
S'chinese'
p6586
sI6609
S'wreath'
p6587
sI6610
S'swerving'
p6588
sI6611
S'ladders'
p6589
sI6612
S'surgical'
p6590
sI6613
S'disc'
p6591
sI6614
S'dish'
p6592
sI6615
S'lacy'
p6593
sI6616
S'disk'
p6594
sI6617
S'earmuffs'
p6595
sI6618
S'apartment'
p6596
sI6619
S'lining'
p6597
sI6620
S'sparkling'
p6598
sI6621
S'siblings'
p6599
sI6622
S'presentation'
p6600
sI6623
S'activities'
p6601
sI6624
S'woman'
p6602
sI6625
S'song'
p6603
sI6626
S'far'
p6604
sI6627
S'grinds'
p6605
sI6628
S'fat'
p6606
sI6629
S'fan'
p6607
sI6630
S'flails'
p6608
sI6631
S'bubbles'
p6609
sI6632
S'rebounds'
p6610
sI6633
S'leads'
p6611
sI6634
S'prolonged'
p6612
sI6635
S'trench'
p6613
sI6636
S'saxophone'
p6614
sI6637
S'salute'
p6615
sI6638
S'align'
p6616
sI6639
S'flick'
p6617
sI6640
S'cockatoo'
p6618
sI6641
S'rats'
p6619
sI6642
S'ten'
p6620
sI6643
S'tea'
p6621
sI6644
S'tee'
p6622
sI6645
S'rate'
p6623
sI6646
S'design'
p6624
sI6647
S'cursor'
p6625
sI6648
S'what'
p6626
sI6649
S'gunk'
p6627
sI6650
S'sun'
p6628
sI6651
S'sum'
p6629
sI6652
S'crust'
p6630
sI6653
S'brief'
p6631
sI6654
S'crush'
p6632
sI6655
S'suv'
p6633
sI6656
S'version'
p6634
sI6657
S'frightens'
p6635
sI6658
S'racing'
p6636
sI6659
S'guns'
p6637
sI6660
S'asiatic'
p6638
sI6661
S'toes'
p6639
sI6662
S'tags'
p6640
sI6663
S'toed'
p6641
sI6664
S'directions'
p6642
sI6665
S'skidded'
p6643
sI6666
S'observing'
p6644
sI6667
S'siamese'
p6645
sI6668
S'allows'
p6646
sI6669
S'cucumbers'
p6647
sI6670
S'miniature'
p6648
sI6671
S'milkshake'
p6649
sI6672
S'exited'
p6650
sI6673
S'sticking'
p6651
sI6674
S'suddenly'
p6652
sI6675
S'screens'
p6653
sI6676
S'texts'
p6654
sI6677
S'herring'
p6655
sI6678
S'proceed'
p6656
sI6679
S'donuts'
p6657
sI6680
S'faint'
p6658
sI6681
S'forcefully'
p6659
sI6682
S'piggyback'
p6660
sI6683
S'horses'
p6661
sI6684
S'hisses'
p6662
sI6685
S'pausing'
p6663
sI6686
S'flap'
p6664
sI6687
S'grabbing'
p6665
sI6688
S'pairs'
p6666
sI6689
S'melon'
p6667
sI6690
S'flag'
p6668
sI6691
S'stethoscope'
p6669
sI6692
S'stick'
p6670
sI6693
S'known'
p6671
sI6694
S'glad'
p6672
sI6695
S'wrestled'
p6673
sI6696
S'sleeveless'
p6674
sI6697
S'policemen'
p6675
sI6698
S'wrestler'
p6676
sI6699
S'v'
sI6700
S'audiences'
p6677
sI6701
S'blossoming'
p6678
sI6702
S'pony'
p6679
sI6703
S'dual'
p6680
sI6704
S'division'
p6681
sI6705
S'sunscreen'
p6682
sI6706
S'protects'
p6683
sI6707
S'pond'
p6684
sI6708
S'pong'
p6685
sI6709
S'swung'
p6686
sI6710
S'hiccuping'
p6687
sI6711
S'earpiece'
p6688
sI6712
S'extinguishes'
p6689
sI6713
S'extinguisher'
p6690
sI6714
S'court'
p6691
sI6715
S'dreads'
p6692
sI6716
S'unties'
p6693
sI6717
S'khakis'
p6694
sI6718
S'rather'
p6695
sI6719
S'breaking'
p6696
sI6720
S'untied'
p6697
sI6721
S'speeding'
p6698
sI6722
S'explains'
p6699
sI6723
S'goat'
p6700
sI6724
S'sandwich'
p6701
sI6725
S'okay'
p6702
sI6726
S'algebra'
p6703
sI6727
S'reflect'
p6704
sI6728
S'lighting'
p6705
sI6729
S'numb'
p6706
sI6730
S'concentrating'
p6707
sI6731
S'short'
p6708
sI6732
S'animatedly'
p6709
sI6733
S'strutting'
p6710
sI6734
S'footed'
p6711
sI6735
S'shore'
p6712
sI6736
S'shade'
p6713
sI6737
S'maneuver'
p6714
sI6738
S'encased'
p6715
sI6739
S'began'
p6716
sI6740
S'handlebars'
p6717
sI6741
S'developed'
p6718
sI6742
S'disabled'
p6719
sI6743
S'flounce'
p6720
sI6744
S'style'
p6721
sI6745
S'slipped'
p6722
sI6746
S'glide'
p6723
sI6747
S'pray'
p6724
sI6748
S'mattress'
p6725
sI6749
S'strange'
p6726
sI6750
S'soccer'
p6727
sI6751
S'might'
p6728
sI6752
S'somebody'
p6729
sI6753
S'sucking'
p6730
sI6754
S'hunter'
p6731
sI6755
S'clippers'
p6732
sI6756
S'hunted'
p6733
sI6757
S'hairdryer'
p6734
sI6758
S'bigger'
p6735
sI6759
S'couches'
p6736
sI6760
S'cubicles'
p6737
sI6761
S'accommodates'
p6738
sI6762
S'stroked'
p6739
sI6763
S'tilted'
p6740
sI6764
S'pirates'
p6741
sI6765
S'weight'
p6742
sI6766
S'fixture'
p6743
sI6767
S'scratching'
p6744
sI6768
S'inflated'
p6745
sI6769
S'braided'
p6746
sI6770
S'alcohol'
p6747
sI6771
S'dugout'
p6748
sI6772
S'puckering'
p6749
sI6773
S'hill'
p6750
sI6774
S'caucasian'
p6751
sI6775
S'hailing'
p6752
sI6776
S'combed'
p6753
sI6777
S'experimenting'
p6754
sI6778
S'cookie'
p6755
sI6779
S'teach'
p6756
sI6780
S'sidewalk'
p6757
sI6781
S'thrown'
p6758
sI6782
S'thread'
p6759
sI6783
S'seahorse'
p6760
sI6784
S'circuit'
p6761
sI6785
S'snowboarding'
p6762
sI6786
S'fallen'
p6763
sI6787
S'throws'
p6764
sI6788
S'feed'
p6765
sI6789
S'feel'
p6766
sI6790
S'urinal'
p6767
sI6791
S'fancy'
p6768
sI6792
S'traveled'
p6769
sI6793
S'feet'
p6770
sI6794
S'fierce'
p6771
sI6795
S'sailor'
p6772
sI6796
S'blank'
p6773
sI6797
S'bland'
p6774
sI6798
S'slower'
p6775
sI6799
S'speedometer'
p6776
sI6800
S'passes'
p6777
sI6801
S'story'
p6778
sI6802
S'temperature'
p6779
sI6803
S'script'
p6780
sI6804
S'leading'
p6781
sI6805
S'interact'
p6782
sI6806
S'hangs'
p6783
sI6807
S'lobby'
p6784
sI6808
S'storm'
p6785
sI6809
S'syrup'
p6786
sI6810
S'store'
p6787
sI6811
S'wonderment'
p6788
sI6812
S'fastens'
p6789
sI6813
S'hotel'
p6790
sI6814
S'rifle'
p6791
sI6815
S'explodes'
p6792
sI6816
S'surfboard'
p6793
sI6817
S'king'
p6794
sI6818
S'kind'
p6795
sI6819
S'vial'
p6796
sI6820
S'double'
p6797
sI6821
S'aims'
p6798
sI6822
S'stall'
p6799
sI6823
S'outdoors'
p6800
sI6824
S'dispenser'
p6801
sI6825
S'tongues'
p6802
sI6826
S'cleaner'
p6803
sI6827
S'uniforms'
p6804
sI6828
S'suspicious'
p6805
sI6829
S'headbutts'
p6806
sI6830
S'cleaned'
p6807
sI6831
S'squints'
p6808
sI6832
S'rugs'
p6809
sI6833
S'wipers'
p6810
sI6834
S'freshener'
p6811
sI6835
S'cropped'
p6812
sI6836
S'sandwiches'
p6813
sI6837
S'irritated'
p6814
sI6838
S'puffing'
p6815
sI6839
S'added'
p6816
sI6840
S'electric'
p6817
sI6841
S'reach'
p6818
sI6842
S'react'
p6819
sI6843
S'cigarette'
p6820
sI6844
S'nothing'
p6821
sI6845
S'machete'
p6822
sI6846
S'patterned'
p6823
sI6847
S'dissolves'
p6824
sI6848
S'windows'
p6825
sI6849
S'hyena'
p6826
sI6850
S'part'
p6827
sI6851
S'amphibian'
p6828
sI6852
S'lying'
p6829
sI6853
S'stones'
p6830
sI6854
S'mimes'
p6831
sI6855
S'stoned'
p6832
sI6856
S'howls'
p6833
sI6857
S'stubble'
p6834
sI6858
S'simulating'
p6835
sI6859
S'endlessly'
p6836
sI6860
S'heavily'
p6837
sI6861
S'penalty'
p6838
sI6862
S'hip'
p6839
sI6863
S'sacking'
p6840
sI6864
S'his'
p6841
sI6865
S'triangle'
p6842
sI6866
S'hid'
p6843
sI6867
S'hie'
p6844
sI6868
S'tarantula'
p6845
sI6869
S'beards'
p6846
sI6870
S'him'
p6847
sI6871
S'nibbles'
p6848
sI6872
S'untying'
p6849
sI6873
S'cringe'
p6850
sI6874
S'knickers'
p6851
sI6875
S'ballerinas'
p6852
sI6876
S'bars'
p6853
sI6877
S'art'
p6854
sI6878
S'dump'
p6855
sI6879
S'tarps'
p6856
sI6880
S'choreographed'
p6857
sI6881
S'pvc'
p6858
sI6882
S'arc'
p6859
sI6883
S'dumb'
p6860
sI6884
S'are'
p6861
sI6885
S'unsure'
p6862
sI6886
S'bark'
p6863
sI6887
S'arm'
p6864
sI6888
S'sportswear'
p6865
sI6889
S'barn'
p6866
sI6890
S'crunching'
p6867
sI6891
S'recording'
p6868
sI6892
S'learns'
p6869
sI6893
S'gravestones'
p6870
sI6894
S'distinctive'
p6871
sI6895
S'slapped'
p6872
sI6896
S'various'
p6873
sI6897
S'creating'
p6874
sI6898
S'attention'
p6875
sI6899
S'outfit'
p6876
sI6900
S'opposition'
p6877
sI6901
S'betrayed'
p6878
sI6902
S'blazer'
p6879
sI6903
S'blazes'
p6880
sI6904
S'license'
p6881
sI6905
S'housecoats'
p6882
sI6906
S'witch'
p6883
sI6907
S'sauntering'
p6884
sI6908
S'finds'
p6885
sI6909
S'sheathe'
p6886
sI6910
S'sloth'
p6887
sI6911
S'flies'
p6888
sI6912
S'clashing'
p6889
sI6913
S'sweet'
p6890
sI6914
S'sweep'
p6891
sI6915
S'nipping'
p6892
sI6916
S'blandishing'
p6893
sI6917
S'goats'
p6894
sI6918
S'decline'
p6895
sI6919
S'suspenders'
p6896
sI6920
S'dun'
p6897
sI6921
S'all'
p6898
sI6922
S'hoops'
p6899
sI6923
S'overlook'
p6900
sI6924
S'teacher'
p6901
sI6925
S'whom'
p6902
sI6926
S'brick'
p6903
sI6927
S'affectionate'
p6904
sI6928
S'siting'
p6905
sI6929
S'referee'
p6906
sI6930
S'flight'
p6907
sI6931
S'sending'
p6908
sI6932
S'transferring'
p6909
sI6933
S'rocking'
p6910
sI6934
S'instructor'
p6911
sI6935
S'toga'
p6912
sI6936
S'toppling'
p6913
sI6937
S'shove'
p6914
sI6938
S'guarding'
p6915
sI6939
S'frozen'
p6916
sI6940
S'footballer'
p6917
sI6941
S'parachutes'
p6918
sI6942
S'barricade'
p6919
sI6943
S'homework'
p6920
sI6944
S'handbrake'
p6921
sI6945
S'welding'
p6922
sI6946
S'knob'
p6923
sI6947
S'strapless'
p6924
sI6948
S'riv'
p6925
sI6949
S'demon'
p6926
sI6950
S'rip'
p6927
sI6951
S'obstacle'
p6928
sI6952
S'nightstand'
p6929
sI6953
S'lodged'
p6930
sI6954
S'rig'
p6931
sI6955
S'rid'
p6932
sI6956
S'rib'
p6933
sI6957
S'wriggles'
p6934
sI6958
S'chauffeur'
p6935
sI6959
S'lengthy'
p6936
sI6960
S'shirt'
p6937
sI6961
S'parading'
p6938
sI6962
S'propping'
p6939
sI6963
S'shire'
p6940
sI6964
S'widely'
p6941
sI6965
S'peoples'
p6942
sI6966
S'higher'
p6943
sI6967
S'arrives'
p6944
sI6968
S'cartridge'
p6945
sI6969
S'paths'
p6946
sI6970
S'restraint'
p6947
sI6971
S'negotiate'
p6948
sI6972
S'cement'
p6949
sI6973
S'flown'
p6950
sI6974
S'moving'
p6951
sI6975
S'uneasily'
p6952
sI6976
S'deflects'
p6953
sI6977
S'lower'
p6954
sI6978
S'noodle'
p6955
sI6979
S'spaceman'
p6956
sI6980
S'cheek'
p6957
sI6981
S'chickens'
p6958
sI6982
S'cheer'
p6959
sI6983
S'edge'
p6960
sI6984
S'machinery'
p6961
sI6985
S'bounced'
p6962
sI6986
S'stating'
p6963
sI6987
S'carport'
p6964
sI6988
S'pigeons'
p6965
sI6989
S'raincoats'
p6966
sI6990
S'anchoring'
p6967
sI6991
S'questions'
p6968
sI6992
S'tables'
p6969
sI6993
S'loading'
p6970
sI6994
S'tablet'
p6971
sI6995
S'workers'
p6972
sI6996
S'tormented'
p6973
sI6997
S'acrobatics'
p6974
sI6998
S'customers'
p6975
sI6999
S'doorbell'
p6976
sI7000
S'manatee'
p6977
sI7001
S'entangled'
p6978
sI7002
S'glittery'
p6979
sI7003
S'rotate'
p6980
sI7004
S'slinging'
p6981
sI7005
S'shaped'
p6982
sI7006
S'confront'
p6983
sI7007
S'separately'
p6984
sI7008
S'collect'
p6985
sI7009
S'nipple'
p6986
sI7010
S'sprinklers'
p6987
sI7011
S'jumpsuits'
p6988
sI7012
S'piglet'
p6989
sI7013
S'eluding'
p6990
sI7014
S'streaming'
p6991
sI7015
S'litter'
p6992
sI7016
S'hurriedly'
p6993
sI7017
S'saucer'
p6994
sI7018
S'gradually'
p6995
sI7019
S'jumpy'
p6996
sI7020
S'jumps'
p6997
sI7021
S'perpendicular'
p6998
sI7022
S'zombie'
p6999
sI7023
S'aloft'
p7000
sI7024
S'upraised'
p7001
sI7025
S'cannons'
p7002
sI7026
S'tryst'
p7003
sI7027
S'intense'
p7004
sI7028
S'sporty'
p7005
sI7029
S'completing'
p7006
sI7030
S'firing'
p7007
sI7031
S'range'
p7008
sI7032
S'greets'
p7009
sI7033
S'dialog'
p7010
sI7034
S'fluttering'
p7011
sI7035
S'undoing'
p7012
sI7036
S'blouses'
p7013
sI7037
S'mustaches'
p7014
sI7038
S'curtsy'
p7015
sI7039
S'strumming'
p7016
sI7040
S'impressed'
p7017
sI7041
S'rows'
p7018
sI7042
S'tumble'
p7019
sI7043
S'question'
p7020
sI7044
S'fast'
p7021
sI7045
S'baggy'
p7022
sI7046
S'peeler'
p7023
sI7047
S'mimicry'
p7024
sI7048
S'mountains'
p7025
sI7049
S'forlornly'
p7026
sI7050
S'cloth'
p7027
sI7051
S'upright'
p7028
sI7052
S'crane'
p7029
sI7053
S'raising'
p7030
sI7054
S'penguin'
p7031
sI7055
S'caller'
p7032
sI7056
S'fries'
p7033
sI7057
S'stalking'
p7034
sI7058
S'cartwheel'
p7035
sI7059
S'fried'
p7036
sI7060
S'called'
p7037
sI7061
S'modeled'
p7038
sI7062
S'bell'
p7039
sI7063
S'soars'
p7040
sI7064
S'bicep'
p7041
sI7065
S'rally'
p7042
sI7066
S'rainbow'
p7043
sI7067
S'rainy'
p7044
sI7068
S'lemon'
p7045
sI7069
S'peach'
p7046
sI7070
S'rains'
p7047
sI7071
S'swats'
p7048
sI7072
S'peace'
p7049
sI7073
S'backs'
p7050
sI7074
S'grouped'
p7051
sI7075
S'parlor'
p7052
sI7076
S'nice'
p7053
sI7077
S'hammerhead'
p7054
sI7078
S'vaulting'
p7055
sI7079
S'mustard'
p7056
sI7080
S'wrinkly'
p7057
sI7081
S'breasts'
p7058
sI7082
S'helping'
p7059
sI7083
S'generated'
p7060
sI7084
S'allowing'
p7061
sI7085
S'posters'
p7062
sI7086
S'vaseline'
p7063
sI7087
S'attacking'
p7064
sI7088
S'waxing'
p7065
sI7089
S'weights'
p7066
sI7090
S'broad'
p7067
sI7091
S'joining'
p7068
sI7092
S'scroll'
p7069
sI7093
S'buttoning'
p7070
sI7094
S'wrestle'
p7071
sI7095
S'hooks'
p7072
sI7096
S'alien'
p7073
sI7097
S'windy'
p7074
sI7098
S'gang'
p7075
sI7099
S'dumbbell'
p7076
sI7100
S'magnifying'
p7077
sI7101
S'peering'
p7078
sI7102
S'floss'
p7079
sI7103
S'campfire'
p7080
sI7104
S'squeezing'
p7081
sI7105
S'stable'
p7082
sI7106
S'fences'
p7083
sI7107
S'dramatically'
p7084
sI7108
S'sniper'
p7085
sI7109
S'rag'
p7086
sI7110
S'mewing'
p7087
sI7111
S'breathing'
p7088
sI7112
S'ladle'
p7089
sI7113
S'heard'
p7090
sI7114
S'spoon'
p7091
sI7115
S'graphic'
p7092
sI7116
S'seaway'
p7093
sI7117
S'earrings'
p7094
sI7118
S'sheds'
p7095
sI7119
S'drinking'
p7096
sI7120
S'tutu'
p7097
sI7121
S'housecoat'
p7098
sI7122
S'notes'
p7099
sI7123
S'snails'
p7100
sI7124
S'smaller'
p7101
sI7125
S'gripping'
p7102
sI7126
S'flashlights'
p7103
sI7127
S'folds'
p7104
sI7128
S'wrestling'
p7105
sI7129
S'fold'
p7106
sI7130
S'traveling'
p7107
sI7131
S'reunion'
p7108
sI7132
S'undergarments'
p7109
sI7133
S'checkers'
p7110
sI7134
S'blobs'
p7111
sI7135
S'sables'
p7112
sI7136
S'waiting'
p7113
sI7137
S'attire'
p7114
sI7138
S'gaily'
p7115
sI7139
S'degree'
p7116
sI7140
S'kangaroo'
p7117
sI7141
S'pushing'
p7118
sI7142
S'indicator'
p7119
sI7143
S'swirled'
p7120
sI7144
S'sexy'
p7121
sI7145
S'cyclist'
p7122
sI7146
S'distressed'
p7123
sI7147
S'adjusts'
p7124
sI7148
S'shades'
p7125
sI7149
S'leaving'
p7126
sI7150
S'headless'
p7127
sI7151
S'orangutan'
p7128
sI7152
S'armpit'
p7129
sI7153
S'snobby'
p7130
sI7154
S'pajama'
p7131
sI7155
S'shovel'
p7132
sI7156
S'apple'
p7133
sI7157
S'app'
p7134
sI7158
S'shoved'
p7135
sI7159
S'performer'
p7136
sI7160
S'droops'
p7137
sI7161
S'motor'
p7138
sI7162
S'cheerleader'
p7139
sI7163
S'apply'
p7140
sI7164
S'walruses'
p7141
sI7165
S'shoves'
p7142
sI7166
S'ape'
p7143
sI7167
S'use'
p7144
sI7168
S'from'
p7145
sI7169
S'figure'
p7146
sI7170
S'iced'
p7147
sI7171
S'frog'
p7148
sI7172
S'few'
p7149
sI7173
S'examination'
p7150
sI7174
S'weeping'
p7151
sI7175
S'eagles'
p7152
sI7176
S'sort'
p7153
sI7177
S'porch'
p7154
sI7178
S'musician'
p7155
sI7179
S'parrots'
p7156
sI7180
S'rabbit'
p7157
sI7181
S'women'
p7158
sI7182
S'annoy'
p7159
sI7183
S'duster'
p7160
sI7184
S'slaps'
p7161
sI7185
S'stroke'
p7162
sI7186
S'anywhere'
p7163
sI7187
S'posing'
p7164
sI7188
S'spilled'
p7165
sI7189
S'performed'
p7166
sI7190
S'tap'
p7167
sI7191
S'thirsty'
p7168
sI7192
S'raps'
p7169
sI7193
S'dripping'
p7170
sI7194
S'tag'
p7171
sI7195
S'something'
p7172
sI7196
S'tab'
p7173
sI7197
S'recklessly'
p7174
sI7198
S'tan'
p7175
sI7199
S'sip'
p7176
sI7200
S'sit'
p7177
sI7201
S'bungee'
p7178
sI7202
S'dandelion'
p7179
sI7203
S'struggles'
p7180
sI7204
S'tickling'
p7181
sI7205
S'slamming'
p7182
sI7206
S'instead'
p7183
sI7207
S'toddler'
p7184
sI7208
S'panic'
p7185
sI7209
S'typewriter'
p7186
sI7210
S'hurdles'
p7187
sI7211
S'cupboard'
p7188
sI7212
S'immersed'
p7189
sI7213
S'masks'
p7190
sI7214
S'tack'
p7191
sI7215
S'wrist'
p7192
sI7216
S'convulsing'
p7193
sI7217
S'sculptures'
p7194
sI7218
S'light'
p7195
sI7219
S'interrupted'
p7196
sI7220
S'scrubs'
p7197
sI7221
S'crawling'
p7198
sI7222
S'necklace'
p7199
sI7223
S'martini'
p7200
sI7224
S'stamped'
p7201
sI7225
S'whilst'
p7202
sI7226
S'looks'
p7203
sI7227
S'badges'
p7204
sI7228
S'underwater'
p7205
sI7229
S'frightening'
p7206
sI7230
S'glee'
p7207
sI7231
S'ships'
p7208
sI7232
S'restrain'
p7209
sI7233
S'inspecting'
p7210
sI7234
S'orange'
p7211
sI7235
S'covered'
p7212
sI7236
S'holiday'
p7213
sI7237
S'flex'
p7214
sI7238
S'crash'
p7215
sI7239
S'sequinned'
p7216
sI7240
S'flour'
p7217
sI7241
S'material'
p7218
sI7242
S'flew'
p7219
sI7243
S'decapitate'
p7220
sI7244
S'easel'
p7221
sI7245
S'drummers'
p7222
sI7246
S'trap'
p7223
sI7247
S'cocoon'
p7224
sI7248
S'bills'
p7225
sI7249
S'tray'
p7226
sI7250
S'cry'
p7227
sI7251
S'related'
p7228
sI7252
S'snorkeling'
p7229
sI7253
S'out'
p7230
sI7254
S'crashes'
p7231
sI7255
S'grits'
p7232
sI7256
S'hollering'
p7233
sI7257
S'attentively'
p7234
sI7258
S'burrowing'
p7235
sI7259
S'pours'
p7236
sI7260
S'pendant'
p7237
sI7261
S'dumpster'
p7238
sI7262
S'squishing'
p7239
sI7263
S'river'
p7240
sI7264
S'conversation'
p7241
sI7265
S'biting'
p7242
sI7266
S'bouquet'
p7243
sI7267
S'bonnet'
p7244
sI7268
S'proposing'
p7245
sI7269
S'steamy'
p7246
sI7270
S'smoothing'
p7247
sI7271
S'umbrellas'
p7248
sI7272
S'unknown'
p7249
sI7273
S'retreats'
p7250
sI7274
S'their'
p7251
sI7275
S'motorcar'
p7252
sI7276
S'headbands'
p7253
sI7277
S'consoling'
p7254
sI7278
S'shelf'
p7255
sI7279
S'shallow'
p7256
sI7280
S'dreadlocks'
p7257
sI7281
S'slides'
p7258
sI7282
S'reflecting'
p7259
sI7283
S'reverses'
p7260
sI7284
S'remember'
p7261
sI7285
S'succeeded'
p7262
sI7286
S'behinds'
p7263
sI7287
S'sculpture'
p7264
sI7288
S'faints'
p7265
sI7289
S'hairstyle'
p7266
sI7290
S'teenagers'
p7267
sI7291
S'alerted'
p7268
sI7292
S'racetrack'
p7269
sI7293
S'intersecting'
p7270
sI7294
S'clove'
p7271
sI7295
S'afraid'
p7272
sI7296
S'angle'
p7273
sI7297
S'pupils'
p7274
sI7298
S'rearranges'
p7275
sI7299
S'which'
p7276
sI7300
S'divers'
p7277
sI7301
S'vegetation'
p7278
sI7302
S'combat'
p7279
sI7303
S'knees'
p7280
sI7304
S'who'
p7281
sI7305
S'cracking'
p7282
sI7306
S'alarmed'
p7283
sI7307
S'class'
p7284
sI7308
S'clasp'
p7285
sI7309
S'pipe'
p7286
sI7310
S'strawberries'
p7287
sI7311
S'cloaked'
p7288
sI7312
S'swarming'
p7289
sI7313
S'balding'
p7290
sI7314
S'stove'
p7291
sI7315
S'fear'
p7292
sI7316
S'darkest'
p7293
sI7317
S'pleased'
p7294
sI7318
S'filmed'
p7295
sI7319
S'clutching'
p7296
sI7320
S'combs'
p7297
sI7321
S'surroundings'
p7298
sI7322
S'studded'
p7299
sI7323
S'thousands'
p7300
sI7324
S'pframeqaping'
p7301
sI7325
S'threateningly'
p7302
sI7326
S'spun'
p7303
sI7327
S'cube'
p7304
sI7328
S'skims'
p7305
sI7329
S'watching'
p7306
sI7330
S'flirting'
p7307
sI7331
S'ones'
p7308
sI7332
S'cubs'
p7309
sI7333
S'words'
p7310
sI7334
S'bronco'
p7311
sI7335
S'chips'
p7312
sI7336
S'yowls'
p7313
sI7337
S'bellies'
p7314
sI7338
S'married'
p7315
sI7339
S'cleavage'
p7316
sI7340
S'futuristic'
p7317
sI7341
S'saucers'
p7318
sI7342
S'unison'
p7319
sI7343
S'shedding'
p7320
sI7344
S'signed'
p7321
sI7345
S'frameqaorters'
p7322
sI7346
S'closer'
p7323
sI7347
S'closes'
p7324
sI7348
S'braid'
p7325
sI7349
S'gliders'
p7326
sI7350
S'closet'
p7327
sI7351
S'cruel'
p7328
sI7352
S'favor'
p7329
sI7353
S'identification'
p7330
sI7354
S'closed'
p7331
sI7355
S'wetting'
p7332
sI7356
S'torpedo'
p7333
sI7357
S'frustrated'
p7334
sI7358
S'pants'
p7335
sI7359
S'opening'
p7336
sI7360
S'joy'
p7337
sI7361
S'beverages'
p7338
sI7362
S'embarrassment'
p7339
sI7363
S'renault'
p7340
sI7364
S'aircraft'
p7341
sI7365
S'tactical'
p7342
sI7366
S'canopy'
p7343
sI7367
S'safely'
p7344
sI7368
S'grounds'
p7345
sI7369
S'splaying'
p7346
sI7370
S'wall'
p7347
sI7371
S'shoving'
p7348
sI7372
S'walk'
p7349
sI7373
S'table'
p7350
sI7374
S'motorbike'
p7351
sI7375
S'hindu'
p7352
sI7376
S'reindeer'
p7353
sI7377
S'mike'
p7354
sI7378
S'painted'
p7355
sI7379
S'interrupts'
p7356
sI7380
S'thrusting'
p7357
sI7381
S'overturn'
p7358
sI7382
S'present'
p7359
sI7383
S'eyelashes'
p7360
sI7384
S'corset'
p7361
sI7385
S'fearful'
p7362
sI7386
S'vanilla'
p7363
sI7387
S'will'
p7364
sI7388
S'readies'
p7365
sI7389
S'fingertip'
p7366
sI7390
S'wild'
p7367
sI7391
S'wile'
p7368
sI7392
S'layer'
p7369
sI7393
S'ringing'
p7370
sI7394
S'rooster'
p7371
sI7395
S'draining'
p7372
sI7396
S'gothic'
p7373
sI7397
S'frying'
p7374
sI7398
S'emotively'
p7375
sI7399
S'steeling'
p7376
sI7400
S'glistens'
p7377
sI7401
S'unzipping'
p7378
sI7402
S'vintage'
p7379
sI7403
S'headlight'
p7380
sI7404
S'cross'
p7381
sI7405
S'member'
p7382
sI7406
S'inch'
p7383
sI7407
S'gets'
p7384
sI7408
S'difficult'
p7385
sI7409
S'cellphones'
p7386
sI7410
S'student'
p7387
sI7411
S'whale'
p7388
sI7412
S'collar'
p7389
sI7413
S'gutter'
p7390
sI7414
S'banging'
p7391
sI7415
S'fighting'
p7392
sI7416
S'scissor'
p7393
sI7417
S'twirl'
p7394
sI7418
S'bandanna'
p7395
sI7419
S'bending'
p7396
sI7420
S'rocket'
p7397
sI7421
S'camel'
p7398
sI7422
S'boot'
p7399
sI7423
S'cries'
p7400
sI7424
S'tussles'
p7401
sI7425
S'fishing'
p7402
sI7426
S'rocked'
p7403
sI7427
S'happiness'
p7404
sI7428
S'elaborating'
p7405
sI7429
S'console'
p7406
sI7430
S'panther'
p7407
sI7431
S'guts'
p7408
sI7432
S'sky'
p7409
sI7433
S'discuss'
p7410
sI7434
S'other'
p7411
sI7435
S'attractive'
p7412
sI7436
S'sparking'
p7413
sI7437
S'jars'
p7414
sI7438
S'ski'
p7415
sI7439
S'enact'
p7416
sI7440
S'identical'
p7417
sI7441
S'escorting'
p7418
sI7442
S'masquerade'
p7419
sI7443
S'interrogation'
p7420
sI7444
S'know'
p7421
sI7445
S'facial'
p7422
sI7446
S'catchers'
p7423
sI7447
S'press'
p7424
sI7448
S'doughnut'
p7425
sI7449
S'name'
p7426
sI7450
S'miami'
p7427
sI7451
S'loses'
p7428
sI7452
S'corners'
p7429
sI7453
S'starred'
p7430
sI7454
S'wonders'
p7431
sI7455
S'because'
p7432
sI7456
S'retractable'
p7433
sI7457
S'sequence'
p7434
sI7458
S'scared'
p7435
sI7459
S'searching'
p7436
sI7460
S'elks'
p7437
sI7461
S'twirling'
p7438
sI7462
S'whiteboards'
p7439
sI7463
S'scares'
p7440
sI7464
S'leaf'
p7441
sI7465
S'lead'
p7442
sI7466
S'lean'
p7443
sI7467
S'leap'
p7444
sI7468
S'outrageously'
p7445
sI7469
S'noose'
p7446
sI7470
S'leader'
p7447
sI7471
S'ripped'
p7448
sI7472
S'murderer'
p7449
sI7473
S'dangling'
p7450
sI7474
S'mitt'
p7451
sI7475
S'pasta'
p7452
sI7476
S'paste'
p7453
sI7477
S'throne'
p7454
sI7478
S'pike'
p7455
sI7479
S'rare'
p7456
sI7480
S'carried'
p7457
sI7481
S'getting'
p7458
sI7482
S'column'
p7459
sI7483
S'biscuit'
p7460
sI7484
S'perks'
p7461
sI7485
S'carrier'
p7462
sI7486
S'sweat'
p7463
sI7487
S'backstage'
p7464
sI7488
S'emperor'
p7465
sI7489
S'devouring'
p7466
sI7490
S'owl'
p7467
sI7491
S'bugle'
p7468
sI7492
S'own'
p7469
sI7493
S'gymnastic'
p7470
sI7494
S'headphone'
p7471
sI7495
S'pajamas'
p7472
sI7496
S'weather'
p7473
sI7497
S'promise'
p7474
sI7498
S'brush'
p7475
sI7499
S'uncontrollably'
p7476
sI7500
S'van'
p7477
sI7501
S'transfer'
p7478
sI7502
S'spiral'
p7479
sI7503
S'groomed'
p7480
sI7504
S'kidding'
p7481
sI7505
S'busts'
p7482
sI7506
S'pouts'
p7483
sI7507
S'powdered'
p7484
sI7508
S'upwards'
p7485
sI7509
S'unwrap'
p7486
sI7510
S'sweatband'
p7487
sI7511
S'squeeze'
p7488
sI7512
S'goose'
p7489
sI7513
S'made'
p7490
sI7514
S'tomcat'
p7491
sI7515
S'nightgown'
p7492
sI7516
S'karts'
p7493
sI7517
S'record'
p7494
sI7518
S'below'
p7495
sI7519
S'cake'
p7496
sI7520
S'demonstrate'
p7497
sI7521
S'stirring'
p7498
sI7522
S'unfolding'
p7499
sI7523
S'maroon'
p7500
sI7524
S'spanks'
p7501
sI7525
S'trotting'
p7502
sI7526
S'trailing'
p7503
sI7527
S'guitarist'
p7504
sI7528
S'pickings'
p7505
sI7529
S'cave'
p7506
sI7530
S'monitors'
p7507
sI7531
S'smears'
p7508
sI7532
S'roars'
p7509
sI7533
S'book'
p7510
sI7534
S'boom'
p7511
sI7535
S'branch'
p7512
sI7536
S'incredibly'
p7513
sI7537
S'junk'
p7514
sI7538
S'kinds'
p7515
sI7539
S'shredded'
p7516
sI7540
S'preform'
p7517
sI7541
S'cliff'
p7518
sI7542
S'dominoes'
p7519
sI7543
S'awake'
p7520
sI7544
S'laundromat'
p7521
sI7545
S'expands'
p7522
s.