(dp1
I0
S'.'
sI1
S'UNK'
p2
sI2
S'hats'
p3
sI3
S'yellow'
p4
sI4
S'woods'
p5
sI5
S'asian'
p6
sI6
S'hanging'
p7
sI7
S'shamble'
p8
sI8
S'untie'
p9
sI9
S'electricity'
p10
sI10
S'tickle'
p11
sI11
S'swat'
p12
sI12
S'unroll'
p13
sI13
S'bike'
p14
sI14
S'booties'
p15
sI15
S'under'
p16
sI16
S'sway'
p17
sI17
S'worth'
p18
sI18
S'fists'
p19
sI19
S'swivel'
p20
sI20
S'dispense'
p21
sI21
S'blanket'
p22
sI22
S'rise'
p23
sI23
S'smack'
p24
sI24
S'jack'
p25
sI25
S'harms'
p26
sI26
S'lbs'
p27
sI27
S'disturb'
p28
sI28
S'parrot'
p29
sI29
S'wooden'
p30
sI30
S'pinch'
p31
sI31
S'samurai'
p32
sI32
S'crotch'
p33
sI33
S'ups'
p34
sI34
S'clothes'
p35
sI35
S'chew'
p36
sI36
S'force'
p37
sI37
S'bacon'
p38
sI38
S'direct'
p39
sI39
S'pulse'
p40
sI40
S'horn'
p41
sI41
S'nail'
p42
sI42
S'second'
p43
sI43
S'street'
p44
sI44
S'panda'
p45
sI45
S'blue'
p46
sI46
S'hide'
p47
sI47
S'fingers'
p48
sI48
S'lights'
p49
sI49
S'above'
p50
sI50
S'sideways'
p51
sI51
S'new'
p52
sI52
S'net'
p53
sI53
S'crunch'
p54
sI54
S'crouch'
p55
sI55
S'chins'
p56
sI56
S'pancakes'
p57
sI57
S'men'
p58
sI58
S'here'
p59
sI59
S'deposition'
p60
sI60
S'active'
p61
sI61
S'cubical'
p62
sI62
S'kids'
p63
sI63
S'luggage'
p64
sI64
S'items'
p65
sI65
S'leaves'
p66
sI66
S'tv'
p67
sI67
S'smoke'
p68
sI68
S'eyebrows'
p69
sI69
S'hunch'
p70
sI70
S'vaults'
p71
sI71
S'straw'
p72
sI72
S'cons'
p73
sI73
S'punching'
p74
sI74
S'glance'
p75
sI75
S'bra'
p76
sI76
S'opponents'
p77
sI77
S'headband'
p78
sI78
S'fingernails'
p79
sI79
S'sweater'
p80
sI80
S'coins'
p81
sI81
S'arms'
p82
sI82
S'insult'
p83
sI83
S'music'
p84
sI84
S'chinchilla'
p85
sI85
S'strike'
p86
sI86
S'type'
p87
sI87
S'blueberry'
p88
sI88
S'breathe'
p89
sI89
S'holy'
p90
sI90
S'expose'
p91
sI91
S'training'
p92
sI92
S'award'
p93
sI93
S'lunge'
p94
sI94
S'glass'
p95
sI95
S'adult'
p96
sI96
S'breaths'
p97
sI97
S'hole'
p98
sI98
S'hold'
p99
sI99
S'blindfold'
p100
sI100
S'shoot'
p101
sI101
S'peekaboo'
p102
sI102
S'bunnies'
p103
sI103
S'room'
p104
sI104
S'blade'
p105
sI105
S'eclipse'
p106
sI106
S'worm'
p107
sI107
S'roof'
p108
sI108
S'locker'
p109
sI109
S'cuddle'
p110
sI110
S'elbow'
p111
sI111
S'exhale'
p112
sI112
S'plunger'
p113
sI113
S'transition'
p114
sI114
S'foodie'
p115
sI115
S'wand'
p116
sI116
S'give'
p117
sI117
S'nozzle'
p118
sI118
S'dolphin'
p119
sI119
S'frown'
p120
sI120
S'dragons'
p121
sI121
S'madonna'
p122
sI122
S'brest'
p123
sI123
S'end'
p124
sI124
S'pogo'
p125
sI125
S'thing'
p126
sI126
S'travel'
p127
sI127
S'braids'
p128
sI128
S'machine'
p129
sI129
S'how'
p130
sI130
S'hot'
p131
sI131
S'drummer'
p132
sI132
S'hop'
p133
sI133
S'cheetah'
p134
sI134
S'beach'
p135
sI135
S'pizza'
p136
sI136
S'pokes'
p137
sI137
S'mess'
p138
sI138
S'ladder'
p139
sI139
S'after'
p140
sI140
S'jumping'
p141
sI141
S'lay'
p142
sI142
S'looked'
p143
sI143
S'lap'
p144
sI144
S'attempt'
p145
sI145
S'third'
p146
sI146
S'pulsate'
p147
sI147
S'nike'
p148
sI148
S'wink'
p149
sI149
S'green'
p150
sI150
S'enter'
p151
sI151
S'wing'
p152
sI152
S'wind'
p153
sI153
S'hedgehog'
p154
sI154
S'flippers'
p155
sI155
S'popsicle'
p156
sI156
S'pelican'
p157
sI157
S'over'
p158
sI158
S'clench'
p159
sI159
S'oven'
p160
sI160
S'keyboard'
p161
sI161
S'windshield'
p162
sI162
S'before'
p163
sI163
S'disburse'
p164
sI164
S'somewhere'
p165
sI165
S'fix'
p166
sI166
S','
sI167
S'carve'
p167
sI168
S'fin'
p168
sI169
S'split'
p169
sI170
S'coffee'
p170
sI171
S'collide'
p171
sI172
S'break'
p172
sI173
S'band'
p173
sI174
S'bang'
p174
sI175
S'giraffe'
p175
sI176
S'velcro'
p176
sI177
S'interrupt'
p177
sI178
S'blink'
p178
sI179
S'silver'
p179
sI180
S'bread'
p180
sI181
S'meat'
p181
sI182
S'potatoes'
p182
sI183
S'rocks'
p183
sI184
S'explode'
p184
sI185
S'filling'
p185
sI186
S'victory'
p186
sI187
S'arrow'
p187
sI188
S'each'
p188
sI189
S'hurdle'
p189
sI190
S'side'
p190
sI191
S'bone'
p191
sI192
S'lifted'
p192
sI193
S'hanger'
p193
sI194
S'snakes'
p194
sI195
S'spider'
p195
sI196
S'sled'
p196
sI197
S'lifter'
p197
sI198
S'juggling'
p198
sI199
S'navy'
p199
sI200
S'ring'
p200
sI201
S'whip'
p201
sI202
S'clothe'
p202
sI203
S'pounce'
p203
sI204
S'snail'
p204
sI205
S'driving'
p205
sI206
S'haired'
p206
sI207
S'forty'
p207
sI208
S'forth'
p208
sI209
S'sliding'
p209
sI210
S'sheep'
p210
sI211
S'turning'
p211
sI212
S'waddle'
p212
sI213
S'fave'
p213
sI214
S'grapes'
p214
sI215
S'putts'
p215
sI216
S'hand'
p216
sI217
S'knit'
p217
sI218
S'lollipop'
p218
sI219
S'ate'
p219
sI220
S'soda'
p220
sI221
S'cucumber'
p221
sI222
S'onto'
p222
sI223
S'shopper'
p223
sI224
S'hoop'
p224
sI225
S'puck'
p225
sI226
S'veggie'
p226
sI227
S'hoot'
p227
sI228
S'wash'
p228
sI229
S'spinning'
p229
sI230
S'downside'
p230
sI231
S'another'
p231
sI232
S'bicycle'
p232
sI233
S'plastic'
p233
sI234
S'hoof'
p234
sI235
S'hood'
p235
sI236
S'centrifuge'
p236
sI237
S'basketball'
p237
sI238
S'top'
p238
sI239
S'neck'
p239
sI240
S'girls'
p240
sI241
S'twisted'
p241
sI242
S'vibrate'
p242
sI243
S'master'
p243
sI244
S'fumble'
p244
sI245
S'inflate'
p245
sI246
S'legs'
p246
sI247
S'dogs'
p247
sI248
S'toe'
p248
sI249
S'kiwi'
p249
sI250
S'ceiling'
p250
sI251
S'emblem'
p251
sI252
S'feathers'
p252
sI253
S'tool'
p253
sI254
S'brushes'
p254
sI255
S'serve'
p255
sI256
S'beanie'
p256
sI257
S'cereal'
p257
sI258
S'crawl'
p258
sI259
S'tires'
p259
sI260
S'icicle'
p260
sI261
S'tree'
p261
sI262
S'seated'
p262
sI263
S'shower'
p263
sI264
S'flame'
p264
sI265
S'friend'
p265
sI266
S'iron'
p266
sI267
S'bridge'
p267
sI268
S'donkey'
p268
sI269
S'ran'
p269
sI270
S'paddles'
p270
sI271
S'rat'
p271
sI272
S'shell'
p272
sI273
S'nipples'
p273
sI274
S'escalator'
p274
sI275
S'snow'
p275
sI276
S'snot'
p276
sI277
S'chest'
p277
sI278
S'ribbon'
p278
sI279
S'doors'
p279
sI280
S'snowflake'
p280
sI281
S'circles'
p281
sI282
S'princess'
p282
sI283
S'wrists'
p283
sI284
S'bruce'
p284
sI285
S'object'
p285
sI286
S'phonograph'
p286
sI287
S'mouth'
p287
sI288
S'letter'
p288
sI289
S'exercises'
p289
sI290
S'coin'
p290
sI291
S'jean'
p291
sI292
S'laughing'
p292
sI293
S'singer'
p293
sI294
S'flop'
p294
sI295
S'flow'
p295
sI296
S'dog'
p296
sI297
S'flinch'
p297
sI298
S'points'
p298
sI299
S'sun'
p299
sI300
S'scream'
p300
sI301
S'dot'
p301
sI302
S'yank'
p302
sI303
S'bomb'
p303
sI304
S'lyrics'
p304
sI305
S'queen'
p305
sI306
S'skitter'
p306
sI307
S'colors'
p307
sI308
S'radio'
p308
sI309
S'peddle'
p309
sI310
S'toast'
p310
sI311
S'bind'
p311
sI312
S'bust'
p312
sI313
S'sugar'
p313
sI314
S'cougar'
p314
sI315
S'knuckle'
p315
sI316
S'touched'
p316
sI317
S'folder'
p317
sI318
S'rice'
p318
sI319
S'wearing'
p319
sI320
S'do'
p320
sI321
S'tiles'
p321
sI322
S'sunglasses'
p322
sI323
S'colorful'
p323
sI324
S'watch'
p324
sI325
S'foremost'
p325
sI326
S'pocket'
p326
sI327
S'watermelon'
p327
sI328
S'wedding'
p328
sI329
S'pawed'
p329
sI330
S'bat'
p330
sI331
S'bar'
p331
sI332
S'tights'
p332
sI333
S'boarder'
p333
sI334
S'patch'
p334
sI335
S'bag'
p335
sI336
S'eyelids'
p336
sI337
S'discs'
p337
sI338
S'shots'
p338
sI339
S'release'
p339
sI340
S'steam'
p340
sI341
S'ears'
p341
sI342
S'habit'
p342
sI343
S'liquor'
p343
sI344
S'splayed'
p344
sI345
S'nun'
p345
sI346
S'flashed'
p346
sI347
S'noodles'
p347
sI348
S'hammer'
p348
sI349
S'hairbrush'
p349
sI350
S'away'
p350
sI351
S'rings'
p351
sI352
S'mud'
p352
sI353
S'mug'
p353
sI354
S'score'
p354
sI355
S'finger'
p355
sI356
S'shaver'
p356
sI357
S'approach'
p357
sI358
S'pirate'
p358
sI359
S'360'
p359
sI360
S'wears'
p360
sI361
S'extend'
p361
sI362
S'handful'
p362
sI363
S'toothbrush'
p363
sI364
S'loading'
p364
sI365
S'ramps'
p365
sI366
S'unfold'
p366
sI367
S'wheelbarrow'
p367
sI368
S'roller'
p368
sI369
S'cop'
p369
sI370
S'veer'
p370
sI371
S'eyeball'
p371
sI372
S'jelly'
p372
sI373
S'against'
p373
sI374
S'bodysuit'
p374
sI375
S'players'
p375
sI376
S'cob'
p376
sI377
S'faces'
p377
sI378
S'wrigley'
p378
sI379
S'widen'
p379
sI380
S'spear'
p380
sI381
S'appeared'
p381
sI382
S'had'
p382
sI383
S'cobble'
p383
sI384
S'2nd'
p384
sI385
S'springy'
p385
sI386
S'towels'
p386
sI387
S'blonde'
p387
sI388
S'heals'
p388
sI389
S'hitler'
p389
sI390
S'headlights'
p390
sI391
S'bathroom'
p391
sI392
S'lightly'
p392
sI393
S'ropes'
p393
sI394
S'smash'
p394
sI395
S'three'
p395
sI396
S'beer'
p396
sI397
S'trigger'
p397
sI398
S'basin'
p398
sI399
S'tallest'
p399
sI400
S'teenager'
p400
sI401
S'spit'
p401
sI402
S'droplets'
p402
sI403
S'worker'
p403
sI404
S'lift'
p404
sI405
S'hoist'
p405
sI406
S'child'
p406
sI407
S'catch'
p407
sI408
S'spin'
p408
sI409
S'tank'
p409
sI410
S'shrink'
p410
sI411
S'air'
p411
sI412
S'lizard'
p412
sI413
S'thrash'
p413
sI414
S'balance'
p414
sI415
S'armband'
p415
sI416
S'cane'
p416
sI417
S'is'
p417
sI418
S'it'
p418
sI419
S'player'
p419
sI420
S'tissue'
p420
sI421
S'cans'
p421
sI422
S'in'
p422
sI423
S'violin'
p423
sI424
S"girls'"
p424
sI425
S'mouse'
p425
sI426
S'id'
p426
sI427
S'if'
p427
sI428
S'growl'
p428
sI429
S'bottles'
p429
sI430
S'credit'
p430
sI431
S'perform'
p431
sI432
S'things'
p432
sI433
S'make'
p433
sI434
S'forehead'
p434
sI435
S'belly'
p435
sI436
S'babies'
p436
sI437
S'vegetable'
p437
sI438
S'plates'
p438
sI439
S'bunny'
p439
sI440
S'wheel'
p440
sI441
S'outstretch'
p441
sI442
S'moose'
p442
sI443
S'rail'
p443
sI444
S'rain'
p444
sI445
S'kit'
p445
sI446
S'hooded'
p446
sI447
S'characters'
p447
sI448
S'unicorn'
p448
sI449
S'nip'
p449
sI450
S'nit'
p450
sI451
S'kid'
p451
sI452
S'drip'
p452
sI453
S'contact'
p453
sI454
S'tombstone'
p454
sI455
S'mother'
p455
sI456
S'the'
p456
sI457
S'musical'
p457
sI458
S'left'
p458
sI459
S'athletic'
p459
sI460
S'photo'
p460
sI461
S'laptop'
p461
sI462
S'moonwalk'
p462
sI463
S'rodent'
p463
sI464
S'fighters'
p464
sI465
S'thumbs'
p465
sI466
S'human'
p466
sI467
S'yes'
p467
sI468
S'brandish'
p468
sI469
S'snout'
p469
sI470
S'nudge'
p470
sI471
S'han'
p471
sI472
S'character'
p472
sI473
S'shout'
p473
sI474
S'spread'
p474
sI475
S'board'
p475
sI476
S'contestant'
p476
sI477
S'hat'
p477
sI478
S'looks'
p478
sI479
S'boxes'
p479
sI480
S'boxer'
p480
sI481
S'background'
p481
sI482
S'cape'
p482
sI483
S'shadow'
p483
sI484
S'apart'
p484
sI485
S'shoulder'
p485
sI486
S'cooler'
p486
sI487
S'performing'
p487
sI488
S'zoom'
p488
sI489
S'unsuspecting'
p489
sI490
S'pavement'
p490
sI491
S'steps'
p491
sI492
S'officer'
p492
sI493
S'zombies'
p493
sI494
S'surf'
p494
sI495
S'right'
p495
sI496
S'old'
p496
sI497
S'deal'
p497
sI498
S'people'
p498
sI499
S'crown'
p499
sI500
S'elderly'
p500
sI501
S'sponge'
p501
sI502
S'hassle'
p502
sI503
S'flatten'
p503
sI504
S'escape'
p504
sI505
S'dear'
p505
sI506
S'creep'
p506
sI507
S'for'
p507
sI508
S'bottom'
p508
sI509
S'purple'
p509
sI510
S'fox'
p510
sI511
S'skateboarded'
p511
sI512
S'microwave'
p512
sI513
S'filming'
p513
sI514
S'treadmill'
p514
sI515
S'skateboarder'
p515
sI516
S'cord'
p516
sI517
S'peek'
p517
sI518
S'shaker'
p518
sI519
S'shakes'
p519
sI520
S'bold'
p520
sI521
S'peel'
p521
sI522
S'lefts'
p522
sI523
S'corn'
p523
sI524
S'pose'
p524
sI525
S'swings'
p525
sI526
S'lamps'
p526
sI527
S'bolt'
p527
sI528
S'peer'
p528
sI529
S'post'
p529
sI530
S'trophy'
p530
sI531
S'slither'
p531
sI532
S'eat'
p532
sI533
S'cowboy'
p533
sI534
S'meow'
p534
sI535
S'ribs'
p535
sI536
S'shield'
p536
sI537
S'o'
sI538
S'magazine'
p537
sI539
S'twitch'
p538
sI540
S'octopus'
p539
sI541
S'sob'
p540
sI542
S'sheets'
p541
sI543
S'float'
p542
sI544
S'down'
p543
sI545
S'fumes'
p544
sI546
S'clomp'
p545
sI547
S'bats'
p546
sI548
S'wrap'
p547
sI549
S'petting'
p548
sI550
S'stumble'
p549
sI551
S'wan'
p550
sI552
S'crowd'
p551
sI553
S'wag'
p552
sI554
S'tennis'
p553
sI555
S'fight'
p554
sI556
S'way'
p555
sI557
S'call'
p556
sI558
S'was'
p557
sI559
S'war'
p558
sI560
S'fork'
p559
sI561
S'head'
p560
sI562
S'form'
p561
sI563
S'fireworks'
p562
sI564
S"objects'"
p563
sI565
S'hear'
p564
sI566
S'otter'
p565
sI567
S'inside'
p566
sI568
S'attached'
p567
sI569
S'crystal'
p568
sI570
S'dare'
p569
sI571
S'trim'
p570
sI572
S'teen'
p571
sI573
S'sidekick'
p572
sI574
S'sticks'
p573
sI575
S'forearm'
p574
sI576
S'toss'
p575
sI577
S'sidestep'
p576
sI578
S'ship'
p577
sI579
S'mold'
p578
sI580
S'trip'
p579
sI581
S'shit'
p580
sI582
S'knows'
p581
sI583
S'crutches'
p582
sI584
S'saber'
p583
sI585
S'dotted'
p584
sI586
S'no'
p585
sI587
S'glacier'
p586
sI588
S'stake'
p587
sI589
S'tip'
p588
sI590
S'actor'
p589
sI591
S'zany'
p590
sI592
S'holding'
p591
sI593
S'papers'
p592
sI594
S'tie'
p593
sI595
S'smell'
p594
sI596
S'roll'
p595
sI597
S'picture'
p596
sI598
S"'s"
p597
sI599
S'palms'
p598
sI600
S'football'
p599
sI601
S'fell'
p600
sI602
S'stoke'
p601
sI603
S'longer'
p602
sI604
S'bullet'
p603
sI605
S'phone'
p604
sI606
S'together'
p605
sI607
S'jacket'
p606
sI608
S'carts'
p607
sI609
S'gyrate'
p608
sI610
S'teeth'
p609
sI611
S'push'
p610
sI612
S'fasten'
p611
sI613
S'backward'
p612
sI614
S'coach'
p613
sI615
S'chain'
p614
sI616
S'dance'
p615
sI617
S'skip'
p616
sI618
S'skis'
p617
sI619
S'rod'
p618
sI620
S'switches'
p619
sI621
S'crocodile'
p620
sI622
S'shimmy'
p621
sI623
S'ice'
p622
sI624
S'skin'
p623
sI625
S'trashcan'
p624
sI626
S'chair'
p625
sI627
S'milk'
p626
sI628
S'row'
p627
sI629
S'hump'
p628
sI630
S'flash'
p629
sI631
S'skateboards'
p630
sI632
S'crates'
p631
sI633
S'charge'
p632
sI634
S'melon'
p633
sI635
S'hammers'
p634
sI636
S'brown'
p635
sI637
S'string'
p636
sI638
S'jerk'
p637
sI639
S'kitten'
p638
sI640
S'cook'
p639
sI641
S'cyan'
p640
sI642
S'airing'
p641
sI643
S'blast'
p642
sI644
S'brows'
p643
sI645
S'tear'
p644
sI646
S'turns'
p645
sI647
S'dig'
p646
sI648
S'posts'
p647
sI649
S'gun'
p648
sI650
S'gum'
p649
sI651
S'item'
p650
sI652
S'grimace'
p651
sI653
S'teal'
p652
sI654
S'team'
p653
sI655
S'guy'
p654
sI656
S'dip'
p655
sI657
S'round'
p656
sI658
S'shave'
p657
sI659
S'upper'
p658
sI660
S'drier'
p659
sI661
S'sigh'
p660
sI662
S'sign'
p661
sI663
S'patient'
p662
sI664
S'drinks'
p663
sI665
S'headset'
p664
sI666
S'appear'
p665
sI667
S'convulse'
p666
sI668
S'uniform'
p667
sI669
S'wriggle'
p668
sI670
S'goer'
p669
sI671
S'trot'
p670
sI672
S'badge'
p671
sI673
S'trampoline'
p672
sI674
S'banister'
p673
sI675
S'wail'
p674
sI676
S'hairs'
p675
sI677
S'makeup'
p676
sI678
S'french'
p677
sI679
S'costumes'
p678
sI680
S'water'
p679
sI681
S'slow'
p680
sI682
S'baseball'
p681
sI683
S'frosting'
p682
sI684
S'hoops'
p683
sI685
S'change'
p684
sI686
S'box'
p685
sI687
S'buck'
p686
sI688
S'shove'
p687
sI689
S'bop'
p688
sI690
S'shift'
p689
sI691
S'muscleman'
p690
sI692
S'bow'
p691
sI693
S'bangs'
p692
sI694
S'raccoon'
p693
sI695
S'boa'
p694
sI696
S'bob'
p695
sI697
S'pillow'
p696
sI698
S'massage'
p697
sI699
S'bog'
p698
sI700
S'teenage'
p699
sI701
S'tweak'
p700
sI702
S'jolt'
p701
sI703
S'kayak'
p702
sI704
S'keeper'
p703
sI705
S'snowboard'
p704
sI706
S'stings'
p705
sI707
S'fake'
p706
sI708
S'pony'
p707
sI709
S'forefront'
p708
sI710
S'dangle'
p709
sI711
S'dude'
p710
sI712
S'handles'
p711
sI713
S'somersault'
p712
sI714
S'sharpen'
p713
sI715
S'swagger'
p714
sI716
S'plug'
p715
sI717
S'conductor'
p716
sI718
S'club'
p717
sI719
S'chocolate'
p718
sI720
S'flapping'
p719
sI721
S'cases'
p720
sI722
S'mascot'
p721
sI723
S'fly'
p722
sI724
S'skaters'
p723
sI725
S'car'
p724
sI726
S'cap'
p725
sI727
S'cat'
p726
sI728
S'soup'
p727
sI729
S'can'
p728
sI730
S'making'
p729
sI731
S'bites'
p730
sI732
S'heart'
p731
sI733
S'performer'
p732
sI734
S'stream'
p733
sI735
S'chip'
p734
sI736
S'near'
p735
sI737
S'parachute'
p736
sI738
S'heard'
p737
sI739
S'stroke'
p738
sI740
S'chin'
p739
sI741
S'clothing'
p740
sI742
S'airplane'
p741
sI743
S'pink'
p742
sI744
S'tube'
p743
sI745
S'tilt'
p744
sI746
S'ping'
p745
sI747
S'lounge'
p746
sI748
S'rubin'
p747
sI749
S'sword'
p748
sI750
S'elephant'
p749
sI751
S'pins'
p750
sI752
S'product'
p751
sI753
S'mat'
p752
sI754
S'cocktail'
p753
sI755
S'dive'
p754
sI756
S'tipped'
p755
sI757
S'mad'
p756
sI758
S'suck'
p757
sI759
S'guys'
p758
sI760
S'lifting'
p759
sI761
S'man'
p760
sI762
S'branches'
p761
sI763
S'waist'
p762
sI764
S'liquid'
p763
sI765
S'wiggle'
p764
sI766
S'drumsticks'
p765
sI767
S'chef'
p766
sI768
S'switch'
p767
sI769
S'truck'
p768
sI770
S'african'
p769
sI771
S'basket'
p770
sI772
S'tall'
p771
sI773
S'gesture'
p772
sI774
S'comfort'
p773
sI775
S'shoes'
p774
sI776
S'pointed'
p775
sI777
S'flips'
p776
sI778
S'huddle'
p777
sI779
S'shake'
p778
sI780
S'pointer'
p779
sI781
S'birds'
p780
sI782
S'dreading'
p781
sI783
S'jig'
p782
sI784
S'tending'
p783
sI785
S'group'
p784
sI786
S'thumb'
p785
sI787
S'curly'
p786
sI788
S'cheerleaders'
p787
sI789
S'curls'
p788
sI790
S'window'
p789
sI791
S'waggle'
p790
sI792
S'tiara'
p791
sI793
S'fling'
p792
sI794
S'nod'
p793
sI795
S'rake'
p794
sI796
S'touching'
p795
sI797
S'tails'
p796
sI798
S'half'
p797
sI799
S'not'
p798
sI800
S'hall'
p799
sI801
S'runners'
p800
sI802
S'execute'
p801
sI803
S'lies'
p802
sI804
S'servant'
p803
sI805
S'scooters'
p804
sI806
S'drop'
p805
sI807
S'arrows'
p806
sI808
S'rock'
p807
sI809
S'quarter'
p808
sI810
S'turtle'
p809
sI811
S'square'
p810
sI812
S'eyelid'
p811
sI813
S'macaroni'
p812
sI814
S'goose'
p813
sI815
S'skydiver'
p814
sI816
S'zeroes'
p815
sI817
S'girl'
p816
sI818
S'bonehead'
p817
sI819
S'canvas'
p818
sI820
S'container'
p819
sI821
S'stitch'
p820
sI822
S'space'
p821
sI823
S'undulate'
p822
sI824
S'looking'
p823
sI825
S'nipper'
p824
sI826
S'penguins'
p825
sI827
S'receiving'
p826
sI828
S'shows'
p827
sI829
S'eagle'
p828
sI830
S'hula'
p829
sI831
S'monster'
p830
sI832
S'cars'
p831
sI833
S'boobs'
p832
sI834
S'cart'
p833
sI835
S'mime'
p834
sI836
S'vinyl'
p835
sI837
S'hobble'
p836
sI838
S'cough'
p837
sI839
S'orb'
p838
sI840
S'card'
p839
sI841
S'fabric'
p840
sI842
S'underwear'
p841
sI843
S'carnival'
p842
sI844
S'backside'
p843
sI845
S'flare'
p844
sI846
S'buzzer'
p845
sI847
S'headphones'
p846
sI848
S'motion'
p847
sI849
S'turn'
p848
sI850
S'place'
p849
sI851
S'pepperoni'
p850
sI852
S'swing'
p851
sI853
S'teammates'
p852
sI854
S'first'
p853
sI855
S'cheese'
p854
sI856
S'flying'
p855
sI857
S'one'
p856
sI858
S'sparkler'
p857
sI859
S'carry'
p858
sI860
S'message'
p859
sI861
S'open'
p860
sI862
S'peddles'
p861
sI863
S'little'
p862
sI864
S'sheet'
p863
sI865
S'bite'
p864
sI866
S'flutter'
p865
sI867
S'2'
sI868
S'stuffed'
p866
sI869
S'white'
p867
sI870
S'frame'
p868
sI871
S'mermaid'
p869
sI872
S'gives'
p870
sI873
S'anus'
p871
sI874
S'eyes'
p872
sI875
S'hug'
p873
sI876
S'that'
p874
sI877
S'butt'
p875
sI878
S'peck'
p876
sI879
S'wide'
p877
sI880
S'television'
p878
sI881
S'12'
p879
sI882
S'knives'
p880
sI883
S'cymbals'
p881
sI884
S'cards'
p882
sI885
S'tractor'
p883
sI886
S'and'
p884
sI887
S'coconut'
p885
sI888
S'lick'
p886
sI889
S'angel'
p887
sI890
S'parking'
p888
sI891
S'turned'
p889
sI892
S'slap'
p890
sI893
S'say'
p891
sI894
S'slam'
p892
sI895
S'pastry'
p893
sI896
S'saw'
p894
sI897
S'any'
p895
sI898
S'sat'
p896
sI899
S'squat'
p897
sI900
S'pirouette'
p898
sI901
S'cigarettes'
p899
sI902
S'knead'
p900
sI903
S'aside'
p901
sI904
S'shocked'
p902
sI905
S'note'
p903
sI906
S'equipment'
p904
sI907
S'take'
p905
sI908
S'upside'
p906
sI909
S'tambourine'
p907
sI910
S'butterfly'
p908
sI911
S'printer'
p909
sI912
S'track'
p910
sI913
S'compress'
p911
sI914
S'zigzag'
p912
sI915
S'printed'
p913
sI916
S'sunglass'
p914
sI917
S'knee'
p915
sI918
S'pages'
p916
sI919
S'dragonfly'
p917
sI920
S'cloth'
p918
sI921
S'napkin'
p919
sI922
S'drive'
p920
sI923
S'tooth'
p921
sI924
S'aerosol'
p922
sI925
S'squint'
p923
sI926
S'wine'
p924
sI927
S'slope'
p925
sI928
S'walking'
p926
sI929
S'show'
p927
sI930
S'bright'
p928
sI931
S'shoe'
p929
sI932
S'corner'
p930
sI933
S'ground'
p931
sI934
S'snack'
p932
sI935
S'stair'
p933
sI936
S'title'
p934
sI937
S'outside'
p935
sI938
S'gulp'
p936
sI939
S'tears'
p937
sI940
S'wood'
p938
sI941
S'black'
p939
sI942
S'hockey'
p940
sI943
S'school'
p941
sI944
S'robe'
p942
sI945
S'pumpkin'
p943
sI946
S'hippo'
p944
sI947
S'explosion'
p945
sI948
S'get'
p946
sI949
S'stomp'
p947
sI950
S'nearly'
p948
sI951
S'lighter'
p949
sI952
S'gem'
p950
sI953
S'artist'
p951
sI954
S'leather'
p952
sI955
S'naked'
p953
sI956
S'priest'
p954
sI957
S'bombs'
p955
sI958
S'through'
p956
sI959
S'tent'
p957
sI960
S'burst'
p958
sI961
S'seat'
p959
sI962
S'seal'
p960
sI963
S'pebble'
p961
sI964
S'sport'
p962
sI965
S'turbine'
p963
sI966
S'sideburns'
p964
sI967
S'ornament'
p965
sI968
S'goers'
p966
sI969
S'teacup'
p967
sI970
S'3'
sI971
S'between'
p968
sI972
S'across'
p969
sI973
S'orchestrate'
p970
sI974
S'screen'
p971
sI975
S'pluck'
p972
sI976
S'guitar'
p973
sI977
S'jets'
p974
sI978
S'tub'
p975
sI979
S'comb'
p976
sI980
S'come'
p977
sI981
S'tug'
p978
sI982
S'mans'
p979
sI983
S'rugby'
p980
sI984
S'tuck'
p981
sI985
S'many'
p982
sI986
S'hours'
p983
sI987
S'contract'
p984
sI988
S'pcs'
p985
sI989
S'wheels'
p986
sI990
S'expression'
p987
sI991
S'backpack'
p988
sI992
S'comes'
p989
sI993
S'passenger'
p990
sI994
S'color'
p991
sI995
S'pot'
p992
sI996
S'jeans'
p993
sI997
S'spank'
p994
sI998
S'singers'
p995
sI999
S'pole'
p996
sI1000
S'stretched'
p997
sI1001
S'poll'
p998
sI1002
S'spark'
p999
sI1003
S'boat'
p1000
sI1004
S'turkey'
p1001
sI1005
S'most'
p1002
sI1006
S'teammate'
p1003
sI1007
S'lioness'
p1004
sI1008
S'teddy'
p1005
sI1009
S'stretch'
p1006
sI1010
S'wobble'
p1007
sI1011
S'undershirt'
p1008
sI1012
S'mark'
p1009
sI1013
S'breath'
p1010
sI1014
S'dictator'
p1011
sI1015
S'helicopter'
p1012
sI1016
S'cords'
p1013
sI1017
S'direction'
p1014
sI1018
S'shopping'
p1015
sI1019
S'with'
p1016
sI1020
S'fours'
p1017
sI1021
S'squash'
p1018
sI1022
S'drawer'
p1019
sI1023
S'language'
p1020
sI1024
S'dribble'
p1021
sI1025
S'cash'
p1022
sI1026
S'trick'
p1023
sI1027
S'newspaper'
p1024
sI1028
S'cock'
p1025
sI1029
S'vest'
p1026
sI1030
S'punches'
p1027
sI1031
S'purse'
p1028
sI1032
S'telephone'
p1029
sI1033
S'sleeping'
p1030
sI1034
S'middle'
p1031
sI1035
S'embrace'
p1032
sI1036
S'heels'
p1033
sI1037
S'return'
p1034
sI1038
S'helmet'
p1035
sI1039
S'pat'
p1036
sI1040
S'paw'
p1037
sI1041
S'bowl'
p1038
sI1042
S'same'
p1039
sI1043
S'figurine'
p1040
sI1044
S'pad'
p1041
sI1045
S'otto'
p1042
sI1046
S'pan'
p1043
sI1047
S'nuzzle'
p1044
sI1048
S'exhaust'
p1045
sI1049
S'closest'
p1046
sI1050
S'applaud'
p1047
sI1051
S'assist'
p1048
sI1052
S'driver'
p1049
sI1053
S'weed'
p1050
sI1054
S'cymbal'
p1051
sI1055
S'persons'
p1052
sI1056
S'running'
p1053
sI1057
S'fruit'
p1054
sI1058
S'statue'
p1055
sI1059
S'cartoon'
p1056
sI1060
S'hummingbird'
p1057
sI1061
S'burrito'
p1058
sI1062
S'random'
p1059
sI1063
S'floor'
p1060
sI1064
S'spoonful'
p1061
sI1065
S'without'
p1062
sI1066
S'bottle'
p1063
sI1067
S'very'
p1064
sI1068
S'model'
p1065
sI1069
S'bodies'
p1066
sI1070
S'lysol'
p1067
sI1071
S'choreography'
p1068
sI1072
S'being'
p1069
sI1073
S'money'
p1070
sI1074
S'dancers'
p1071
sI1075
S'actress'
p1072
sI1076
S'kill'
p1073
sI1077
S'touch'
p1074
sI1078
S'blow'
p1075
sI1079
S'death'
p1076
sI1080
S'snowboarder'
p1077
sI1081
S'bowie'
p1078
sI1082
S'rose'
p1079
sI1083
S'pups'
p1080
sI1084
S'remember'
p1081
sI1085
S'pallet'
p1082
sI1086
S'instrument'
p1083
sI1087
S'4'
sI1088
S'hind'
p1084
sI1089
S'electrical'
p1085
sI1090
S'pill'
p1086
sI1091
S'hoopla'
p1087
sI1092
S'swim'
p1088
sI1093
S'grit'
p1089
sI1094
S'around'
p1090
sI1095
S'read'
p1091
sI1096
S'mop'
p1092
sI1097
S'fridge'
p1093
sI1098
S'dart'
p1094
sI1099
S'dark'
p1095
sI1100
S'chainsaw'
p1096
sI1101
S'snarl'
p1097
sI1102
S'traffic'
p1098
sI1103
S'pop'
p1099
sI1104
S'mom'
p1100
sI1105
S'vacuum'
p1101
sI1106
S'using'
p1102
sI1107
S'lady'
p1103
sI1108
S'grin'
p1104
sI1109
S'furniture'
p1105
sI1110
S'clam'
p1106
sI1111
S'towel'
p1107
sI1112
S'flowers'
p1108
sI1113
S'bracelet'
p1109
sI1114
S'lightning'
p1110
sI1115
S'facing'
p1111
sI1116
S'audience'
p1112
sI1117
S'nose'
p1113
sI1118
S'descend'
p1114
sI1119
S'claw'
p1115
sI1120
S'downward'
p1116
sI1121
S'clap'
p1117
sI1122
S'twelve'
p1118
sI1123
S'fives'
p1119
sI1124
S'doll'
p1120
sI1125
S'ascend'
p1121
sI1126
S'erase'
p1122
sI1127
S'diving'
p1123
sI1128
S'slice'
p1124
sI1129
S'sling'
p1125
sI1130
S'unlocked'
p1126
sI1131
S'shirtless'
p1127
sI1132
S'jiggle'
p1128
sI1133
S'moon'
p1129
sI1134
S'exit'
p1130
sI1135
S'forks'
p1131
sI1136
S'knife'
p1132
sI1137
S'power'
p1133
sI1138
S'nails'
p1134
sI1139
S'robots'
p1135
sI1140
S'pigtails'
p1136
sI1141
S'drums'
p1137
sI1142
S'assemble'
p1138
sI1143
S'throw'
p1139
sI1144
S'motorbike'
p1140
sI1145
S'on'
p1141
sI1146
S'stone'
p1142
sI1147
S'package'
p1143
sI1148
S'of'
p1144
sI1149
S'fishtail'
p1145
sI1150
S'insect'
p1146
sI1151
S'chop'
p1147
sI1152
S'wolf'
p1148
sI1153
S'stand'
p1149
sI1154
S'wold'
p1150
sI1155
S'act'
p1151
sI1156
S'or'
p1152
sI1157
S'road'
p1153
sI1158
S'marshmallow'
p1154
sI1159
S'instruments'
p1155
sI1160
S'image'
p1156
sI1161
S'earring'
p1157
sI1162
S'strip'
p1158
sI1163
S'syringe'
p1159
sI1164
S'pivot'
p1160
sI1165
S'stare'
p1161
sI1166
S'log'
p1162
sI1167
S'her'
p1163
sI1168
S'area'
p1164
sI1169
S'whales'
p1165
sI1170
S'there'
p1166
sI1171
S'cats'
p1167
sI1172
S'low'
p1168
sI1173
S'stars'
p1169
sI1174
S'hen'
p1170
sI1175
S'bubble'
p1171
sI1176
S'kittens'
p1172
sI1177
S'pitcher'
p1173
sI1178
S'eyeliner'
p1174
sI1179
S'cabinet'
p1175
sI1180
S'posterior'
p1176
sI1181
S'recoil'
p1177
sI1182
S'cycle'
p1178
sI1183
S'walkway'
p1179
sI1184
S'downstairs'
p1180
sI1185
S'pull'
p1181
sI1186
S'pule'
p1182
sI1187
S'bucket'
p1183
sI1188
S'tiptoe'
p1184
sI1189
S'strawberry'
p1185
sI1190
S'grasp'
p1186
sI1191
S'jackhammer'
p1187
sI1192
S'grass'
p1188
sI1193
S'torso'
p1189
sI1194
S'toilet'
p1190
sI1195
S'gong'
p1191
sI1196
S'fright'
p1192
sI1197
S'taste'
p1193
sI1198
S'frighten'
p1194
sI1199
S'deer'
p1195
sI1200
S'mike'
p1196
sI1201
S'deep'
p1197
sI1202
S'an'
p1198
sI1203
S'as'
p1199
sI1204
S'at'
p1200
sI1205
S'nero'
p1201
sI1206
S'walks'
p1202
sI1207
S'ax'
p1203
sI1208
S'moves'
p1204
sI1209
S'tremble'
p1205
sI1210
S'film'
p1206
sI1211
S'fill'
p1207
sI1212
S'yoga'
p1208
sI1213
S'gorilla'
p1209
sI1214
S'pedals'
p1210
sI1215
S'swords'
p1211
sI1216
S'rubber'
p1212
sI1217
S'field'
p1213
sI1218
S'astronaut'
p1214
sI1219
S'trash'
p1215
sI1220
S'polar'
p1216
sI1221
S'symbol'
p1217
sI1222
S'time'
p1218
sI1223
S'drift'
p1219
sI1224
S'bullets'
p1220
sI1225
S'peak'
p1221
sI1226
S'mechanical'
p1222
sI1227
S'torches'
p1223
sI1228
S'revolve'
p1224
sI1229
S'sneeze'
p1225
sI1230
S'awkwardly'
p1226
sI1231
S'pool'
p1227
sI1232
S'building'
p1228
sI1233
S'tiger'
p1229
sI1234
S'remote'
p1230
sI1235
S'groom'
p1231
sI1236
S'mask'
p1232
sI1237
S'smooch'
p1233
sI1238
S'scroll'
p1234
sI1239
S'burros'
p1235
sI1240
S'strings'
p1236
sI1241
S'retch'
p1237
sI1242
S'all'
p1238
sI1243
S'skeleton'
p1239
sI1244
S'pointing'
p1240
sI1245
S'seals'
p1241
sI1246
S'disc'
p1242
sI1247
S'smoking'
p1243
sI1248
S'dish'
p1244
sI1249
S'follow'
p1245
sI1250
S'disk'
p1246
sI1251
S'children'
p1247
sI1252
S'carpet'
p1248
sI1253
S'apartment'
p1249
sI1254
S'gymnast'
p1250
sI1255
S'spirit'
p1251
sI1256
S'to'
p1252
sI1257
S'tail'
p1253
sI1258
S'smile'
p1254
sI1259
S'puffs'
p1255
sI1260
S'woman'
p1256
sI1261
S'sitting'
p1257
sI1262
S'far'
p1258
sI1263
S'fat'
p1259
sI1264
S'baton'
p1260
sI1265
S'rogue'
p1261
sI1266
S'fan'
p1262
sI1267
S'fall'
p1263
sI1268
S'bubbles'
p1264
sI1269
S'celebrity'
p1265
sI1270
S'laying'
p1266
sI1271
S'large'
p1267
sI1272
S'dinosaur'
p1268
sI1273
S'sand'
p1269
sI1274
S'adjust'
p1270
sI1275
S'small'
p1271
sI1276
S'sank'
p1272
sI1277
S'flick'
p1273
sI1278
S'cockatoo'
p1274
sI1279
S'fence'
p1275
sI1280
S'tea'
p1276
sI1281
S'tee'
p1277
sI1282
S'straighten'
p1278
sI1283
S'past'
p1279
sI1284
S'burger'
p1280
sI1285
S'unidentifiable'
p1281
sI1286
S'pass'
p1282
sI1287
S'hairspray'
p1283
sI1288
S'chuckle'
p1284
sI1289
S'dial'
p1285
sI1290
S'golfer'
p1286
sI1291
S'tussle'
p1287
sI1292
S'clock'
p1288
sI1293
S'deeply'
p1289
sI1294
S'stool'
p1290
sI1295
S'lurch'
p1291
sI1296
S'<EOS>'
p1292
sI1297
S'skid'
p1293
sI1298
S'abs'
p1294
sI1299
S'racing'
p1295
sI1300
S'guns'
p1296
sI1301
S'movement'
p1297
sI1302
S'toes'
p1298
sI1303
S'ruffle'
p1299
sI1304
S'surfer'
p1300
sI1305
S'puddles'
p1301
sI1306
S'ranger'
p1302
sI1307
S'beacon'
p1303
sI1308
S'trunk'
p1304
sI1309
S'colored'
p1305
sI1310
S'stretching'
p1306
sI1311
S'scurry'
p1307
sI1312
S'soldier'
p1308
sI1313
S'hamster'
p1309
sI1314
S'pick'
p1310
sI1315
S'action'
p1311
sI1316
S'narrow'
p1312
sI1317
S'footballer'
p1313
sI1318
S'sticking'
p1314
sI1319
S'shuffle'
p1315
sI1320
S'while'
p1316
sI1321
S'screens'
p1317
sI1322
S'footwear'
p1318
sI1323
S'toys'
p1319
sI1324
S'extinction'
p1320
sI1325
S'eye'
p1321
sI1326
S'takes'
p1322
sI1327
S'wield'
p1323
sI1328
S'two'
p1324
sI1329
S'generate'
p1325
sI1330
S'splash'
p1326
sI1331
S'wiper'
p1327
sI1332
S'wipes'
p1328
sI1333
S'horses'
p1329
sI1334
S'flat'
p1330
sI1335
S'diamond'
p1331
sI1336
S'door'
p1332
sI1337
S'flap'
p1333
sI1338
S'chucks'
p1334
sI1339
S'chimpanzee'
p1335
sI1340
S'flag'
p1336
sI1341
S'stick'
p1337
sI1342
S'breach'
p1338
sI1343
S'browned'
p1339
sI1344
S'suction'
p1340
sI1345
S'mounted'
p1341
sI1346
S'squish'
p1342
sI1347
S'sleeveless'
p1343
sI1348
S'guards'
p1344
sI1349
S'nine'
p1345
sI1350
S'wrestler'
p1346
sI1351
S'v'
sI1352
S'grope'
p1347
sI1353
S'male'
p1348
sI1354
S'shark'
p1349
sI1355
S'hamburger'
p1350
sI1356
S'pushes'
p1351
sI1357
S'gallop'
p1352
sI1358
S'joints'
p1353
sI1359
S'sphere'
p1354
sI1360
S'pong'
p1355
sI1361
S'mn'
p1356
sI1362
S'dress'
p1357
sI1363
S'extinguisher'
p1358
sI1364
S'goal'
p1359
sI1365
S'khakis'
p1360
sI1366
S'toenail'
p1361
sI1367
S'pcountare'
p1362
sI1368
S'stir'
p1363
sI1369
S'goat'
p1364
sI1370
S'creature'
p1365
sI1371
S'plant'
p1366
sI1372
S'sandwich'
p1367
sI1373
S'rude'
p1368
sI1374
S'capture'
p1369
sI1375
S'plane'
p1370
sI1376
S'lighting'
p1371
sI1377
S'waves'
p1372
sI1378
S'gasp'
p1373
sI1379
S'horizontal'
p1374
sI1380
S'plank'
p1375
sI1381
S'a'
sI1382
S'short'
p1376
sI1383
S'coat'
p1377
sI1384
S'doctor'
p1378
sI1385
S'pucker'
p1379
sI1386
S'stash'
p1380
sI1387
S'dragon'
p1381
sI1388
S'shore'
p1382
sI1389
S'tentacles'
p1383
sI1390
S'chopsticks'
p1384
sI1391
S'pleasure'
p1385
sI1392
S'playing'
p1386
sI1393
S'chicks'
p1387
sI1394
S'infant'
p1388
sI1395
S'help'
p1389
sI1396
S'burn'
p1390
sI1397
S'pant'
p1391
sI1398
S'slouch'
p1392
sI1399
S'paper'
p1393
sI1400
S'dough'
p1394
sI1401
S'lasers'
p1395
sI1402
S'lederhosen'
p1396
sI1403
S'smiling'
p1397
sI1404
S'its'
p1398
sI1405
S'25'
p1399
sI1406
S'style'
p1400
sI1407
S'rapidly'
p1401
sI1408
S'glide'
p1402
sI1409
S'overhead'
p1403
sI1410
S'inward'
p1404
sI1411
S'harmless'
p1405
sI1412
S'coconuts'
p1406
sI1413
S'soccer'
p1407
sI1414
S'sauce'
p1408
sI1415
S'someone'
p1409
sI1416
S'somebody'
p1410
sI1417
S'food'
p1411
sI1418
S'males'
p1412
sI1419
S'snowball'
p1413
sI1420
S'foot'
p1414
sI1421
S'ninja'
p1415
sI1422
S'sucked'
p1416
sI1423
S'stopper'
p1417
sI1424
S'pregnant'
p1418
sI1425
S'eating'
p1419
sI1426
S'swimsuit'
p1420
sI1427
S'slicked'
p1421
sI1428
S'biscuits'
p1422
sI1429
S'notes'
p1423
sI1430
S'weight'
p1424
sI1431
S'house'
p1425
sI1432
S'fish'
p1426
sI1433
S'hard'
p1427
sI1434
S'beret'
p1428
sI1435
S'connect'
p1429
sI1436
S'fist'
p1430
sI1437
S'scissors'
p1431
sI1438
S'harp'
p1432
sI1439
S'mickey'
p1433
sI1440
S'flower'
p1434
sI1441
S'lipstick'
p1435
sI1442
S'surrounded'
p1436
sI1443
S'pigeon'
p1437
sI1444
S'hill'
p1438
sI1445
S'7'
sI1446
S'print'
p1439
sI1447
S'hangers'
p1440
sI1448
S'salute'
p1441
sI1449
S'dunk'
p1442
sI1450
S'foreground'
p1443
sI1451
S'bald'
p1444
sI1452
S'bass'
p1445
sI1453
S'dirt'
p1446
sI1454
S'pug'
p1447
sI1455
S'toy'
p1448
sI1456
S'cookie'
p1449
sI1457
S'murmur'
p1450
sI1458
S'put'
p1451
sI1459
S'beginning'
p1452
sI1460
S'sidewalk'
p1453
sI1461
S'thrown'
p1454
sI1462
S'owners'
p1455
sI1463
S'launch'
p1456
sI1464
S'american'
p1457
sI1465
S'canister'
p1458
sI1466
S'heartbeat'
p1459
sI1467
S'fallen'
p1460
sI1468
S'feed'
p1461
sI1469
S'feel'
p1462
sI1470
S'number'
p1463
sI1471
S'feet'
p1464
sI1472
S'dust'
p1465
sI1473
S'smaller'
p1466
sI1474
S'elevator'
p1467
sI1475
S'blank'
p1468
sI1476
S'cups'
p1469
sI1477
S'miss'
p1470
sI1478
S'horse'
p1471
sI1479
S'heads'
p1472
sI1480
S'guest'
p1473
sI1481
S'jet'
p1474
sI1482
S'swipe'
p1475
sI1483
S'rails'
p1476
sI1484
S'broccoli'
p1477
sI1485
S'paint'
p1478
sI1486
S'leash'
p1479
sI1487
S'storm'
p1480
sI1488
S'fingernail'
p1481
sI1489
S'weave'
p1482
sI1490
S'syrup'
p1483
sI1491
S'banana'
p1484
sI1492
S'ketchup'
p1485
sI1493
S'muscles'
p1486
sI1494
S'passed'
p1487
sI1495
S'pump'
p1488
sI1496
S'exploded'
p1489
sI1497
S'needle'
p1490
sI1498
S'interviewee'
p1491
sI1499
S'interviewed'
p1492
sI1500
S'part'
p1493
sI1501
S'boots'
p1494
sI1502
S'rifle'
p1495
sI1503
S'steaks'
p1496
sI1504
S'stairs'
p1497
sI1505
S'stirs'
p1498
sI1506
S'surfboard'
p1499
sI1507
S'leotard'
p1500
sI1508
S'john'
p1501
sI1509
S'throttle'
p1502
sI1510
S'performers'
p1503
sI1511
S'grey'
p1504
sI1512
S'youth'
p1505
sI1513
S'bride'
p1506
sI1514
S'stalk'
p1507
sI1515
S'toward'
p1508
sI1516
S'tongues'
p1509
sI1517
S'swerve'
p1510
sI1518
S'friends'
p1511
sI1519
S'chipmunk'
p1512
sI1520
S'juice'
p1513
sI1521
S'caress'
p1514
sI1522
S'graffiti'
p1515
sI1523
S'blond'
p1516
sI1524
S'wipers'
p1517
sI1525
S'lid'
p1518
sI1526
S'mountain'
p1519
sI1527
S'koala'
p1520
sI1528
S'dancing'
p1521
sI1529
S'self'
p1522
sI1530
S'flaming'
p1523
sI1531
S'couch'
p1524
sI1532
S'jostle'
p1525
sI1533
S'lip'
p1526
sI1534
S'breaststroke'
p1527
sI1535
S'wormed'
p1528
sI1536
S'gym'
p1529
sI1537
S'play'
p1530
sI1538
S'towards'
p1531
sI1539
S'electric'
p1532
sI1540
S'singles'
p1533
sI1541
S'quote'
p1534
sI1542
S'eggs'
p1535
sI1543
S'reach'
p1536
sI1544
S'prosthetic'
p1537
sI1545
S'react'
p1538
sI1546
S'cigarette'
p1539
sI1547
S'upchucks'
p1540
sI1548
S'nothing'
p1541
sI1549
S'windows'
p1542
sI1550
S'cover'
p1543
sI1551
S'clean'
p1544
sI1552
S'bandanna'
p1545
sI1553
S'hips'
p1546
sI1554
S'fidget'
p1547
sI1555
S'stones'
p1548
sI1556
S'rocker'
p1549
sI1557
S'golf'
p1550
sI1558
S'gold'
p1551
sI1559
S'fins'
p1552
sI1560
S'flicker'
p1553
sI1561
S'hugging'
p1554
sI1562
S'barbell'
p1555
sI1563
S'violinists'
p1556
sI1564
S'stubble'
p1557
sI1565
S'scooter'
p1558
sI1566
S'writer'
p1559
sI1567
S'condom'
p1560
sI1568
S'circle'
p1561
sI1569
S'oscillate'
p1562
sI1570
S'porcupine'
p1563
sI1571
S'his'
p1564
sI1572
S'hit'
p1565
sI1573
S'express'
p1566
sI1574
S'trees'
p1567
sI1575
S'strut'
p1568
sI1576
S'ferret'
p1569
sI1577
S'owls'
p1570
sI1578
S'batter'
p1571
sI1579
S'breast'
p1572
sI1580
S'strum'
p1573
sI1581
S'silk'
p1574
sI1582
S'banner'
p1575
sI1583
S'him'
p1576
sI1584
S'huff'
p1577
sI1585
S'fluff'
p1578
sI1586
S'catcher'
p1579
sI1587
S'motorcycles'
p1580
sI1588
S'sleeve'
p1581
sI1589
S'buttered'
p1582
sI1590
S'cry'
p1583
sI1591
S'remove'
p1584
sI1592
S'perfume'
p1585
sI1593
S'gloves'
p1586
sI1594
S'rear'
p1587
sI1595
S'bars'
p1588
sI1596
S'set'
p1589
sI1597
S'dump'
p1590
sI1598
S'throwing'
p1591
sI1599
S'nibble'
p1592
sI1600
S'see'
p1593
sI1601
S'bare'
p1594
sI1602
S'are'
p1595
sI1603
S'close'
p1596
sI1604
S'bark'
p1597
sI1605
S'outward'
p1598
sI1606
S'sportswear'
p1599
sI1607
S'knees'
p1600
sI1608
S'practice'
p1601
sI1609
S'guinea'
p1602
sI1610
S'slapped'
p1603
sI1611
S'fans'
p1604
sI1612
S'silly'
p1605
sI1613
S'champagne'
p1606
sI1614
S'clerk'
p1607
sI1615
S'kneel'
p1608
sI1616
S'spray'
p1609
sI1617
S'invisible'
p1610
sI1618
S'interpertively'
p1611
sI1619
S'both'
p1612
sI1620
S'cubes'
p1613
sI1621
S'last'
p1614
sI1622
S'buzz'
p1615
sI1623
S'let'
p1616
sI1624
S'sink'
p1617
sI1625
S'load'
p1618
sI1626
S'sloth'
p1619
sI1627
S'pendulum'
p1620
sI1628
S'point'
p1621
sI1629
S'battery'
p1622
sI1630
S'forklift'
p1623
sI1631
S'sweep'
p1624
sI1632
S'dancer'
p1625
sI1633
S'weasel'
p1626
sI1634
S'mumble'
p1627
sI1635
S'along'
p1628
sI1636
S'belt'
p1629
sI1637
S'catwalk'
p1630
sI1638
S'suspenders'
p1631
sI1639
S'devil'
p1632
sI1640
S'raise'
p1633
sI1641
S'create'
p1634
sI1642
S'curve'
p1635
sI1643
S'hitting'
p1636
sI1644
S'peppers'
p1637
sI1645
S'brick'
p1638
sI1646
S'empty'
p1639
sI1647
S'humping'
p1640
sI1648
S'referee'
p1641
sI1649
S'flight'
p1642
sI1650
S'squirrel'
p1643
sI1651
S'boy'
p1644
sI1652
S'fire'
p1645
sI1653
S'wet'
p1646
sI1654
S'gas'
p1647
sI1655
S'sleeves'
p1648
sI1656
S'gag'
p1649
sI1657
S'chatter'
p1650
sI1658
S'fur'
p1651
sI1659
S'look'
p1652
sI1660
S'ski'
p1653
sI1661
S'bill'
p1654
sI1662
S'crutch'
p1655
sI1663
S'rope'
p1656
sI1664
S'pace'
p1657
sI1665
S'bikini'
p1658
sI1666
S'seed'
p1659
sI1667
S'barricade'
p1660
sI1668
S'kick'
p1661
sI1669
S'skier'
p1662
sI1670
S'grip'
p1663
sI1671
S'pound'
p1664
sI1672
S'twiddle'
p1665
sI1673
S'demon'
p1666
sI1674
S'itself'
p1667
sI1675
S'chase'
p1668
sI1676
S'shirt'
p1669
sI1677
S'choking'
p1670
sI1678
S'shorter'
p1671
sI1679
S'firearms'
p1672
sI1680
S'peoples'
p1673
sI1681
S'hallway'
p1674
sI1682
S'itch'
p1675
sI1683
S'ballerina'
p1676
sI1684
S'keys'
p1677
sI1685
S'teeter'
p1678
sI1686
S'cigar'
p1679
sI1687
S'leopard'
p1680
sI1688
S'cement'
p1681
sI1689
S'moving'
p1682
sI1690
S'stripe'
p1683
sI1691
S'stack'
p1684
sI1692
S'canned'
p1685
sI1693
S'lower'
p1686
sI1694
S'swish'
p1687
sI1695
S'cheek'
p1688
sI1696
S'lanes'
p1689
sI1697
S'grind'
p1690
sI1698
S'person'
p1691
sI1699
S'cheer'
p1692
sI1700
S'solider'
p1693
sI1701
S'flags'
p1694
sI1702
S'howl'
p1695
sI1703
S'bandage'
p1696
sI1704
S'chord'
p1697
sI1705
S'press'
p1698
sI1706
S'shape'
p1699
sI1707
S'circling'
p1700
sI1708
S'behind'
p1701
sI1709
S'spiky'
p1702
sI1710
S'prince'
p1703
sI1711
S'jumpsuit'
p1704
sI1712
S'tables'
p1705
sI1713
S'cut'
p1706
sI1714
S'tablet'
p1707
sI1715
S'cup'
p1708
sI1716
S'alternate'
p1709
sI1717
S'cue'
p1710
sI1718
S'cub'
p1711
sI1719
S'crying'
p1712
sI1720
S'tuxedo'
p1713
sI1721
S'snap'
p1714
sI1722
S'limp'
p1715
sI1723
S'march'
p1716
sI1724
S'big'
p1717
sI1725
S'couple'
p1718
sI1726
S'sharpener'
p1719
sI1727
S'tweaks'
p1720
sI1728
S'game'
p1721
sI1729
S'wings'
p1722
sI1730
S'counttile'
p1723
sI1731
S'knock'
p1724
sI1732
S'rotate'
p1725
sI1733
S'shaped'
p1726
sI1734
S'signal'
p1727
sI1735
S'glove'
p1728
sI1736
S'rider'
p1729
sI1737
S'spins'
p1730
sI1738
S'cones'
p1731
sI1739
S'spring'
p1732
sI1740
S'some'
p1733
sI1741
S'back'
p1734
sI1742
S'bounce'
p1735
sI1743
S'lips'
p1736
sI1744
S'palm'
p1737
sI1745
S'candy'
p1738
sI1746
S'mirror'
p1739
sI1747
S'candle'
p1740
sI1748
S'sprint'
p1741
sI1749
S'jewelry'
p1742
sI1750
S'pet'
p1743
sI1751
S'tools'
p1744
sI1752
S'hairband'
p1745
sI1753
S'pen'
p1746
sI1754
S'sneakers'
p1747
sI1755
S'prod'
p1748
sI1756
S'temple'
p1749
sI1757
S't'
sI1758
S'be'
p1750
sI1759
S'run'
p1751
sI1760
S'rapping'
p1752
sI1761
S'rub'
p1753
sI1762
S'rug'
p1754
sI1763
S'zombie'
p1755
sI1764
S'step'
p1756
sI1765
S'santa'
p1757
sI1766
S'cannons'
p1758
sI1767
S'raspberry'
p1759
sI1768
S'by'
p1760
sI1769
S'yawn'
p1761
sI1770
S'god'
p1762
sI1771
S'beans'
p1763
sI1772
S'pcount'
p1764
sI1773
S'block'
p1765
sI1774
S'garbage'
p1766
sI1775
S'into'
p1767
sI1776
S'rollerblade'
p1768
sI1777
S'curtsy'
p1769
sI1778
S'rolls'
p1770
sI1779
S'sashay'
p1771
sI1780
S'scrunch'
p1772
sI1781
S'sock'
p1773
sI1782
S'long'
p1774
sI1783
S'custom'
p1775
sI1784
S'suit'
p1776
sI1785
S'forward'
p1777
sI1786
S'opponent'
p1778
sI1787
S'himself'
p1779
sI1788
S'hawaiian'
p1780
sI1789
S'squirt'
p1781
sI1790
S'poster'
p1782
sI1791
S'slump'
p1783
sI1792
S'boys'
p1784
sI1793
S'crank'
p1785
sI1794
S'line'
p1786
sI1795
S'reel'
p1787
sI1796
S'raising'
p1788
sI1797
S'penguin'
p1789
sI1798
S'fries'
p1790
sI1799
S'up'
p1791
sI1800
S'mobile'
p1792
sI1801
S'cartwheel'
p1793
sI1802
S'highlight'
p1794
sI1803
S'duckling'
p1795
sI1804
S'metal'
p1796
sI1805
S'spoonfuls'
p1797
sI1806
S'curb'
p1798
sI1807
S'necks'
p1799
sI1808
S'bicep'
p1800
sI1809
S'curl'
p1801
sI1810
S'work'
p1802
sI1811
S'lemon'
p1803
sI1812
S'peace'
p1804
sI1813
S'scrape'
p1805
sI1814
S'actors'
p1806
sI1815
S'parakeet'
p1807
sI1816
S'swirl'
p1808
sI1817
S'draw'
p1809
sI1818
S'scrub'
p1810
sI1819
S'gloss'
p1811
sI1820
S'breasts'
p1812
sI1821
S'lens'
p1813
sI1822
S'drag'
p1814
sI1823
S'squirm'
p1815
sI1824
S'wrinkle'
p1816
sI1825
S'sides'
p1817
sI1826
S'wristband'
p1818
sI1827
S'pottery'
p1819
sI1828
S'furthest'
p1820
sI1829
S'lane'
p1821
sI1830
S'land'
p1822
sI1831
S'e'
sI1832
S'blinks'
p1823
sI1833
S'weights'
p1824
sI1834
S'lying'
p1825
sI1835
S'walker'
p1826
sI1836
S'berries'
p1827
sI1837
S'buffalo'
p1828
sI1838
S'hello'
p1829
sI1839
S'scratch'
p1830
sI1840
S'nuns'
p1831
sI1841
S'alien'
p1832
sI1842
S'antennas'
p1833
sI1843
S'go'
p1834
sI1844
S'dumbbell'
p1835
sI1845
S'young'
p1836
sI1846
S'send'
p1837
sI1847
S'attackers'
p1838
sI1848
S'does'
p1839
sI1849
S'outwards'
p1840
sI1850
S'suite'
p1841
sI1851
S'include'
p1842
sI1852
S'rag'
p1843
sI1853
S'unzip'
p1844
sI1854
S'ukulele'
p1845
sI1855
S'ladle'
p1846
sI1856
S'kitty'
p1847
sI1857
S'wave'
p1848
sI1858
S'spool'
p1849
sI1859
S'spoon'
p1850
sI1860
S'llama'
p1851
sI1861
S'drinking'
p1852
sI1862
S'wipe'
p1853
sI1863
S'arrange'
p1854
sI1864
S'entire'
p1855
sI1865
S'magic'
p1856
sI1866
S'knight'
p1857
sI1867
S'button'
p1858
sI1868
S'shock'
p1859
sI1869
S'try'
p1860
sI1870
S'race'
p1861
sI1871
S'athlete'
p1862
sI1872
S'pretend'
p1863
sI1873
S'booty'
p1864
sI1874
S'squirrels'
p1865
sI1875
S'scientist'
p1866
sI1876
S'chomp'
p1867
sI1877
S'jump'
p1868
sI1878
S'fold'
p1869
sI1879
S'video'
p1870
sI1880
S'booth'
p1871
sI1881
S'picked'
p1872
sI1882
S'protrude'
p1873
sI1883
S'pajamas'
p1874
sI1884
S'click'
p1875
sI1885
S'index'
p1876
sI1886
S'poke'
p1877
sI1887
S'plays'
p1878
sI1888
S'giving'
p1879
sI1889
S'vampire'
p1880
sI1890
S'paddle'
p1881
sI1891
S'cell'
p1882
sI1892
S'wiggles'
p1883
sI1893
S'poles'
p1884
sI1894
S'anther'
p1885
sI1895
S'relocate'
p1886
sI1896
S'bird'
p1887
sI1897
S'exercise'
p1888
sI1898
S'body'
p1889
sI1899
S'degree'
p1890
sI1900
S'leg'
p1891
sI1901
S'lei'
p1892
sI1902
S'kangaroo'
p1893
sI1903
S'punch'
p1894
sI1904
S'objects'
p1895
sI1905
S'them'
p1896
sI1906
S'oars'
p1897
sI1907
S'pancake'
p1898
sI1908
S'others'
p1899
sI1909
S'sing'
p1900
sI1910
S'rosary'
p1901
sI1911
S'receive'
p1902
sI1912
S'adjusts'
p1903
sI1913
S'shades'
p1904
sI1914
S'later'
p1905
sI1915
S'orangutan'
p1906
sI1916
S'armpit'
p1907
sI1917
S'popcorn'
p1908
sI1918
S'climb'
p1909
sI1919
S'wig'
p1910
sI1920
S'shovel'
p1911
sI1921
S'apple'
p1912
sI1922
S'sparklers'
p1913
sI1923
S'duck'
p1914
sI1924
S'beckon'
p1915
sI1925
S'apply'
p1916
sI1926
S'singing'
p1917
sI1927
S'manipulate'
p1918
sI1928
S'ape'
p1919
sI1929
S'standing'
p1920
sI1930
S'use'
p1921
sI1931
S'from'
p1922
sI1932
S'figure'
p1923
sI1933
S'frog'
p1924
sI1934
S'next'
p1925
sI1935
S'eleven'
p1926
sI1936
S'camera'
p1927
sI1937
S'crab'
p1928
sI1938
S'vehicle'
p1929
sI1939
S'themselves'
p1930
sI1940
S'cheeks'
p1931
sI1941
S'pencil'
p1932
sI1942
S'giggle'
p1933
sI1943
S'musician'
p1934
sI1944
S'antennae'
p1935
sI1945
S'missile'
p1936
sI1946
S'train'
p1937
sI1947
S'rabbit'
p1938
sI1948
S'baby'
p1939
sI1949
S'women'
p1940
sI1950
S'balls'
p1941
sI1951
S'animals'
p1942
sI1952
S'duster'
p1943
sI1953
S'pout'
p1944
sI1954
S'ride'
p1945
sI1955
S'tease'
p1946
sI1956
S'pour'
p1947
sI1957
S'tag'
p1948
sI1958
S'drops'
p1949
sI1959
S'something'
p1950
sI1960
S'hip'
p1951
sI1961
S'tap'
p1952
sI1962
S'bent'
p1953
sI1963
S'snacks'
p1954
sI1964
S'pelvic'
p1955
sI1965
S'high'
p1956
sI1966
S'carrot'
p1957
sI1967
S'bend'
p1958
sI1968
S'slip'
p1959
sI1969
S'pelvis'
p1960
sI1970
S'rods'
p1961
sI1971
S'paws'
p1962
sI1972
S'skirt'
p1963
sI1973
S'tan'
p1964
sI1974
S'lamb'
p1965
sI1975
S'sip'
p1966
sI1976
S'sit'
p1967
sI1977
S'onions'
p1968
sI1978
S'boxing'
p1969
sI1979
S'lamp'
p1970
sI1980
S'carrier'
p1971
sI1981
S'animal'
p1972
sI1982
S'elliptical'
p1973
sI1983
S'toddler'
p1974
sI1984
S'typewriter'
p1975
sI1985
S'hurdles'
p1976
sI1986
S'blocks'
p1977
sI1987
S'stop'
p1978
sI1988
S'tied'
p1979
sI1989
S'tattoo'
p1980
sI1990
S'wrist'
p1981
sI1991
S'prance'
p1982
sI1992
S'maracas'
p1983
sI1993
S'cabbage'
p1984
sI1994
S'chasing'
p1985
sI1995
S'light'
p1986
sI1996
S'counter'
p1987
sI1997
S'lines'
p1988
sI1998
S'robot'
p1989
sI1999
S'scoop'
p1990
sI2000
S'scoot'
p1991
sI2001
S'coyotes'
p1992
sI2002
S'necklace'
p1993
sI2003
S'quotations'
p1994
sI2004
S'mustache'
p1995
sI2005
S'fastest'
p1996
sI2006
S'ignite'
p1997
sI2007
S'holds'
p1998
sI2008
S'thigh'
p1999
sI2009
S'move'
p2000
sI2010
S'symbols'
p2001
sI2011
S'spatula'
p2002
sI2012
S'hugged'
p2003
sI2013
S'costume'
p2004
sI2014
S'underwater'
p2005
sI2015
S'outer'
p2006
sI2016
S'burning'
p2007
sI2017
S'broom'
p2008
sI2018
S'squatting'
p2009
sI2019
S'gymnasts'
p2010
sI2020
S'orange'
p2011
sI2021
S'covered'
p2012
sI2022
S'dad'
p2013
sI2023
S'flex'
p2014
sI2024
S'crash'
p2015
sI2025
S'skater'
p2016
sI2026
S'dab'
p2017
sI2027
S'skates'
p2018
sI2028
S'runs'
p2019
sI2029
S'oranges'
p2020
sI2030
S'dock'
p2021
sI2031
S'cutting'
p2022
sI2032
S'snake'
p2023
sI2033
S'kiss'
p2024
sI2034
S'hands'
p2025
sI2035
S'front'
p2026
sI2036
S'cage'
p2027
sI2037
S'flail'
p2028
sI2038
S'slide'
p2029
sI2039
S'trap'
p2030
sI2040
S'circular'
p2031
sI2041
S'shaking'
p2032
sI2042
S'glasses'
p2033
sI2043
S'skate'
p2034
sI2044
S'ankles'
p2035
sI2045
S'tabby'
p2036
sI2046
S'bump'
p2037
sI2047
S'globe'
p2038
sI2048
S'buildings'
p2039
sI2049
S'sportsman'
p2040
sI2050
S'books'
p2041
sI2051
S'thirteen'
p2042
sI2052
S'measure'
p2043
sI2053
S'cupboard'
p2044
sI2054
S'sweatshirt'
p2045
sI2055
S'goalkeeper'
p2046
sI2056
S'out'
p2047
sI2057
S'mats'
p2048
sI2058
S'announcer'
p2049
sI2059
S'rev'
p2050
sI2060
S'mate'
p2051
sI2061
S'wick'
p2052
sI2062
S'red'
p2053
sI2063
S'umbrella'
p2054
sI2064
S'completely'
p2055
sI2065
S'thrust'
p2056
sI2066
S'steering'
p2057
sI2067
S'backwards'
p2058
sI2068
S'yard'
p2059
sI2069
S'spill'
p2060
sI2070
S'shells'
p2061
sI2071
S'skateboard'
p2062
sI2072
S'headbutt'
p2063
sI2073
S'yarn'
p2064
sI2074
S'times'
p2065
sI2075
S'stride'
p2066
sI2076
S'scarf'
p2067
sI2077
S'bouquet'
p2068
sI2078
S'taco'
p2069
sI2079
S'scene'
p2070
sI2080
S'puppet'
p2071
sI2081
S'owner'
p2072
sI2082
S'management'
p2073
sI2083
S'monkey'
p2074
sI2084
S'data'
p2075
sI2085
S'their'
p2076
sI2086
S'attack'
p2077
sI2087
S'ankle'
p2078
sI2088
S'rigs'
p2079
sI2089
S'nut'
p2080
sI2090
S'beard'
p2081
sI2091
S'headbands'
p2082
sI2092
S'stomach'
p2083
sI2093
S'shorts'
p2084
sI2094
S'xylophone'
p2085
sI2095
S'motorcycle'
p2086
sI2096
S'feint'
p2087
sI2097
S'larger'
p2088
sI2098
S'fuzzy'
p2089
sI2099
S'herself'
p2090
sI2100
S'noses'
p2091
sI2101
S'buttocks'
p2092
sI2102
S'lion'
p2093
sI2103
S'bed'
p2094
sI2104
S'bee'
p2095
sI2105
S'firework'
p2096
sI2106
S'moonwalks'
p2097
sI2107
S'candles'
p2098
sI2108
S'sculpture'
p2099
sI2109
S'steer'
p2100
sI2110
S'clip'
p2101
sI2111
S'carrots'
p2102
sI2112
S'teenagers'
p2103
sI2113
S'have'
p2104
sI2114
S'drumming'
p2105
sI2115
S'throat'
p2106
sI2116
S'screw'
p2107
sI2117
S'microphone'
p2108
sI2118
S'angle'
p2109
sI2119
S'sprinkler'
p2110
sI2120
S'mic'
p2111
sI2121
S'arm'
p2112
sI2122
S'mix'
p2113
sI2123
S'which'
p2114
sI2124
S'soap'
p2115
sI2125
S'blades'
p2116
sI2126
S'who'
p2117
sI2127
S'rearrange'
p2118
sI2128
S'device'
p2119
sI2129
S'class'
p2120
sI2130
S'beets'
p2121
sI2131
S'face'
p2122
sI2132
S'pipe'
p2123
sI2133
S'talk'
p2124
sI2134
S'movie'
p2125
sI2135
S'painting'
p2126
sI2136
S'scrap'
p2127
sI2137
S'squeegee'
p2128
sI2138
S'kite'
p2129
sI2139
S'gentleman'
p2130
sI2140
S'bum'
p2131
sI2141
S'crate'
p2132
sI2142
S'bring'
p2133
sI2143
S'biker'
p2134
sI2144
S'bikes'
p2135
sI2145
S'chicken'
p2136
sI2146
S'staff'
p2137
sI2147
S'taps'
p2138
sI2148
S'ear'
p2139
sI2149
S'tire'
p2140
sI2150
S'sparks'
p2141
sI2151
S'jaw'
p2142
sI2152
S'combs'
p2143
sI2153
S'jar'
p2144
sI2154
S'should'
p2145
sI2155
S'buttons'
p2146
sI2156
S'tape'
p2147
sI2157
S'riding'
p2148
sI2158
S'piano'
p2149
sI2159
S'jab'
p2150
sI2160
S'dodge'
p2151
sI2161
S'cube'
p2152
sI2162
S'handle'
p2153
sI2163
S'\\?'
p2154
sI2164
S'beat'
p2155
sI2165
S'stripes'
p2156
sI2166
S'bear'
p2157
sI2167
S'beam'
p2158
sI2168
S'words'
p2159
sI2169
S'beak'
p2160
sI2170
S'striped'
p2161
sI2171
S'chips'
p2162
sI2172
S'gray'
p2163
sI2173
S'rapper'
p2164
sI2174
S'eyebrow'
p2165
sI2175
S'stuff'
p2166
sI2176
S'mascara'
p2167
sI2177
S'grab'
p2168
sI2178
S'view'
p2169
sI2179
S'spotted'
p2170
sI2180
S'puddle'
p2171
sI2181
S'computer'
p2172
sI2182
S'powder'
p2173
sI2183
S'violet'
p2174
sI2184
S'racket'
p2175
sI2185
S'wire'
p2176
sI2186
S'record'
p2177
sI2187
S'hammock'
p2178
sI2188
S'unravel'
p2179
sI2189
S'juggle'
p2180
sI2190
S'pistol'
p2181
sI2191
S'pants'
p2182
sI2192
S'bleed'
p2183
sI2193
S'joy'
p2184
sI2194
S'butts'
p2185
sI2195
S'strides'
p2186
sI2196
S"someones'"
p2187
sI2197
S'key'
p2188
sI2198
S'jog'
p2189
sI2199
S'police'
p2190
sI2200
S'jon'
p2191
sI2201
S'monitor'
p2192
sI2202
S'drum'
p2193
sI2203
S'sniff'
p2194
sI2204
S'ramp'
p2195
sI2205
S'aircraft'
p2196
sI2206
S'unbutton'
p2197
sI2207
S'puff'
p2198
sI2208
S'swallow'
p2199
sI2209
S'fry'
p2200
sI2210
S'jersey'
p2201
sI2211
S'wear'
p2202
sI2212
S'wall'
p2203
sI2213
S'denim'
p2204
sI2214
S'walk'
p2205
sI2215
S'laugh'
p2206
sI2216
S'table'
p2207
sI2217
S'inhale'
p2208
sI2218
S'subdue'
p2209
sI2219
S'swimmer'
p2210
sI2220
S'polka'
p2211
sI2221
S'treat'
p2212
sI2222
S'curtain'
p2213
sI2223
S'feather'
p2214
sI2224
S'shoulders'
p2215
sI2225
S'controller'
p2216
sI2226
S'mannequin'
p2217
sI2227
S'bull'
p2218
sI2228
S'bulb'
p2219
sI2229
S'reeves'
p2220
sI2230
S'present'
p2221
sI2231
S'eyelashes'
p2222
sI2232
S'plaid'
p2223
sI2233
S'laser'
p2224
sI2234
S'cow'
p2225
sI2235
S'runway'
p2226
sI2236
S'wild'
p2227
sI2237
S'pictures'
p2228
sI2238
S'bathtub'
p2229
sI2239
S'groin'
p2230
sI2240
S'suckle'
p2231
sI2241
S'file'
p2232
sI2242
S'tickled'
p2233
sI2243
S'demo'
p2234
sI2244
S'squid'
p2235
sI2245
S'surface'
p2236
sI2246
S'rooster'
p2237
sI2247
S'swinging'
p2238
sI2248
S'gunship'
p2239
sI2249
S'partner'
p2240
sI2250
S'sits'
p2241
sI2251
S'whirl'
p2242
sI2252
S'skateboarders'
p2243
sI2253
S'balloon'
p2244
sI2254
S'cross'
p2245
sI2255
S'parts'
p2246
sI2256
S'inch'
p2247
sI2257
S'party'
p2248
sI2258
S'cream'
p2249
sI2259
S'elbows'
p2250
sI2260
S'ball'
p2251
sI2261
S'slightly'
p2252
sI2262
S'drink'
p2253
sI2263
S'diploma'
p2254
sI2264
S'gestures'
p2255
sI2265
S'pedal'
p2256
sI2266
S'whale'
p2257
sI2267
S'collar'
p2258
sI2268
S'numbered'
p2259
sI2269
S'off'
p2260
sI2270
S'center'
p2261
sI2271
S'weapon'
p2262
sI2272
S'obstacles'
p2263
sI2273
S'fighting'
p2264
sI2274
S'scissor'
p2265
sI2275
S'1'
sI2276
S'countetitively'
p2266
sI2277
S'twirl'
p2267
sI2278
S'position'
p2268
sI2279
S'muscle'
p2269
sI2280
S'drawing'
p2270
sI2281
S'interlocked'
p2271
sI2282
S'bending'
p2272
sI2283
S'bananas'
p2273
sI2284
S'camel'
p2274
sI2285
S'rest'
p2275
sI2286
S'lettuce'
p2276
sI2287
S'broomstick'
p2277
sI2288
S'tight'
p2278
sI2289
S'bell'
p2279
sI2290
S'sky'
p2280
sI2291
S'bench'
p2281
sI2292
S'add'
p2282
sI2293
S'other'
p2283
sI2294
S'crack'
p2284
sI2295
S'smart'
p2285
sI2296
S'balloons'
p2286
sI2297
S'match'
p2287
sI2298
S'knob'
p2288
sI2299
S'ledge'
p2289
sI2300
S'dryer'
p2290
sI2301
S'five'
p2291
sI2302
S'know'
p2292
sI2303
S'desk'
p2293
sI2304
S'propeller'
p2294
sI2305
S'insert'
p2295
sI2306
S'puppy'
p2296
sI2307
S'like'
p2297
sI2308
S'onion'
p2298
sI2309
S'chairs'
p2299
sI2310
S'sofa'
p2300
sI2311
S'clown'
p2301
sI2312
S'chick'
p2302
sI2313
S'soft'
p2303
sI2314
S'page'
p2304
sI2315
S'heel'
p2305
sI2316
S'glare'
p2306
sI2317
S'crazily'
p2307
sI2318
S'tumble'
p2308
sI2319
S'hair'
p2309
sI2320
S'trucker'
p2310
sI2321
S'ballot'
p2311
sI2322
S'shrug'
p2312
sI2323
S'leaf'
p2313
sI2324
S'lean'
p2314
sI2325
S'leap'
p2315
sI2326
S'cradle'
p2316
sI2327
S'masked'
p2317
sI2328
S'earrings'
p2318
sI2329
S'speak'
p2319
sI2330
S'hose'
p2320
sI2331
S'bowling'
p2321
sI2332
S'host'
p2322
sI2333
S'pasta'
p2323
sI2334
S'stage'
p2324
sI2335
S'bills'
p2325
sI2336
S'getting'
p2326
sI2337
S'tray'
p2327
sI2338
S'surge'
p2328
sI2339
S'seeds'
p2329
sI2340
S'beige'
p2330
sI2341
S'puppies'
p2331
sI2342
S'tongue'
p2332
sI2343
S'upward'
p2333
sI2344
S'swimming'
p2334
sI2345
S'owl'
p2335
sI2346
S'own'
p2336
sI2347
S'gymnastic'
p2337
sI2348
S'socks'
p2338
sI2349
S'guard'
p2339
sI2350
S'en'
p2340
sI2351
S'brush'
p2341
sI2352
S'female'
p2342
sI2353
S'brass'
p2343
sI2354
S'knuckles'
p2344
sI2355
S'van'
p2345
sI2356
S'gerbil'
p2346
sI2357
S'transfer'
p2347
sI2358
S'vegetables'
p2348
sI2359
S'spots'
p2349
sI2360
S'doing'
p2350
sI2361
S'obstacle'
p2351
sI2362
S'drumstick'
p2352
sI2363
S'gut'
p2353
sI2364
S'toothpaste'
p2354
sI2365
S'backhand'
p2355
sI2366
S'bobble'
p2356
sI2367
S'unwrap'
p2357
sI2368
S'bus'
p2358
sI2369
S'but'
p2359
sI2370
S'hi'
p2360
sI2371
S'bun'
p2361
sI2372
S'gain'
p2362
sI2373
S'gail'
p2363
sI2374
S'backstop'
p2364
sI2375
S'squeeze'
p2365
sI2376
S'bug'
p2366
sI2377
S'bud'
p2367
sI2378
S'he'
p2368
sI2379
S'count'
p2369
sI2380
S'genitals'
p2370
sI2381
S'wise'
p2371
sI2382
S'tab'
p2372
sI2383
S'smooth'
p2373
sI2384
S'flip'
p2374
sI2385
S'placed'
p2375
sI2386
S'below'
p2376
sI2387
S'cello'
p2377
sI2388
S'cake'
p2378
sI2389
S'piece'
p2379
sI2390
S'stirring'
p2380
sI2391
S'skating'
p2381
sI2392
S'rabbits'
p2382
sI2393
S'pin'
p2383
sI2394
S'whisper'
p2384
sI2395
S'circus'
p2385
sI2396
S'kisses'
p2386
sI2397
S'pie'
p2387
sI2398
S'pig'
p2388
sI2399
S'twist'
p2389
sI2400
S'ink'
p2390
sI2401
S'kissed'
p2391
sI2402
S'dressed'
p2392
sI2403
S'guitarist'
p2393
sI2404
S'boot'
p2394
sI2405
S'smears'
p2395
sI2406
S'book'
p2396
sI2407
S'oar'
p2397
sI2408
S'branch'
p2398
sI2409
S'ponytail'
p2399
sI2410
S'frisbee'
p2400
sI2411
S'star'
p2401
sI2412
S'plate'
p2402
sI2413
S'june'
p2403
sI2414
S'bundle'
p2404
sI2415
S'stab'
p2405
sI2416
S'veil'
p2406
sI2417
S'smirk'
p2407
sI2418
S'armor'
p2408
sI2419
S'write'
p2409
sI2420
S'pupil'
p2410
sI2421
S'dominoes'
p2411
sI2422
S'yell'
p2412
s.