(dp1
S'hats'
p2
I3
sS'yellow'
p3
I4
sS'bottons'
p4
I5
sS'woods'
p5
I6
sS'asian'
p6
I7
sS'hanging'
p7
I8
sS'attemp'
p8
I9
sS'shamble'
p9
I10
sS'electricity'
p10
I12
sS'tickle'
p11
I13
sS'swat'
p12
I14
sS'unroll'
p13
I15
sS'bike'
p14
I16
sS'booties'
p15
I17
sS'under'
p16
I18
sS'sway'
p17
I19
sS'worth'
p18
I20
sS'fists'
p19
I21
sS'swivel'
p20
I22
sS'dispense'
p21
I23
sS'blanket'
p22
I24
sS'rise'
p23
I25
sS'smack'
p24
I27
sS'jack'
p25
I28
sS'tank'
p26
I29
sS'disturb'
p27
I31
sS'parrot'
p28
I32
sS'wooden'
p29
I33
sS'pinch'
p30
I34
sS'samurai'
p31
I35
sS'crotch'
p32
I36
sS'ups'
p33
I37
sS'clothes'
p34
I38
sS'chew'
p35
I39
sS'force'
p36
I40
sS'eagle'
p37
I41
sS'bacon'
p38
I42
sS'direct'
p39
I43
sS'pulse'
p40
I44
sS'horn'
p41
I45
sS'nail'
p42
I46
sS'second'
p43
I47
sS'street'
p44
I48
sS'panda'
p45
I49
sS'blue'
p46
I51
sS'hide'
p47
I52
sS'fingers'
p48
I53
sS'lights'
p49
I54
sS'drumbs'
p50
I55
sS'above'
p51
I56
sS'sideways'
p52
I874
sS'new'
p53
I58
sS'pawed'
p54
I59
sS'crunch'
p55
I60
sS'crouch'
p56
I61
sS'chins'
p57
I62
sS'pancakes'
p58
I63
sS'men'
p59
I64
sS'here'
p60
I65
sS'active'
p61
I66
sS'cubical'
p62
I67
sS'kids'
p63
I68
sS'shoulers'
p64
I69
sS'luggage'
p65
I70
sS'items'
p66
I71
sS'leaves'
p67
I72
sS'gymnast'
p68
I1318
sS'smoke'
p69
I74
sS'eyebrows'
p70
I75
sS'hunch'
p71
I76
sS'straw'
p72
I78
sS'headbang'
p73
I879
sS'cane'
p74
I80
sS'punching'
p75
I81
sS'glance'
p76
I82
sS'bra'
p77
I83
sS'opponents'
p78
I84
sS'swings'
p79
I85
sS'lilps'
p80
I86
sS'fingernails'
p81
I87
sS'sweater'
p82
I88
sS'coins'
p83
I89
sS'arms'
p84
I90
sS'princess'
p85
I295
sS'untie'
p86
I11
sS'chinchilla'
p87
I93
sS'strike'
p88
I94
sS'type'
p89
I95
sS'blueberry'
p90
I96
sS'breathe'
p91
I97
sS'holy'
p92
I98
sS'expose'
p93
I99
sS'training'
p94
I100
sS'award'
p95
I101
sS'lunge'
p96
I102
sS'phone'
p97
I103
sS'adult'
p98
I104
sS'breaths'
p99
I105
sS'hole'
p100
I106
sS'hold'
p101
I107
sS'blindfold'
p102
I108
sS'shoot'
p103
I109
sS'peekaboo'
p104
I110
sS'bunnies'
p105
I111
sS'room'
p106
I112
sS'blade'
p107
I695
sS'eclipse'
p108
I114
sS'worm'
p109
I115
sS'roof'
p110
I116
sS'locker'
p111
I117
sS'cuddle'
p112
I118
sS'elbow'
p113
I119
sS'exhale'
p114
I120
sS'plunger'
p115
I121
sS'transition'
p116
I122
sS'foodie'
p117
I123
sS'wand'
p118
I124
sS'give'
p119
I125
sS'nozzle'
p120
I126
sS'dolphin'
p121
I127
sS'motocycle'
p122
I128
sS'dragons'
p123
I129
sS'madonna'
p124
I130
sS'brest'
p125
I131
sS'twerk'
p126
I2416
sS'end'
p127
I132
sS'pogo'
p128
I133
sS'thing'
p129
I134
sS'travel'
p130
I135
sS'braids'
p131
I136
sS'machine'
p132
I137
sS'far'
p133
I1326
sS'hot'
p134
I139
sS'drummer'
p135
I140
sS'bunt'
p136
I141
sS'hop'
p137
I142
sS'airquote'
p138
I143
sS'beach'
p139
I145
sS'pizza'
p140
I146
sS'mess'
p141
I147
sS'ladder'
p142
I148
sS'after'
p143
I149
sS'jumping'
p144
I150
sS'lay'
p145
I151
sS'sparkler'
p146
I152
sS'lap'
p147
I153
sS'attempt'
p148
I154
sS'third'
p149
I155
sS'pulsate'
p150
I156
sS'wink'
p151
I157
sS'upside'
p152
I158
sS'enter'
p153
I159
sS'wing'
p154
I160
sS'squint'
p155
I969
sS'wine'
p156
I162
sS'cymbols'
p157
I163
sS'flippers'
p158
I164
sS'pelican'
p159
I165
sS'over'
p160
I166
sS'fall'
p161
I1332
sS'teen'
p162
I1406
sS'oven'
p163
I168
sS'keyboard'
p164
I169
sS'windshield'
p165
I170
sS'before'
p166
I171
sS'somewhere'
p167
I172
sS'fix'
p168
I173
sS','
I174
sS'carve'
p169
I175
sS'fin'
p170
I176
sS'split'
p171
I177
sS'coffee'
p172
I178
sS'collide'
p173
I179
sS'break'
p174
I180
sS'band'
p175
I181
sS'bang'
p176
I182
sS'giraffe'
p177
I183
sS'velcro'
p178
I184
sS'interrupt'
p179
I185
sS'blink'
p180
I186
sS'silver'
p181
I187
sS'bread'
p182
I188
sS'gallop'
p183
I1429
sS'meat'
p184
I189
sS'potatoes'
p185
I190
sS'rocks'
p186
I191
sS'explode'
p187
I192
sS'filling'
p188
I193
sS'victory'
p189
I194
sS'arrow'
p190
I195
sS'each'
p191
I196
sS'puppet'
p192
I2185
sS'side'
p193
I198
sS'bone'
p194
I199
sS'lifted'
p195
I200
sS'hanger'
p196
I201
sS'snakes'
p197
I202
sS'spider'
p198
I203
sS'sled'
p199
I204
sS'lifter'
p200
I205
sS'juggling'
p201
I206
sS'navy'
p202
I207
sS'ring'
p203
I208
sS'whip'
p204
I209
sS'clothe'
p205
I210
sS'pounce'
p206
I211
sS'itch'
p207
I1773
sS'driving'
p208
I213
sS'haired'
p209
I1302
sS'forty'
p210
I216
sS'forth'
p211
I218
sS'sliding'
p212
I219
sS'peddles'
p213
I220
sS'turning'
p214
I221
sS'waddle'
p215
I222
sS'fave'
p216
I223
sS'struggle'
p217
I224
sS'grapes'
p218
I225
sS'putts'
p219
I226
sS'hand'
p220
I468
sS'knit'
p221
I228
sS'lollipop'
p222
I229
sS'poles'
p223
I1988
sS'soda'
p224
I230
sS'moving'
p225
I1780
sS'onto'
p226
I232
sS'chakle'
p227
I233
sS'shopper'
p228
I234
sS'hoop'
p229
I235
sS'puck'
p230
I236
sS'veggie'
p231
I237
sS'hoot'
p232
I238
sS'wash'
p233
I239
sS'spinning'
p234
I240
sS'downside'
p235
I241
sS'another'
p236
I242
sS'bicycle'
p237
I243
sS'hoof'
p238
I245
sS'hood'
p239
I246
sS'centrifuge'
p240
I247
sS'basketball'
p241
I248
sS'top'
p242
I249
sS'girls'
p243
I251
sS'twisted'
p244
I252
sS'vibrate'
p245
I253
sS'blowned'
p246
I254
sS'master'
p247
I255
sS'fumble'
p248
I256
sS'inflate'
p249
I257
sS'legs'
p250
I258
sS'dogs'
p251
I259
sS'toe'
p252
I260
sS'kiwi'
p253
I261
sS'ceiling'
p254
I262
sS'emblem'
p255
I263
sS'canned'
p256
I1783
sS'feathers'
p257
I264
sS'gym'
p258
I265
sS'serve'
p259
I266
sS'prosthetic'
p260
I1630
sS'cereal'
p261
I268
sS'crawl'
p262
I269
sS'chef'
p263
I810
sS'icicle'
p264
I271
sS'tree'
p265
I272
sS'seated'
p266
I273
sS'shower'
p267
I274
sS'flame'
p268
I275
sS'mermaid'
p269
I915
sS'iron'
p270
I277
sS'mini'
p271
I278
sS'donkey'
p272
I279
sS'fingrs'
p273
I917
sS'ran'
p274
I281
sS'paddles'
p275
I282
sS'rat'
p276
I283
sS'seed'
p277
I284
sS'nipples'
p278
I285
sS'escalator'
p279
I286
sS'necktie'
p280
I287
sS'snow'
p281
I288
sS'snot'
p282
I289
sS'chest'
p283
I290
sS'chuckle'
p284
I1353
sS'doors'
p285
I292
sS'snowflake'
p286
I293
sS'circles'
p287
I294
sS'wrists'
p288
I296
sS'object'
p289
I297
sS'phonograph'
p290
I298
sS'what'
p291
I1354
sS'mouth'
p292
I300
sS'baricade'
p293
I301
sS'letter'
p294
I302
sS'coin'
p295
I303
sS'jean'
p296
I304
sS'singer'
p297
I306
sS'pointe'
p298
I307
sS'flop'
p299
I308
sS'flow'
p300
I309
sS'dog'
p301
I310
sS'releves'
p302
I311
sS'deeply'
p303
I1357
sS'scream'
p304
I313
sS'dot'
p305
I314
sS'yank'
p306
I315
sS'bomb'
p307
I316
sS'lyrics'
p308
I317
sS'random'
p309
I318
sS'skitter'
p310
I319
sS'colors'
p311
I320
sS'radio'
p312
I321
sS'peddle'
p313
I322
sS'toast'
p314
I323
sS'bust'
p315
I325
sS'sugar'
p316
I326
sS'cougar'
p317
I327
sS'knuckle'
p318
I328
sS'touched'
p319
I329
sS'folder'
p320
I330
sS'rice'
p321
I331
sS'wearing'
p322
I332
sS'do'
p323
I333
sS'tiles'
p324
I334
sS'sunglasses'
p325
I335
sS'colorful'
p326
I336
sS'10'
p327
I924
sS'watch'
p328
I338
sS'foremost'
p329
I339
sS'pocket'
p330
I340
sS'watermelon'
p331
I341
sS'wedding'
p332
I342
sS'toungue'
p333
I343
sS'net'
p334
I344
sS'bat'
p335
I345
sS'bar'
p336
I346
sS'tights'
p337
I347
sS'boarder'
p338
I348
sS'patch'
p339
I349
sS'bag'
p340
I350
sS'eyelids'
p341
I351
sS'discs'
p342
I352
sS'shots'
p343
I353
sS'release'
p344
I354
sS'steam'
p345
I355
sS'ears'
p346
I356
sS'habit'
p347
I357
sS'nut'
p348
I358
sS'nun'
p349
I360
sS'stetch'
p350
I361
sS'bed'
p351
I2212
sS'noodles'
p352
I363
sS'hammer'
p353
I364
sS'hairbrush'
p354
I365
sS'wingles'
p355
I366
sS'away'
p356
I367
sS'rings'
p357
I368
sS'mud'
p358
I369
sS'mug'
p359
I370
sS'score'
p360
I371
sS'finger'
p361
I372
sS'shaver'
p362
I373
sS'approach'
p363
I374
sS'pirate'
p364
I375
sS'360'
p365
I376
sS'wears'
p366
I377
sS'extend'
p367
I378
sS'handful'
p368
I379
sS'veil'
p369
I2544
sS'toothbrush'
p370
I380
sS'wear'
p371
I381
sS'unfold'
p372
I382
sS'wheelbarrow'
p373
I383
sS'shoulds'
p374
I1370
sS'roller'
p375
I386
sS'cop'
p376
I387
sS'cow'
p377
I388
sS'eyedrops'
p378
I389
sS'eyeball'
p379
I390
sS'jelly'
p380
I391
sS'against'
p381
I392
sS'bodysuit'
p382
I393
sS'players'
p383
I394
sS'cob'
p384
I395
sS'faces'
p385
I396
sS'#START#'
p386
I0
sS'widen'
p387
I397
sS'spear'
p388
I398
sS'appeared'
p389
I399
sS'character'
p390
I400
sS'cobble'
p391
I401
sS'2nd'
p392
I402
sS'springy'
p393
I403
sS'towels'
p394
I404
sS'blonde'
p395
I405
sS'heals'
p396
I406
sS'hitler'
p397
I407
sS'speak'
p398
I408
sS'bathroom'
p399
I409
sS'clip'
p400
I2219
sS'ropes'
p401
I411
sS'three'
p402
I413
sS'beer'
p403
I414
sS'trigger'
p404
I415
sS'basin'
p405
I416
sS'tallest'
p406
I417
sS'teenager'
p407
I418
sS'baloon'
p408
I419
sS'spit'
p409
I420
sS'droplets'
p410
I421
sS'worker'
p411
I422
sS'teenagers'
p412
I2221
sS'lift'
p413
I424
sS'hoist'
p414
I425
sS'child'
p415
I426
sS'catch'
p416
I427
sS'spin'
p417
I428
sS'spim'
p418
I429
sS'harms'
p419
I430
sS'drumset'
p420
I431
sS'shrink'
p421
I432
sS'air'
p422
I433
sS'near'
p423
I778
sS'thrash'
p424
I435
sS'balance'
p425
I436
sS'armband'
p426
I437
sS'cons'
p427
I438
sS'is'
p428
I439
sS'it'
p429
I440
sS'player'
p430
I441
sS'tissue'
p431
I442
sS'cans'
p432
I443
sS'in'
p433
I444
sS'violin'
p434
I445
sS'mouse'
p435
I447
sS'id'
p436
I448
sS'if'
p437
I449
sS'growl'
p438
I450
sS'bottles'
p439
I451
sS'credit'
p440
I452
sS'perform'
p441
I453
sS'things'
p442
I454
sS'make'
p443
I455
sS'forehead'
p444
I456
sS'belly'
p445
I458
sS'vegetable'
p446
I459
sS'plates'
p447
I460
sS'bunny'
p448
I461
sS'wheel'
p449
I462
sS'outstretch'
p450
I463
sS'moose'
p451
I464
sS'rail'
p452
I465
sS'microphone'
p453
I2225
sS'rain'
p454
I467
sS'kit'
p455
I227
sS'squat'
p456
I943
sS'characters'
p457
I470
sS'unicorn'
p458
I471
sS'nip'
p459
I472
sS'nit'
p460
I473
sS'kid'
p461
I474
sS'drip'
p462
I475
sS'deal'
p463
I581
sS'contact'
p464
I476
sS'tombstone'
p465
I477
sS'mother'
p466
I478
sS'the'
p467
I479
sS'musical'
p468
I480
sS'left'
p469
I481
sS'gody'
p470
I482
sS'athletic'
p471
I483
sS'photo'
p472
I484
sS'laptop'
p473
I485
sS'moonwalk'
p474
I486
sS'rodent'
p475
I487
sS'fighters'
p476
I488
sS'thumbs'
p477
I489
sS'human'
p478
I490
sS'yes'
p479
I491
sS'brandish'
p480
I492
sS'note'
p481
I949
sS'nudge'
p482
I494
sS'han'
p483
I495
sS'had'
p484
I496
sS'shout'
p485
I497
sS'spread'
p486
I498
sS'board'
p487
I499
sS'contestant'
p488
I500
sS'hat'
p489
I501
sS'photographed'
p490
I502
sS'bdoy'
p491
I503
sS'feets'
p492
I504
sS'boxes'
p493
I506
sS'boxer'
p494
I507
sS'pepperornoi'
p495
I508
sS'background'
p496
I509
sS'cape'
p497
I510
sS'shadow'
p498
I511
sS'apart'
p499
I512
sS'shoulder'
p500
I513
sS'cooler'
p501
I514
sS'performing'
p502
I515
sS'zoom'
p503
I516
sS'unsuspecting'
p504
I517
sS'pavement'
p505
I518
sS'steps'
p506
I519
sS'officer'
p507
I520
sS'zombies'
p508
I521
sS'surf'
p509
I522
sS'right'
p510
I523
sS'old'
p511
I524
sS'crowd'
p512
I525
sS'people'
p513
I526
sS'staff'
p514
I2256
sS'crown'
p515
I527
sS'elderly'
p516
I528
sS'sponge'
p517
I529
sS'hassle'
p518
I530
sS'flatten'
p519
I531
sS'escape'
p520
I532
sS'dear'
p521
I533
sS'creep'
p522
I534
sS'for'
p523
I535
sS'bottom'
p524
I536
sS'purple'
p525
I537
sS'fox'
p526
I538
sS'headshake'
p527
I539
sS'microwave'
p528
I540
sS'filming'
p529
I541
sS'treadmill'
p530
I542
sS'skateboarder'
p531
I543
sS'tamburine'
p532
I544
sS'drink'
p533
I2381
sS'cord'
p534
I545
sS'peek'
p535
I546
sS'shaker'
p536
I547
sS'peel'
p537
I548
sS'lefts'
p538
I549
sS'finguer'
p539
I550
sS'corn'
p540
I551
sS'pose'
p541
I708
sS'lamps'
p542
I553
sS'bolt'
p543
I554
sS'keeper'
p544
I740
sS'post'
p545
I556
sS'plug'
p546
I755
sS'slither'
p547
I558
sS'cowboy'
p548
I559
sS'meow'
p549
I560
sS'ribs'
p550
I561
sS'o'
I563
sS'magazine'
p551
I564
sS'twitch'
p552
I565
sS'octopus'
p553
I873
sS'sob'
p554
I567
sS'sheets'
p555
I568
sS'float'
p556
I569
sS'tamberine'
p557
I570
sS'down'
p558
I571
sS'lies'
p559
I845
sS'clomp'
p560
I573
sS'bats'
p561
I574
sS'raises'
p562
I575
sS'wrap'
p563
I576
sS'petting'
p564
I577
sS'insult'
p565
I578
sS'stumble'
p566
I579
sS'wan'
p567
I580
sS'yawn'
p568
I1862
sS'fabric'
p569
I883
sS'wag'
p570
I582
sS'flying'
p571
I899
sS'sunlight'
p572
I584
sS'fight'
p573
I585
sS'ramps'
p574
I586
sS'way'
p575
I587
sS'pipe'
p576
I2242
sS'overhead'
p577
I588
sS'was'
p578
I589
sS'war'
p579
I590
sS'fork'
p580
I591
sS'head'
p581
I592
sS'pirouette'
p582
I944
sS'offer'
p583
I594
sS'fireworks'
p584
I595
sS'hear'
p585
I596
sS'otter'
p586
I597
sS'inside'
p587
I598
sS'attached'
p588
I599
sS'crystal'
p589
I600
sS'sratch'
p590
I601
sS'trim'
p591
I603
sS'zeroes'
p592
I857
sS'later'
p593
I605
sS'sticks'
p594
I606
sS'forearm'
p595
I607
sS'toss'
p596
I608
sS'sidestep'
p597
I609
sS'ship'
p598
I610
sS'mold'
p599
I611
sS'trip'
p600
I612
sS'shit'
p601
I613
sS'crutches'
p602
I1104
sS'saber'
p603
I615
sS'dotted'
p604
I616
sS'floor'
p605
I1118
sS'glacier'
p606
I618
sS'stake'
p607
I619
sS'tip'
p608
I620
sS'actor'
p609
I621
sS'zany'
p610
I622
sS'holding'
p611
I623
sS'papers'
p612
I624
sS'tie'
p613
I625
sS'smell'
p614
I626
sS'roll'
p615
I627
sS'picture'
p616
I628
sS"'s"
p617
I629
sS'elephant'
p618
I2128
sS'palms'
p619
I1184
sS'rubberband'
p620
I631
sS'football'
p621
I632
sS'stoke'
p622
I633
sS'longer'
p623
I634
sS'bullet'
p624
I635
sS'glass'
p625
I636
sS'together'
p626
I637
sS'jacket'
p627
I638
sS'gorilla'
p628
I1275
sS'gyrate'
p629
I640
sS'time'
p630
I1284
sS'push'
p631
I642
sS'fasten'
p632
I643
sS'backward'
p633
I644
sS'coach'
p634
I645
sS'chain'
p635
I646
sS'dance'
p636
I647
sS'skip'
p637
I648
sS'skis'
p638
I649
sS'rod'
p639
I650
sS'focus'
p640
I651
sS'switches'
p641
I652
sS'crocodile'
p642
I653
sS'shimmy'
p643
I654
sS'ice'
p644
I655
sS'skin'
p645
I656
sS'trashcan'
p646
I657
sS'chair'
p647
I658
sS'skid'
p648
I659
sS'row'
p649
I660
sS'tounge'
p650
I661
sS'hump'
p651
I662
sS'flash'
p652
I663
sS'crates'
p653
I665
sS'waterguns'
p654
I666
sS'charge'
p655
I667
sS'melon'
p656
I668
sS'hammers'
p657
I669
sS'eybrows'
p658
I670
sS'brown'
p659
I671
sS'smartphone'
p660
I672
sS'string'
p661
I673
sS'jerk'
p662
I674
sS'kitten'
p663
I675
sS'cook'
p664
I676
sS'cyan'
p665
I677
sS'blast'
p666
I678
sS'brows'
p667
I679
sS'tear'
p668
I680
sS'turns'
p669
I681
sS'dig'
p670
I682
sS'posts'
p671
I683
sS'gun'
p672
I684
sS'gum'
p673
I685
sS'item'
p674
I686
sS'grimace'
p675
I687
sS'teal'
p676
I688
sS'team'
p677
I689
sS'guy'
p678
I690
sS'dip'
p679
I691
sS'round'
p680
I692
sS'shave'
p681
I693
sS'upper'
p682
I694
sS'work'
p683
I113
sS'sigh'
p684
I696
sS'sign'
p685
I697
sS'patient'
p686
I457
sS'drinks'
p687
I699
sS'headset'
p688
I700
sS'appear'
p689
I701
sS'convulse'
p690
I702
sS'uniform'
p691
I703
sS'wriggle'
p692
I704
sS'goer'
p693
I705
sS'ground'
p694
I706
sS'badge'
p695
I707
sS'burn'
p696
I1246
sS'banister'
p697
I709
sS'wail'
p698
I710
sS'camel'
p699
I2402
sS'hairs'
p700
I711
sS'makeup'
p701
I712
sS'french'
p702
I713
sS'rug'
p703
I1854
sS'water'
p704
I715
sS'slow'
p705
I716
sS'baseball'
p706
I717
sS'frosting'
p707
I718
sS'hoops'
p708
I719
sS'haird'
p709
I720
sS'change'
p710
I721
sS'box'
p711
I722
sS'passengers'
p712
I215
sS'shove'
p713
I724
sS'bop'
p714
I725
sS'shift'
p715
I726
sS'muscleman'
p716
I727
sS'bow'
p717
I728
sS'bangs'
p718
I729
sS'jaw'
p719
I2261
sS'raccoon'
p720
I730
sS'boa'
p721
I731
sS'bob'
p722
I732
sS'backstep'
p723
I733
sS'pillow'
p724
I734
sS'massage'
p725
I735
sS'bog'
p726
I736
sS'teenage'
p727
I737
sS'tuxedo'
p728
I738
sS'kayak'
p729
I739
sS'peer'
p730
I555
sS'snowboard'
p731
I741
sS'stings'
p732
I742
sS'fake'
p733
I743
sS'hamburger'
p734
I1427
sS'forefront'
p735
I745
sS'bended'
p736
I746
sS'dangle'
p737
I747
sS'dude'
p738
I748
sS'oponent'
p739
I988
sS'handles'
p740
I750
sS'somersault'
p741
I751
sS'sharpen'
p742
I752
sS'swagger'
p743
I753
sS'prep'
p744
I754
sS'trophy'
p745
I557
sS'conductor'
p746
I756
sS'club'
p747
I757
sS'chocolate'
p748
I758
sS'dumbell'
p749
I760
sS'flapping'
p750
I761
sS'cases'
p751
I762
sS'mascot'
p752
I763
sS'fly'
p753
I764
sS'skaters'
p754
I765
sS'car'
p755
I766
sS'pretend'
p756
I767
sS'cat'
p757
I768
sS'soup'
p758
I769
sS'can'
p759
I770
sS'making'
p760
I771
sS'sidways'
p761
I772
sS'bites'
p762
I773
sS'heart'
p763
I774
sS'performer'
p764
I775
sS'stream'
p765
I776
sS'chip'
p766
I777
sS'parachute'
p767
I779
sS'drawer'
p768
I780
sS'stroke'
p769
I781
sS'chin'
p770
I782
sS'clothing'
p771
I783
sS'pong'
p772
I1434
sS'chid'
p773
I785
sS'pink'
p774
I786
sS'rubix'
p775
I787
sS'tube'
p776
I2072
sS'tilt'
p777
I789
sS'ping'
p778
I790
sS'write'
p779
I791
sS'fourth'
p780
I792
sS'skates'
p781
I793
sS'pins'
p782
I794
sS'product'
p783
I795
sS'mat'
p784
I796
sS'cocktail'
p785
I797
sS'dive'
p786
I798
sS'tipped'
p787
I799
sS'suck'
p788
I800
sS'headscarf'
p789
I801
sS'lifting'
p790
I802
sS'man'
p791
I803
sS'reposition'
p792
I804
sS'branches'
p793
I805
sS'neck'
p794
I250
sS'liquid'
p795
I807
sS'wiggle'
p796
I2278
sS'drumsticks'
p797
I809
sS'carts'
p798
I639
sS'switch'
p799
I811
sS'truck'
p800
I812
sS'african'
p801
I813
sS'basket'
p802
I814
sS'tall'
p803
I815
sS'talk'
p804
I816
sS'breaking'
p805
I1629
sS'shield'
p806
I562
sS'pointed'
p807
I819
sS'flips'
p808
I820
sS'huddle'
p809
I1502
sS'shake'
p810
I821
sS'turnlight'
p811
I822
sS'pointer'
p812
I823
sS'birds'
p813
I824
sS'dreading'
p814
I825
sS'jig'
p815
I826
sS'tending'
p816
I827
sS'group'
p817
I828
sS'thumb'
p818
I829
sS'curly'
p819
I830
sS'cheerleaders'
p820
I831
sS'window'
p821
I832
sS'fright'
p822
I2337
sS'waggle'
p823
I833
sS'tiara'
p824
I834
sS'fling'
p825
I835
sS'nod'
p826
I836
sS'rake'
p827
I837
sS'touching'
p828
I838
sS'tails'
p829
I839
sS'half'
p830
I840
sS'not'
p831
I841
sS'hall'
p832
I842
sS'runners'
p833
I843
sS'execute'
p834
I844
sS'fumes'
p835
I572
sS'servant'
p836
I846
sS'scooters'
p837
I847
sS'drop'
p838
I848
sS'bowling'
p839
I849
sS'quarter'
p840
I850
sS'turtle'
p841
I851
sS'square'
p842
I852
sS'eyelid'
p843
I853
sS'plant'
p844
I1445
sS'goose'
p845
I855
sS'skydiver'
p846
I856
sS'girl'
p847
I858
sS'buzz'
p848
I1711
sS'bonehead'
p849
I859
sS'canvas'
p850
I860
sS'container'
p851
I861
sS'stitch'
p852
I862
sS'space'
p853
I863
sS'undulate'
p854
I865
sS'looking'
p855
I866
sS'priest'
p856
I1007
sS'receiving'
p857
I868
sS'shows'
p858
I869
sS'tweeze'
p859
I870
sS'maneuver'
p860
I871
sS'hula'
p861
I872
sS'monster'
p862
I50
sS'cars'
p863
I57
sS'boobs'
p864
I875
sS'cart'
p865
I876
sS'mime'
p866
I877
sS'vinyl'
p867
I878
sS'hobble'
p868
I79
sS'headband'
p869
I2
sS'orb'
p870
I881
sS'card'
p871
I882
sS'underwear'
p872
I884
sS'carnival'
p873
I759
sS'backside'
p874
I886
sS'flare'
p875
I887
sS'headphones'
p876
I889
sS'tries'
p877
I1450
sS'motion'
p878
I891
sS'turn'
p879
I892
sS'place'
p880
I893
sS'footwear'
p881
I894
sS'swing'
p882
I895
sS'view'
p883
I2293
sS'teammates'
p884
I896
sS'first'
p885
I897
sS'cheese'
p886
I898
sS'tennis'
p887
I583
sS'zag'
p888
I900
sS'disburse'
p889
I901
sS'carry'
p890
I902
sS'message'
p891
I903
sS'open'
p892
I904
sS'sheep'
p893
I905
sS'little'
p894
I906
sS'sheet'
p895
I907
sS'bite'
p896
I908
sS'plastic'
p897
I244
sS'2'
I910
sS'stuffed'
p898
I911
sS'typing'
p899
I912
sS'white'
p900
I913
sS'frame'
p901
I2295
sS'friend'
p902
I276
sS'gives'
p903
I916
sS'anus'
p904
I280
sS'eyes'
p905
I918
sS'hug'
p906
I919
sS'that'
p907
I920
sS'butt'
p908
I921
sS'peck'
p909
I922
sS'than'
p910
I923
sS'wide'
p911
I337
sS'television'
p912
I925
sS'12'
p913
I926
sS'knives'
p914
I927
sS'cymbals'
p915
I928
sS'cards'
p916
I929
sS'tractor'
p917
I930
sS'and'
p918
I931
sS'coconut'
p919
I932
sS'lick'
p920
I933
sS'angel'
p921
I934
sS'parking'
p922
I935
sS'slap'
p923
I936
sS'say'
p924
I937
sS'slam'
p925
I938
sS'pastry'
p926
I939
sS'saw'
p927
I940
sS'any'
p928
I941
sS'sat'
p929
I942
sS'descend'
p930
I1964
sS'hooded'
p931
I469
sS'form'
p932
I593
sS'scartch'
p933
I945
sS'knead'
p934
I946
sS'aside'
p935
I947
sS'shocked'
p936
I948
sS'snout'
p937
I493
sS'equipment'
p938
I950
sS'take'
p939
I951
sS'green'
p940
I952
sS'tambourine'
p941
I953
sS'butterfly'
p942
I954
sS'printer'
p943
I955
sS'track'
p944
I956
sS'compress'
p945
I957
sS'zigzag'
p946
I958
sS'printed'
p947
I959
sS'sunglass'
p948
I960
sS'knee'
p949
I961
sS'pages'
p950
I962
sS'boys'
p951
I1888
sS'napkin'
p952
I965
sS'drive'
p953
I966
sS'tooth'
p954
I967
sS'aerosol'
p955
I968
sS'wind'
p956
I161
sS'axe'
p957
I970
sS'hedgehog'
p958
I971
sS'slope'
p959
I972
sS'walking'
p960
I973
sS'show'
p961
I974
sS'bright'
p962
I975
sS'shoe'
p963
I976
sS'sholder'
p964
I2362
sS'corner'
p965
I978
sS'ladle'
p966
I1953
sS'trot'
p967
I980
sS'snack'
p968
I981
sS'dice'
p969
I982
sS'stair'
p970
I983
sS'title'
p971
I984
sS'jolt'
p972
I985
sS'gulp'
p973
I986
sS'foward'
p974
I987
sS'tears'
p975
I749
sS'wood'
p976
I989
sS'black'
p977
I990
sS'hockey'
p978
I991
sS'robe'
p979
I993
sS'pumpkin'
p980
I994
sS'hippo'
p981
I996
sS'get'
p982
I998
sS'stomp'
p983
I999
sS'nearly'
p984
I1000
sS'lighter'
p985
I1001
sS'kness'
p986
I1002
sS'candles'
p987
I2216
sS'gem'
p988
I1003
sS'artist'
p989
I1004
sS'leather'
p990
I1005
sS'naked'
p991
I1006
sS'penguins'
p992
I867
sS'bombs'
p993
I1008
sS'through'
p994
I1478
sS'pants'
p995
I2309
sS'burst'
p996
I1011
sS'seat'
p997
I1012
sS'seal'
p998
I1013
sS'pebble'
p999
I1014
sS'sport'
p1000
I1015
sS'smiling'
p1001
I1481
sS'bumpy'
p1002
I1017
sS'sideburns'
p1003
I1019
sS'boy'
p1004
I1741
sS'ornament'
p1005
I1020
sS'goers'
p1006
I1021
sS'teacup'
p1007
I1022
sS'outside'
p1008
I1023
sS'between'
p1009
I1024
sS'across'
p1010
I1025
sS'orchestrate'
p1011
I1026
sS'screen'
p1012
I1027
sS'pluck'
p1013
I1028
sS'guitar'
p1014
I1029
sS'jets'
p1015
I1030
sS'tub'
p1016
I1031
sS'comb'
p1017
I1032
sS'come'
p1018
I1033
sS'tug'
p1019
I1034
sS'mans'
p1020
I1035
sS'rugby'
p1021
I1036
sS'tuck'
p1022
I1037
sS'cub'
p1023
I1810
sS'contract'
p1024
I1039
sS'inward'
p1025
I1487
sS'wheels'
p1026
I1041
sS'expression'
p1027
I1042
sS'backpack'
p1028
I1043
sS'comes'
p1029
I1044
sS'stretcher'
p1030
I1045
sS'passenger'
p1031
I1046
sS'color'
p1032
I1047
sS'pot'
p1033
I1048
sS'jeans'
p1034
I1049
sS'pop'
p1035
I1160
sS'singers'
p1036
I1051
sS'pole'
p1037
I1052
sS'stretched'
p1038
I1053
sS'poll'
p1039
I1054
sS'pigtails'
p1040
I1198
sS'boat'
p1041
I1056
sS'turkey'
p1042
I1057
sS'teammate'
p1043
I1059
sS'lioness'
p1044
I1060
sS'teddy'
p1045
I1061
sS'stretch'
p1046
I1062
sS'wobble'
p1047
I1063
sS'skatboard'
p1048
I1064
sS'undershirt'
p1049
I1065
sS'mark'
p1050
I1066
sS'breath'
p1051
I1067
sS'dictator'
p1052
I1068
sS'helicopter'
p1053
I1069
sS'cords'
p1054
I1070
sS'direction'
p1055
I1071
sS'lanes'
p1056
I1072
sS'gray'
p1057
I2284
sS'fours'
p1058
I1073
sS'squash'
p1059
I1074
sS'tiger'
p1060
I1075
sS'language'
p1061
I885
sS'dribble'
p1062
I1319
sS'cash'
p1063
I1347
sS'trick'
p1064
I1078
sS'newspaper'
p1065
I1079
sS'cock'
p1066
I1080
sS'vest'
p1067
I1081
sS'punches'
p1068
I1082
sS'purse'
p1069
I1083
sS'telephone'
p1070
I1084
sS'sleeping'
p1071
I1085
sS'middle'
p1072
I1086
sS'embrace'
p1073
I1087
sS'heels'
p1074
I1088
sS'return'
p1075
I1493
sS'helmet'
p1076
I1090
sS'pat'
p1077
I1091
sS'paw'
p1078
I1092
sS'bowl'
p1079
I1093
sS'same'
p1080
I1094
sS'figurine'
p1081
I1095
sS'pad'
p1082
I1096
sS'pushup'
p1083
I1097
sS'otto'
p1084
I1098
sS'pullup'
p1085
I1099
sS'pan'
p1086
I1100
sS'nuzzle'
p1087
I1101
sS'exhaust'
p1088
I1102
sS'closest'
p1089
I1103
sS'applaud'
p1090
I1105
sS'assist'
p1091
I1106
sS'driver'
p1092
I1107
sS'weed'
p1093
I1108
sS'cymbal'
p1094
I1109
sS'persons'
p1095
I1110
sS'running'
p1096
I1111
sS'fruit'
p1097
I1112
sS'tamborine'
p1098
I1113
sS'cartoon'
p1099
I1114
sS'weave'
p1100
I1115
sS'nunchucks'
p1101
I1116
sS'spotted'
p1102
I2294
sS'burrito'
p1103
I1117
sS'no'
p1104
I617
sS'snowball'
p1105
I1497
sS'spoonful'
p1106
I1120
sS'without'
p1107
I1121
sS'bottle'
p1108
I1122
sS'spark'
p1109
I1055
sS'model'
p1110
I1123
sS'bodies'
p1111
I1124
sS'lysol'
p1112
I1125
sS'peace'
p1113
I1910
sS'being'
p1114
I1126
sS'money'
p1115
I1127
sS'dancers'
p1116
I1128
sS'actress'
p1117
I1129
sS'kill'
p1118
I1130
sS'touch'
p1119
I1132
sS'polish'
p1120
I1133
sS'guys'
p1121
I2192
sS'blow'
p1122
I1134
sS'death'
p1123
I1135
sS'snowboarder'
p1124
I1136
sS'womans'
p1125
I1137
sS'\\?'
p1126
I1138
sS'pups'
p1127
I1139
sS'remember'
p1128
I2208
sS'gutair'
p1129
I1140
sS'pallet'
p1130
I1141
sS'instrument'
p1131
I1142
sS'4'
I1143
sS'hind'
p1132
I1144
sS'actors'
p1133
I1913
sS'pill'
p1134
I1146
sS'skier'
p1135
I1147
sS'swim'
p1136
I1148
sS'grit'
p1137
I1149
sS'frown'
p1138
I1150
sS'read'
p1139
I1151
sS'marshmellow'
p1140
I1152
sS'mop'
p1141
I1153
sS'fridge'
p1142
I1154
sS'dart'
p1143
I1155
sS'dark'
p1144
I1156
sS'chainsaw'
p1145
I1157
sS'snarl'
p1146
I1158
sS'traffic'
p1147
I1159
sS'spank'
p1148
I1050
sS'mom'
p1149
I1161
sS'vacuum'
p1150
I1162
sS'using'
p1151
I1163
sS'lady'
p1152
I1164
sS'rear'
p1153
I1165
sS'furniture'
p1154
I1166
sS'clam'
p1155
I1167
sS'towel'
p1156
I1168
sS'bracelet'
p1157
I1169
sS'lightning'
p1158
I1170
sS'facing'
p1159
I1171
sS'audience'
p1160
I1172
sS't'
I1173
sS'clay'
p1161
I1174
sS'claw'
p1162
I1175
sS'downward'
p1163
I1176
sS'clap'
p1164
I1177
sS'fives'
p1165
I1178
sS'doll'
p1166
I1179
sS'ascend'
p1167
I1180
sS'erase'
p1168
I1181
sS'diving'
p1169
I1182
sS'squirm'
p1170
I1183
sS'sling'
p1171
I630
sS'unlocked'
p1172
I1185
sS'shirtless'
p1173
I1186
sS'longboard'
p1174
I1187
sS'jiggle'
p1175
I1188
sS'moon'
p1176
I1189
sS'exit'
p1177
I1190
sS'squirt'
p1178
I1191
sS'knife'
p1179
I1192
sS'power'
p1180
I1193
sS'drumb'
p1181
I1194
sS'nails'
p1182
I1195
sS'breasts'
p1183
I1918
sS'drums'
p1184
I1199
sS'assemble'
p1185
I1200
sS'throw'
p1186
I1201
sS'racoon'
p1187
I1203
sS'giggle'
p1188
I1204
sS'stone'
p1189
I1205
sS'tease'
p1190
I1206
sS'ack'
p1191
I1207
sS'smear'
p1192
I1208
sS'fishtail'
p1193
I1209
sS'drag'
p1194
I1920
sS'chop'
p1195
I1211
sS'wolf'
p1196
I1212
sS'stand'
p1197
I1213
sS'wold'
p1198
I1214
sS'act'
p1199
I1215
sS'or'
p1200
I1216
sS'road'
p1201
I1217
sS'marshmallow'
p1202
I1218
sS'instruments'
p1203
I1219
sS'image'
p1204
I1220
sS'earring'
p1205
I1221
sS'strip'
p1206
I1222
sS'pivot'
p1207
I1223
sS'stare'
p1208
I1224
sS'log'
p1209
I1226
sS'prepare'
p1210
I1227
sS'area'
p1211
I1228
sS'whales'
p1212
I1229
sS'there'
p1213
I1230
sS'wrigle'
p1214
I1231
sS'knods'
p1215
I1232
sS'cats'
p1216
I1233
sS'low'
p1217
I1234
sS'stars'
p1218
I1235
sS'hen'
p1219
I1236
sS'bubble'
p1220
I1237
sS'kittens'
p1221
I1238
sS'pitcher'
p1222
I1239
sS'eyeliner'
p1223
I1240
sS'cabinet'
p1224
I1241
sS'posterior'
p1225
I1242
sS'recoil'
p1226
I1243
sS'jut'
p1227
I1244
sS'walkway'
p1228
I1245
sS'with'
p1229
I1247
sS'pull'
p1230
I1248
sS'pule'
p1231
I1249
sS'bucket'
p1232
I1250
sS'tiptoe'
p1233
I1251
sS'strawberry'
p1234
I1252
sS'torse'
p1235
I1253
sS'grasp'
p1236
I1254
sS'jackhammer'
p1237
I1255
sS'grass'
p1238
I1256
sS'torso'
p1239
I1257
sS'toilet'
p1240
I1258
sS'filp'
p1241
I1259
sS'subdue'
p1242
I1260
sS'taste'
p1243
I1261
sS'frighten'
p1244
I1262
sS'deer'
p1245
I1263
sS'shoulders'
p1246
I2344
sS'deep'
p1247
I1265
sS'an'
p1248
I1266
sS'as'
p1249
I1267
sS'at'
p1250
I1268
sS'nero'
p1251
I1269
sS'ax'
p1252
I1270
sS'skateboarders'
p1253
I1271
sS'tremble'
p1254
I1272
sS'cream'
p1255
I1273
sS'yoga'
p1256
I1274
sS'swords'
p1257
I1277
sS'rubber'
p1258
I1278
sS'field'
p1259
I1279
sS'5'
I1280
sS'puppy'
p1260
I1281
sS'polar'
p1261
I1282
sS'symbol'
p1262
I1283
sS'teeth'
p1263
I641
sS'drift'
p1264
I1285
sS'waving'
p1265
I1286
sS'bullets'
p1266
I1287
sS'peak'
p1267
I1288
sS'torches'
p1268
I1290
sS'revolve'
p1269
I1291
sS'sneeze'
p1270
I1292
sS'awkwardly'
p1271
I1293
sS'pool'
p1272
I1294
sS'building'
p1273
I1295
sS'baloons'
p1274
I1296
sS'remote'
p1275
I1297
sS'groom'
p1276
I1298
sS'mask'
p1277
I1299
sS'smooch'
p1278
I1300
sS'hello'
p1279
I1935
sS'smirk'
p1280
I214
sS'strings'
p1281
I1303
sS'retch'
p1282
I1304
sS'all'
p1283
I1305
sS'skeleton'
p1284
I1306
sS'pointing'
p1285
I1307
sS'seals'
p1286
I1308
sS'disc'
p1287
I1309
sS'bulb'
p1288
I2348
sS'dish'
p1289
I1311
sS'follow'
p1290
I1312
sS'macarani'
p1291
I1313
sS'disk'
p1292
I1314
sS'children'
p1293
I1315
sS'carpet'
p1294
I1316
sS'apartment'
p1295
I1317
sS'tv'
p1296
I73
sS'spirit'
p1297
I1076
sS'to'
p1298
I1320
sS'tail'
p1299
I1321
sS'smile'
p1300
I1322
sS'puffs'
p1301
I1323
sS'woman'
p1302
I1324
sS'sitting'
p1303
I1325
sS'very'
p1304
I138
sS'differenct'
p1305
I1327
sS'fat'
p1306
I1328
sS'baton'
p1307
I1329
sS'rogue'
p1308
I1330
sS'fan'
p1309
I1331
sS'clench'
p1310
I167
sS'laser'
p1311
I2352
sS'bubbles'
p1312
I1333
sS'celebrity'
p1313
I1334
sS'laying'
p1314
I1335
sS'large'
p1315
I1336
sS'dinosaur'
p1316
I1337
sS'sand'
p1317
I1338
sS'adjust'
p1318
I217
sS'small'
p1319
I1340
sS'flick'
p1320
I1341
sS'cockatoo'
p1321
I1342
sS'fence'
p1322
I1343
sS'inchwormed'
p1323
I1344
sS'tea'
p1324
I1345
sS'tee'
p1325
I1346
sS'straighten'
p1326
I1077
sS'past'
p1327
I1348
sS'burger'
p1328
I1349
sS'pass'
p1329
I1351
sS'hairspray'
p1330
I1352
sS'ribbon'
p1331
I291
sS'dial'
p1332
I299
sS'tussle'
p1333
I1355
sS'clock'
p1334
I1356
sS'sun'
p1335
I312
sS'stool'
p1336
I1358
sS'lurch'
p1337
I1359
sS'<EOS>'
p1338
I1360
sS'milk'
p1339
I1361
sS'abs'
p1340
I1362
sS'racing'
p1341
I1363
sS'guns'
p1342
I1364
sS'movement'
p1343
I1365
sS'toes'
p1344
I1366
sS'ruffle'
p1345
I1367
sS'doorframe'
p1346
I1368
sS'bowtie'
p1347
I1369
sS'surfer'
p1348
I385
sS'hours'
p1349
I1038
sS'ranger'
p1350
I1372
sS'beacon'
p1351
I1373
sS'themself'
p1352
I1374
sS'trunk'
p1353
I1375
sS'colored'
p1354
I1376
sS'stretching'
p1355
I1377
sS'scurry'
p1356
I1378
sS'soldier'
p1357
I1379
sS'hamster'
p1358
I1380
sS'pick'
p1359
I1381
sS'action'
p1360
I1382
sS'narrow'
p1361
I1383
sS'sticking'
p1362
I1385
sS'turnned'
p1363
I1386
sS'shuffle'
p1364
I1387
sS'pulll'
p1365
I1388
sS'balalnce'
p1366
I1389
sS'screens'
p1367
I1391
sS'toys'
p1368
I1393
sS'extinction'
p1369
I1394
sS'eye'
p1370
I1395
sS'takes'
p1371
I1396
sS'wield'
p1372
I1397
sS'two'
p1373
I1398
sS'splash'
p1374
I1400
sS'6'
I1401
sS'jive'
p1375
I1402
sS'wiper'
p1376
I1403
sS'wipes'
p1377
I1404
sS'more'
p1378
I1405
sS'horses'
p1379
I604
sS'flat'
p1380
I1407
sS'diamond'
p1381
I1408
sS'door'
p1382
I1409
sS'flap'
p1383
I1410
sS'chimpanzee'
p1384
I1411
sS'flag'
p1385
I1412
sS'stick'
p1386
I1413
sS'suite'
p1387
I1948
sS'suction'
p1388
I1415
sS'mounted'
p1389
I1416
sS'squish'
p1390
I1417
sS'sleeveless'
p1391
I1418
sS'guards'
p1392
I1419
sS'nine'
p1393
I1420
sS'smurk'
p1394
I1421
sS'wrestler'
p1395
I1422
sS'v'
I1423
sS'grope'
p1396
I1424
sS'male'
p1397
I1425
sS'shark'
p1398
I1426
sS'pony'
p1399
I744
sS'pushes'
p1400
I1428
sS'dragonfly'
p1401
I963
sS'joints'
p1402
I1430
sS'sphere'
p1403
I1431
sS'unzip'
p1404
I1952
sS'numbers'
p1405
I1432
sS'ukelele'
p1406
I1433
sS'airplane'
p1407
I784
sS'mn'
p1408
I1435
sS'dress'
p1409
I1436
sS'extinguisher'
p1410
I1437
sS'court'
p1411
I1438
sS'goal'
p1412
I1439
sS'khakis'
p1413
I1440
sS'comfort'
p1414
I817
sS'stir'
p1415
I1442
sS'goat'
p1416
I1443
sS'creature'
p1417
I1444
sS'sprinkle'
p1418
I854
sS'sandwich'
p1419
I1446
sS'cirlce'
p1420
I1447
sS'rude'
p1421
I1448
sS'capture'
p1422
I1534
sS'hoola'
p1423
I890
sS'plane'
p1424
I1451
sS'lighting'
p1425
I1452
sS'waves'
p1426
I1453
sS'gasp'
p1427
I1454
sS'horizontal'
p1428
I1455
sS'flutter'
p1429
I909
sS'a'
I1457
sS'short'
p1430
I1458
sS'coat'
p1431
I1459
sS'doctor'
p1432
I1460
sS'pucker'
p1433
I1461
sS'stash'
p1434
I1462
sS'dragon'
p1435
I1463
sS'shore'
p1436
I1464
sS'tentacles'
p1437
I1465
sS'chopsticks'
p1438
I1466
sS'cigarett'
p1439
I1467
sS'pleasure'
p1440
I1468
sS'egg'
p1441
I1469
sS'playing'
p1442
I1470
sS'chicks'
p1443
I1471
sS'infant'
p1444
I1472
sS'help'
p1445
I1473
sS'earing'
p1446
I1474
sS'pant'
p1447
I1475
sS'slouch'
p1448
I1476
sS'paper'
p1449
I1477
sS'dough'
p1450
I1009
sS'lasers'
p1451
I1479
sS'lederhosen'
p1452
I1480
sS'turbine'
p1453
I1016
sS'25'
p1454
I1482
sS'style'
p1455
I1483
sS'rapidly'
p1456
I1484
sS'glide'
p1457
I1485
sS'call'
p1458
I1486
sS'pcs'
p1459
I1040
sS'harmless'
p1460
I1488
sS'coconuts'
p1461
I1489
sS'soccer'
p1462
I1490
sS'sauce'
p1463
I1491
sS'someone'
p1464
I1492
sS'somebody'
p1465
I1089
sS'food'
p1466
I1494
sS'males'
p1467
I1495
sS'pingpong'
p1468
I1496
sS'walls'
p1469
I1119
sS'cigarettes'
p1470
I1498
sS'foot'
p1471
I1499
sS'ninja'
p1472
I1500
sS'sucked'
p1473
I1501
sS'stopper'
p1474
I1392
sS'gets'
p1475
I2378
sS'pregnant'
p1476
I1503
sS'swimsuit'
p1477
I1504
sS'slicked'
p1478
I1505
sS'biscuits'
p1479
I1507
sS'button'
p1480
I1965
sS'weight'
p1481
I1509
sS'house'
p1482
I1510
sS'fish'
p1483
I1511
sS'hard'
p1484
I1512
sS'beret'
p1485
I1513
sS'connect'
p1486
I1514
sS'fist'
p1487
I1515
sS'scissors'
p1488
I1516
sS'harp'
p1489
I1517
sS'flower'
p1490
I1519
sS'lipstick'
p1491
I1520
sS'surrounded'
p1492
I1521
sS'pigeon'
p1493
I1522
sS'hill'
p1494
I1523
sS'7'
I1524
sS'print'
p1495
I1525
sS'hangers'
p1496
I1526
sS'salute'
p1497
I1527
sS'dunk'
p1498
I1528
sS'foreground'
p1499
I1529
sS'steering'
p1500
I2169
sS'unidentifiable'
p1501
I1350
sS'bass'
p1502
I1531
sS'dirt'
p1503
I1532
sS'pug'
p1504
I1533
sS'toy'
p1505
I1535
sS'cookie'
p1506
I1536
sS'murmur'
p1507
I1537
sS'put'
p1508
I1538
sS'bouce'
p1509
I1539
sS'beginning'
p1510
I1540
sS'generate'
p1511
I1399
sS'thrown'
p1512
I1542
sS'owners'
p1513
I1543
sS'launch'
p1514
I1544
sS'american'
p1515
I1545
sS'canister'
p1516
I1546
sS'chorography'
p1517
I1547
sS'heartbeat'
p1518
I1548
sS'fallen'
p1519
I1549
sS'throws'
p1520
I1550
sS'feed'
p1521
I1551
sS'statue'
p1522
I1552
sS'feel'
p1523
I1553
sS'guesture'
p1524
I1554
sS'number'
p1525
I1555
sS'feet'
p1526
I1556
sS'drier'
p1527
I1558
sS'elevator'
p1528
I1559
sS'blank'
p1529
I1560
sS'cups'
p1530
I1561
sS'miss'
p1531
I1562
sS'horse'
p1532
I1563
sS'heads'
p1533
I1564
sS'guest'
p1534
I1565
sS'jet'
p1535
I1566
sS'swipe'
p1536
I1567
sS'rails'
p1537
I1568
sS'collar'
p1538
I2386
sS'paint'
p1539
I1570
sS'leash'
p1540
I1571
sS'passed'
p1541
I1572
sS'fingernail'
p1542
I1573
sS'hummingbird'
p1543
I1574
sS'syrup'
p1544
I1575
sS'banana'
p1545
I1576
sS'muscles'
p1546
I1578
sS'storm'
p1547
I1579
sS'pump'
p1548
I977
sS'exploded'
p1549
I1581
sS'needle'
p1550
I1582
sS'interviewee'
p1551
I1583
sS'interviewed'
p1552
I1584
sS'part'
p1553
I1585
sS'fidget'
p1554
I1586
sS'rifle'
p1555
I1587
sS'albums'
p1556
I1588
sS'steaks'
p1557
I1589
sS'stairs'
p1558
I1590
sS'oscillate'
p1559
I1591
sS'leotard'
p1560
I1592
sS'john'
p1561
I1593
sS'throttle'
p1562
I1594
sS'performers'
p1563
I1595
sS'grey'
p1564
I1596
sS'youth'
p1565
I1597
sS'bride'
p1566
I1598
sS'stalk'
p1567
I1599
sS'toward'
p1568
I1600
sS'mickey'
p1569
I1518
sS'cleaner'
p1570
I1602
sS'swerve'
p1571
I1603
sS'chipmunk'
p1572
I1605
sS'juice'
p1573
I1607
sS'caress'
p1574
I1608
sS'graffiti'
p1575
I1609
sS'blond'
p1576
I1610
sS'wipers'
p1577
I1611
sS'lid'
p1578
I1612
sS'mountain'
p1579
I1613
sS'koala'
p1580
I1614
sS'dancing'
p1581
I1615
sS'self'
p1582
I1616
sS'flaming'
p1583
I1617
sS'couch'
p1584
I1618
sS'jostle'
p1585
I1619
sS'lip'
p1586
I1620
sS'breaststroke'
p1587
I1621
sS'tool'
p1588
I1622
sS'play'
p1589
I1623
sS'towards'
p1590
I1624
sS'electric'
p1591
I1625
sS'singles'
p1592
I1626
sS'eggs'
p1593
I1627
sS'reach'
p1594
I1628
sS'react'
p1595
I1631
sS'most'
p1596
I1058
sS'nothing'
p1597
I1633
sS'smoosh'
p1598
I1634
sS'mobile'
p1599
I1635
sS'cover'
p1600
I1636
sS'giving'
p1601
I1984
sS'clean'
p1602
I1637
sS'interlocked'
p1603
I2399
sS'hips'
p1604
I1639
sS'stones'
p1605
I1640
sS'bending'
p1606
I2400
sS'golf'
p1607
I1642
sS'gold'
p1608
I1643
sS'headbangs'
p1609
I1644
sS'flicker'
p1610
I1645
sS'hugging'
p1611
I1646
sS'barbell'
p1612
I1647
sS'violinists'
p1613
I1648
sS'stubble'
p1614
I1649
sS'music'
p1615
I92
sS'scooter'
p1616
I1650
sS'writer'
p1617
I1651
sS'whindshield'
p1618
I1652
sS'condom'
p1619
I1653
sS'8'
I1654
sS'circle'
p1620
I1655
sS'juke'
p1621
I1656
sS'porcupine'
p1622
I1657
sS'his'
p1623
I1658
sS'hit'
p1624
I1659
sS'express'
p1625
I1661
sS'trees'
p1626
I1662
sS'strut'
p1627
I1663
sS'ferret'
p1628
I1664
sS'owls'
p1629
I1665
sS'batter'
p1630
I1666
sS'breast'
p1631
I1667
sS'strum'
p1632
I1668
sS'silk'
p1633
I1669
sS'banner'
p1634
I1670
sS'him'
p1635
I1671
sS'huff'
p1636
I1672
sS'fluff'
p1637
I1673
sS'catcher'
p1638
I1674
sS'sleeve'
p1639
I1675
sS'cry'
p1640
I1676
sS'remove'
p1641
I1677
sS'perfume'
p1642
I1678
sS'gloves'
p1643
I1679
sS'backword'
p1644
I1680
sS'guinea'
p1645
I2244
sS'plank'
p1646
I1456
sS'bars'
p1647
I1681
sS'set'
p1648
I1682
sS'dump'
p1649
I1683
sS'sep'
p1650
I1684
sS'throwing'
p1651
I1685
sS'nibble'
p1652
I1686
sS'around'
p1653
I1764
sS'lion'
p1654
I1687
sS'bare'
p1655
I1688
sS'explosion'
p1656
I997
sS'bark'
p1657
I1690
sS'outward'
p1658
I1691
sS'nippers'
p1659
I1692
sS'knees'
p1660
I1693
sS'movie'
p1661
I1695
sS'slapped'
p1662
I1696
sS'fans'
p1663
I1697
sS'silly'
p1664
I1698
sS'champagne'
p1665
I1699
sS'clerk'
p1666
I1700
sS'kneel'
p1667
I1701
sS'pullups'
p1668
I1702
sS'spray'
p1669
I1703
sS'invisible'
p1670
I1704
sS'interpertively'
p1671
I1705
sS'both'
p1672
I1706
sS'cubes'
p1673
I1707
sS'last'
p1674
I1708
sS'iteslf'
p1675
I1709
sS'bowie'
p1676
I1710
sS'rose'
p1677
I1660
sS'whole'
p1678
I1712
sS'oars'
p1679
I2001
sS'load'
p1680
I1714
sS'tongues'
p1681
I1601
sS'pendulum'
p1682
I2407
sS'bridge'
p1683
I995
sS'battery'
p1684
I1718
sS'forklift'
p1685
I1719
sS'lbs'
p1686
I30
sS'dancer'
p1687
I1721
sS'weasel'
p1688
I1722
sS'bench'
p1689
I2411
sS'mumble'
p1690
I1723
sS'along'
p1691
I1724
sS'belt'
p1692
I1725
sS'catwalk'
p1693
I1726
sS'suspenders'
p1694
I1727
sS'devil'
p1695
I1728
sS'raise'
p1696
I1729
sS'stamp'
p1697
I1730
sS'create'
p1698
I1731
sS'hitting'
p1699
I1733
sS'peppers'
p1700
I1734
sS'brick'
p1701
I1735
sS'empty'
p1702
I1736
sS'humping'
p1703
I1737
sS'referee'
p1704
I1738
sS'flight'
p1705
I1739
sS'squirrel'
p1706
I1740
sS'pedals'
p1707
I1276
sS'fire'
p1708
I1742
sS'crack'
p1709
I1743
sS'gas'
p1710
I1744
sS'watergun'
p1711
I1745
sS'numchucks'
p1712
I1746
sS'sleeves'
p1713
I1747
sS'gag'
p1714
I1748
sS'chatter'
p1715
I1749
sS'fur'
p1716
I1750
sS'look'
p1717
I1751
sS'ski'
p1718
I1752
sS'bill'
p1719
I1753
sS'crutch'
p1720
I1754
sS'rope'
p1721
I1755
sS'pace'
p1722
I1756
sS'while'
p1723
I1390
sS'kick'
p1724
I2418
sS'vaults'
p1725
I77
sS'pound'
p1726
I1760
sS'twiddle'
p1727
I1761
sS'demon'
p1728
I1762
sS'itself'
p1729
I1763
sS'chase'
p1730
I144
sS'shirt'
p1731
I1765
sS'choking'
p1732
I1766
sS'shorter'
p1733
I1767
sS'firearms'
p1734
I1768
sS'peoples'
p1735
I1769
sS'9'
I1770
sS'eybrow'
p1736
I1771
sS'gestures'
p1737
I2383
sS'hallway'
p1738
I1772
sS'snail'
p1739
I212
sS'ballerina'
p1740
I1774
sS'keys'
p1741
I1775
sS'teeter'
p1742
I1776
sS'cigar'
p1743
I1777
sS'leopard'
p1744
I1778
sS'cement'
p1745
I1779
sS'cucumber'
p1746
I231
sS'stripe'
p1747
I1781
sS'stack'
p1748
I1782
sS'touchpad'
p1749
I384
sS'lower'
p1750
I267
sS'swish'
p1751
I1785
sS'cheek'
p1752
I1786
sS'center'
p1753
I2389
sS'grind'
p1754
I1787
sS'person'
p1755
I1788
sS'cheer'
p1756
I1789
sS'solider'
p1757
I2423
sS'flags'
p1758
I1791
sS'grip'
p1759
I1759
sS'howl'
p1760
I1792
sS'bandage'
p1761
I1793
sS'chord'
p1762
I1794
sS'synringe'
p1763
I1795
sS'backflip'
p1764
I1796
sS'press'
p1765
I2426
sS'shape'
p1766
I1798
sS'circling'
p1767
I1799
sS'behind'
p1768
I1580
sS'spiky'
p1769
I1800
sS'prince'
p1770
I1801
sS'jumpsuit'
p1771
I1802
sS'tables'
p1772
I1803
sS'cut'
p1773
I1804
sS'tablet'
p1774
I1805
sS'cup'
p1775
I1806
sS'alternate'
p1776
I1808
sS'cue'
p1777
I1809
sS'dare'
p1778
I602
sS'crying'
p1779
I1811
sS'snap'
p1780
I1812
sS'limp'
p1781
I2016
sS'vaccume'
p1782
I1814
sS'march'
p1783
I1815
sS'big'
p1784
I1816
sS'skateboards'
p1785
I664
sS'sharpener'
p1786
I1818
sS'game'
p1787
I1819
sS'bit'
p1788
I1820
sS'wings'
p1789
I1821
sS'knock'
p1790
I1822
sS'rotate'
p1791
I1823
sS'shaped'
p1792
I1824
sS'signal'
p1793
I1825
sS'glove'
p1794
I1826
sS'rider'
p1795
I1827
sS'cones'
p1796
I1828
sS'brakes'
p1797
I1829
sS'spring'
p1798
I1830
sS'some'
p1799
I1831
sS'back'
p1800
I1832
sS'bounce'
p1801
I1833
sS'lips'
p1802
I1834
sS'palm'
p1803
I1835
sS'candy'
p1804
I2434
sS'mirror'
p1805
I1837
sS'candle'
p1806
I1838
sS'sprint'
p1807
I1839
sS'jewelry'
p1808
I1840
sS'pet'
p1809
I1841
sS'singing'
p1810
I2020
sS'prop'
p1811
I1843
sS'hairband'
p1812
I1844
sS'pen'
p1813
I1845
sS'sneakers'
p1814
I1846
sS'prod'
p1815
I1847
sS'temple'
p1816
I1848
sS'laughing'
p1817
I305
sS'run'
p1818
I698
sS'rapping'
p1819
I1851
sS'rub'
p1820
I1852
sS'jumps'
p1821
I1853
sS'costumes'
p1822
I714
sS'rud'
p1823
I1855
sS'zombie'
p1824
I1856
sS'step'
p1825
I1857
sS'santa'
p1826
I1858
sS'cannons'
p1827
I1859
sS'raspberry'
p1828
I1860
sS'by'
p1829
I1861
sS'cigarette'
p1830
I1632
sS'god'
p1831
I1863
sS'puddles'
p1832
I1371
sS'beans'
p1833
I1864
sS'womens'
p1834
I1865
sS'block'
p1835
I1866
sS'garbage'
p1836
I1867
sS'into'
p1837
I1868
sS'rollerblade'
p1838
I1869
sS'curtsy'
p1839
I1870
sS'rolls'
p1840
I1871
sS'crazily'
p1841
I2443
sS'sashay'
p1842
I1872
sS'scrunch'
p1843
I1873
sS'zig'
p1844
I2030
sS'sock'
p1845
I1875
sS'long'
p1846
I1876
sS'custom'
p1847
I1877
sS'sqeeze'
p1848
I1878
sS'suit'
p1849
I1879
sS'forward'
p1850
I1880
sS'waistband'
p1851
I1881
sS'opponent'
p1852
I1882
sS'himself'
p1853
I1883
sS'hawaiian'
p1854
I1884
sS'poster'
p1855
I1886
sS'slump'
p1856
I1887
sS'cloth'
p1857
I964
sS'crank'
p1858
I1889
sS'line'
p1859
I1890
sS'reel'
p1860
I1891
sS'raising'
p1861
I1892
sS'penguin'
p1862
I1893
sS'fries'
p1863
I1894
sS'up'
p1864
I1895
sS'windows'
p1865
I1896
sS'cartwheel'
p1866
I1897
sS'highlight'
p1867
I1898
sS'bell'
p1868
I2409
sS'duckling'
p1869
I1899
sS'metal'
p1870
I1900
sS'package'
p1871
I1901
sS'spoonfuls'
p1872
I1902
sS'curb'
p1873
I1903
sS'necks'
p1874
I1904
sS'bicep'
p1875
I1905
sS'curl'
p1876
I1906
sS'dragging'
p1877
I1907
sS'halfpipe'
p1878
I1908
sS'lemon'
p1879
I1909
sS'buck'
p1880
I723
sS'scrape'
p1881
I1911
sS'points'
p1882
I1912
sS'electrical'
p1883
I1145
sS'parakeet'
p1884
I1914
sS'swirl'
p1885
I1915
sS'draw'
p1886
I1916
sS'scrub'
p1887
I1917
sS'robots'
p1888
I1197
sS'lens'
p1889
I1919
sS'insect'
p1890
I1210
sS'slice'
p1891
I1921
sS'wrinkle'
p1892
I1922
sS'sides'
p1893
I1923
sS'wristband'
p1894
I1924
sS'pottery'
p1895
I1925
sS'furthest'
p1896
I1926
sS'lane'
p1897
I1927
sS'land'
p1898
I1928
sS'e'
I1929
sS'weights'
p1899
I1930
sS'lying'
p1900
I1931
sS'walker'
p1901
I1932
sS'berries'
p1902
I1933
sS'buffalo'
p1903
I1934
sS'scroll'
p1904
I1301
sS'scratch'
p1905
I1936
sS'nuns'
p1906
I1937
sS'alien'
p1907
I1938
sS'baby'
p1908
I2044
sS'go'
p1909
I1940
sS'golfer'
p1910
I1941
sS'young'
p1911
I1942
sS'send'
p1912
I1943
sS'nose'
p1913
I1849
sS'attackers'
p1914
I1944
sS'saxaphone'
p1915
I1018
sS'cradle'
p1916
I2454
sS'outwards'
p1917
I1947
sS'breach'
p1918
I1414
sS'include'
p1919
I1949
sS'fins'
p1920
I1950
sS'rag'
p1921
I1951
sS'queen'
p1922
I1807
sS'toenail'
p1923
I1441
sS'kitty'
p1924
I1954
sS'wave'
p1925
I1955
sS'spool'
p1926
I1956
sS'spoon'
p1927
I1957
sS'llama'
p1928
I1958
sS'drinking'
p1929
I1959
sS'wipe'
p1930
I1960
sS'arrange'
p1931
I1961
sS'entire'
p1932
I1962
sS'magic'
p1933
I1963
sS'knight'
p1934
I1506
sS'notes'
p1935
I1508
sS'shock'
p1936
I1966
sS'try'
p1937
I1967
sS'race'
p1938
I1968
sS'athlete'
p1939
I2050
sS'cap'
p1940
I1970
sS'booty'
p1941
I1971
sS'scientist'
p1942
I1972
sS'chomp'
p1943
I1973
sS'kickflip'
p1944
I2051
sS'jump'
p1945
I1974
sS'fold'
p1946
I1975
sS'video'
p1947
I1976
sS'booth'
p1948
I1977
sS'picked'
p1949
I1978
sS'protrude'
p1950
I1979
sS'pajamas'
p1951
I1980
sS'click'
p1952
I1981
sS'index'
p1953
I1982
sS'poke'
p1954
I1983
sS'cycle'
p1955
I864
sS'vampire'
p1956
I1985
sS'paddle'
p1957
I1986
sS'cell'
p1958
I1987
sS'eating'
p1959
I1850
sS'anther'
p1960
I1989
sS'relocate'
p1961
I1990
sS'bird'
p1962
I1991
sS'exercise'
p1963
I1992
sS'body'
p1964
I1993
sS'degree'
p1965
I1994
sS'leg'
p1966
I1995
sS'lei'
p1967
I1996
sS'kangaroo'
p1968
I1997
sS'punch'
p1969
I1998
sS'objects'
p1970
I1999
sS'let'
p1971
I2000
sS'sink'
p1972
I1713
sS'pancake'
p1973
I2002
sS'others'
p1974
I2003
sS'sing'
p1975
I2004
sS'rosary'
p1976
I2005
sS'receive'
p1977
I2006
sS'shades'
p1978
I2007
sS'orangutan'
p1979
I2008
sS'armpit'
p1980
I2009
sS'popcorn'
p1981
I2010
sS'climb'
p1982
I2011
sS'writes'
p1983
I2012
sS'wig'
p1984
I2013
sS'shovel'
p1985
I2014
sS'see'
p1986
I2211
sS'apple'
p1987
I2015
sS'sparklers'
p1988
I1813
sS'duck'
p1989
I2017
sS'beckon'
p1990
I2018
sS'apply'
p1991
I2019
sS'tools'
p1992
I1842
sS'manipulate'
p1993
I2021
sS'ape'
p1994
I2022
sS'standing'
p1995
I2023
sS'use'
p1996
I2024
sS'from'
p1997
I2025
sS'figure'
p1998
I2026
sS'frog'
p1999
I2028
sS'next'
p2000
I2029
sS'eleven'
p2001
I1874
sS'camera'
p2002
I2031
sS'crab'
p2003
I2032
sS'vehicle'
p2004
I2033
sS'themselves'
p2005
I2034
sS'lipgloss'
p2006
I2035
sS'cheeks'
p2007
I2036
sS'pencil'
p2008
I2037
sS'on'
p2009
I2038
sS'musician'
p2010
I2039
sS'antennae'
p2011
I2040
sS'missile'
p2012
I2041
sS'train'
p2013
I2042
sS'rabbit'
p2014
I2043
sS'antennas'
p2015
I1939
sS'women'
p2016
I2045
sS'balls'
p2017
I2046
sS'animals'
p2018
I2047
sS'duster'
p2019
I2048
sS'pout'
p2020
I2049
sS'ride'
p2021
I1969
sS'bodty'
p2022
I1606
sS'pour'
p2023
I2052
sS'of'
p2024
I2053
sS'drops'
p2025
I2054
sS'grin'
p2026
I2055
sS'bend'
p2027
I2064
sS'hip'
p2028
I2057
sS'tap'
p2029
I2058
sS'tab'
p2030
I2065
sS'snacks'
p2031
I2027
sS'pelvic'
p2032
I2061
sS'lizard'
p2033
I434
sS'high'
p2034
I2062
sS'carrot'
p2035
I2063
sS'something'
p2036
I2056
sS'slip'
p2037
I2059
sS'pelvis'
p2038
I2066
sS'rods'
p2039
I2067
sS'paws'
p2040
I2068
sS'skirt'
p2041
I2069
sS'tan'
p2042
I2070
sS'lamb'
p2043
I2071
sS'sip'
p2044
I2073
sS'sit'
p2045
I2074
sS'onions'
p2046
I2075
sS'holds'
p2047
I2076
sS'struggles'
p2048
I2077
sS'lamp'
p2049
I2078
sS'seeds'
p2050
I2470
sS'animal'
p2051
I2080
sS'toddler'
p2052
I2081
sS'typewriter'
p2053
I2082
sS'hurdles'
p2054
I2083
sS'blocks'
p2055
I2084
sS'stop'
p2056
I2085
sS'tied'
p2057
I2086
sS'3'
I2087
sS'dominos'
p2058
I2088
sS'tattoo'
p2059
I2372
sS'wrist'
p2060
I2089
sS'prance'
p2061
I2090
sS'taco'
p2062
I2091
sS'cabbage'
p2063
I2092
sS'chasing'
p2064
I2093
sS'bind'
p2065
I324
sS'counter'
p2066
I2095
sS'lines'
p2067
I2096
sS'robot'
p2068
I2097
sS'scoop'
p2069
I2098
sS'scoot'
p2070
I2099
sS'buttered'
p2071
I2100
sS'necklace'
p2072
I2101
sS'quotations'
p2073
I2102
sS'mustache'
p2074
I2103
sS'fastest'
p2075
I2104
sS'ignite'
p2076
I2105
sS'boxing'
p2077
I2106
sS'thigh'
p2078
I2107
sS'move'
p2079
I2108
sS'churros'
p2080
I2109
sS'spatula'
p2081
I2110
sS'hugged'
p2082
I2111
sS'costume'
p2083
I26
sS'underwater'
p2084
I2113
sS'outer'
p2085
I2114
sS'burning'
p2086
I2115
sS'broom'
p2087
I2116
sS'noses'
p2088
I2117
sS'squatting'
p2089
I2118
sS'smoothe'
p2090
I2119
sS'gymnasts'
p2091
I2120
sS'orange'
p2092
I2121
sS'covered'
p2093
I2122
sS'dad'
p2094
I2123
sS'flex'
p2095
I2124
sS'crash'
p2096
I2125
sS'skater'
p2097
I788
sS'dab'
p2098
I2127
sS'practice'
p2099
I1694
sS'oranges'
p2100
I2129
sS'dock'
p2101
I2130
sS'cutting'
p2102
I2131
sS'snake'
p2103
I2132
sS'kiss'
p2104
I2133
sS'hands'
p2105
I2134
sS'front'
p2106
I2135
sS'cage'
p2107
I2136
sS'flail'
p2108
I2137
sS'boots'
p2109
I2138
sS'slide'
p2110
I2139
sS'trap'
p2111
I2140
sS'bills'
p2112
I2141
sS'shaking'
p2113
I2142
sS'upward'
p2114
I2143
sS'skate'
p2115
I1339
sS'swilvel'
p2116
I2144
sS'ankles'
p2117
I2145
sS'tabby'
p2118
I2146
sS'bump'
p2119
I2147
sS'globe'
p2120
I2148
sS'buildings'
p2121
I2149
sS'sportsman'
p2122
I2150
sS'skank'
p2123
I2151
sS'books'
p2124
I2152
sS'thirteen'
p2125
I2153
sS'measure'
p2126
I2154
sS'cupboard'
p2127
I2155
sS'sweatshirt'
p2128
I2156
sS'goalkeeper'
p2129
I2157
sS'out'
p2130
I2158
sS'mats'
p2131
I2159
sS'announcer'
p2132
I2160
sS'valve'
p2133
I2161
sS'rev'
p2134
I2162
sS'mate'
p2135
I2163
sS'wick'
p2136
I2164
sS'red'
p2137
I2165
sS'umbrella'
p2138
I2166
sS'completely'
p2139
I2167
sS'thrust'
p2140
I2168
sS'stab'
p2141
I2543
sS'bleed'
p2142
I91
sS'backless'
p2143
I2170
sS'backwards'
p2144
I2171
sS'yard'
p2145
I2172
sS'her'
p2146
I2173
sS'spill'
p2147
I2174
sS'shells'
p2148
I2175
sS'skateboard'
p2149
I2176
sS'headbutt'
p2150
I2177
sS'yarn'
p2151
I2178
sS'times'
p2152
I2179
sS'stride'
p2153
I2180
sS'scarf'
p2154
I2181
sS'bouquet'
p2155
I2182
sS'maracas'
p2156
I2183
sS'scene'
p2157
I2184
sS'hurdle'
p2158
I197
sS'owner'
p2159
I2186
sS'righ'
p2160
I2187
sS'management'
p2161
I2188
sS'smaller'
p2162
I2189
sS'monkey'
p2163
I2190
sS'bears'
p2164
I2191
sS'data'
p2165
I979
sS'blowdryer'
p2166
I2193
sS'their'
p2167
I2194
sS'attack'
p2168
I2195
sS'ankle'
p2169
I2196
sS'rigs'
p2170
I2197
sS'liquor'
p2171
I2198
sS'beard'
p2172
I2199
sS'trampoline'
p2173
I552
sS'shell'
p2174
I2200
sS'stomach'
p2175
I2201
sS'shorts'
p2176
I2202
sS'xylophone'
p2177
I2203
sS'motorcycle'
p2178
I2112
sS'feint'
p2179
I2204
sS'excercises'
p2180
I2205
sS'fuzzy'
p2181
I2206
sS'UNK'
p2182
I1
sS'herself'
p2183
I2207
sS'waist'
p2184
I806
sS'babys'
p2185
I2209
sS'buttocks'
p2186
I2210
sS'sword'
p2187
I2126
sS'wet'
p2188
I2415
sS'splayed'
p2189
I359
sS'flashed'
p2190
I362
sS'bee'
p2191
I2213
sS'firework'
p2192
I2214
sS'moonwalks'
p2193
I2215
sS'light'
p2194
I2094
sS'sculpture'
p2195
I2217
sS'steer'
p2196
I2218
sS'lightly'
p2197
I410
sS'carrots'
p2198
I2220
sS'gently'
p2199
I423
sS'sidewalk'
p2200
I1541
sS'have'
p2201
I2222
sS'close'
p2202
I1689
sS'throat'
p2203
I2223
sS'screw'
p2204
I2224
sS'eyeshadow'
p2205
I466
sS'angle'
p2206
I2226
sS'sprinkler'
p2207
I2227
sS'mic'
p2208
I2228
sS'pushups'
p2209
I2229
sS'arm'
p2210
I2230
sS'mix'
p2211
I2231
sS'sportswear'
p2212
I2232
sS'which'
p2213
I2233
sS'soap'
p2214
I2234
sS'blades'
p2215
I2235
sS'who'
p2216
I2236
sS'rearrange'
p2217
I2237
sS'device'
p2218
I2238
sS'class'
p2219
I2239
sS'beets'
p2220
I2240
sS'face'
p2221
I2241
sS'looked'
p2222
I614
sS'gesture'
p2223
I2243
sS'mechanical'
p2224
I1289
sS'painting'
p2225
I2245
sS'scrap'
p2226
I2246
sS'squeegee'
p2227
I2247
sS'kite'
p2228
I2248
sS'gentleman'
p2229
I2249
sS'bum'
p2230
I2504
sS'crate'
p2231
I2251
sS'bring'
p2232
I2252
sS'biker'
p2233
I2253
sS'bikes'
p2234
I2254
sS'chicken'
p2235
I2255
sS'shoes'
p2236
I818
sS'one'
p2237
I2257
sS'ear'
p2238
I2505
sS'tire'
p2239
I2259
sS'sparks'
p2240
I2260
sS'downstairs'
p2241
I1885
sS'fellate'
p2242
I2262
sS'jar'
p2243
I2263
sS'doing'
p2244
I2492
sS'eat'
p2245
I2506
sS'buttons'
p2246
I2265
sS'tape'
p2247
I2266
sS'riding'
p2248
I2267
sS'piano'
p2249
I2268
sS'flinch'
p2250
I2269
sS'dodge'
p2251
I2270
sS'count'
p2252
I2509
sS'cube'
p2253
I2272
sS'handle'
p2254
I2273
sS'beat'
p2255
I2274
sS'stripes'
p2256
I2275
sS'bear'
p2257
I2276
sS'vacumm'
p2258
I2277
sS'beam'
p2259
I808
sS'bean'
p2260
I2279
sS'words'
p2261
I2280
sS'beak'
p2262
I2281
sS'striped'
p2263
I2282
sS'chips'
p2264
I2283
sS'smash'
p2265
I412
sS'shopping'
p2266
I2285
sS'scraf'
p2267
I2286
sS'rapper'
p2268
I2287
sS'eyebrow'
p2269
I2288
sS'stuff'
p2270
I2289
sS'mascara'
p2271
I2290
sS'grab'
p2272
I2291
sS'shouders'
p2273
I2292
sS'looks'
p2274
I505
sS'buzzer'
p2275
I888
sS'puddle'
p2276
I914
sS'computer'
p2277
I2296
sS'powder'
p2278
I2297
sS'violet'
p2279
I2298
sS'racket'
p2280
I2299
sS'wire'
p2281
I2300
sS'placed'
p2282
I2514
sS'icecream'
p2283
I2302
sS'hammock'
p2284
I2303
sS'unravel'
p2285
I2304
sS'closed'
p2286
I2305
sS'repetitively'
p2287
I2306
sS'juggle'
p2288
I2307
sS'pistol'
p2289
I2308
sS'tent'
p2290
I1010
sS'joy'
p2291
I2310
sS'butts'
p2292
I2311
sS'strides'
p2293
I2312
sS"someones'"
p2294
I2313
sS'key'
p2295
I2314
sS'jog'
p2296
I2315
sS'police'
p2297
I2316
sS'jon'
p2298
I2317
sS'monitor'
p2299
I2318
sS'drum'
p2300
I2319
sS'sniff'
p2301
I2320
sS'tires'
p2302
I270
sS'ramp'
p2303
I2321
sS'aircraft'
p2304
I2322
sS'unbutton'
p2305
I2323
sS'doorway'
p2306
I2324
sS'puff'
p2307
I2325
sS'swallow'
p2308
I2326
sS'fry'
p2309
I2327
sS'jersey'
p2310
I2328
sS'balloons'
p2311
I2417
sS'wall'
p2312
I2329
sS'denim'
p2313
I2330
sS'bikini'
p2314
I1757
sS'walk'
p2315
I2331
sS'gong'
p2316
I2332
sS'laugh'
p2317
I2333
sS'table'
p2318
I2334
sS'pouring'
p2319
I2335
sS'inhale'
p2320
I2336
sS'motorbike'
p2321
I1202
sS'twerks'
p2322
I2338
sS'swimmer'
p2323
I2339
sS'polka'
p2324
I2340
sS'treat'
p2325
I2341
sS'whisper'
p2326
I2523
sS'curtain'
p2327
I2342
sS'feather'
p2328
I2343
sS'mike'
p2329
I1264
sS'controller'
p2330
I2345
sS'mannequin'
p2331
I2346
sS'bull'
p2332
I2347
sS'smoking'
p2333
I1310
sS'present'
p2334
I2349
sS'eyelashes'
p2335
I2350
sS'plaid'
p2336
I2351
sS'couple'
p2337
I1817
sS'veer'
p2338
I2353
sS'runway'
p2339
I2354
sS'tshirt'
p2340
I2355
sS'chalk'
p2341
I2356
sS'cough'
p2342
I880
sS'wild'
p2343
I2357
sS'pictures'
p2344
I2358
sS'bathtub'
p2345
I2359
sS'groin'
p2346
I2360
sS'suckle'
p2347
I2361
sS'file'
p2348
I1131
sS'counterwise'
p2349
I2363
sS'demo'
p2350
I2364
sS'squid'
p2351
I2365
sS'surface'
p2352
I2366
sS'rooster'
p2353
I2367
sS'swinging'
p2354
I2368
sS'gunship'
p2355
I2369
sS'partner'
p2356
I2370
sS'sits'
p2357
I2371
sS'whirl'
p2358
I1449
sS'moves'
p2359
I2373
sS'balloon'
p2360
I2374
sS'cross'
p2361
I2375
sS'parts'
p2362
I2376
sS'party'
p2363
I2377
sS'fill'
p2364
I1225
sS'elbows'
p2365
I2379
sS'ball'
p2366
I2380
sS'slightly'
p2367
I566
sS'bald'
p2368
I1530
sS'diploma'
p2369
I2382
sS'dust'
p2370
I1557
sS'pedal'
p2371
I2384
sS'whale'
p2372
I2385
sS'broccoli'
p2373
I1569
sS'numbered'
p2374
I2387
sS'off'
p2375
I2388
sS'surfboard'
p2376
I1196
sS'weapon'
p2377
I2390
sS'obstacles'
p2378
I2391
sS'fighting'
p2379
I2392
sS'scissor'
p2380
I2393
sS'1'
I2394
sS'twirl'
p2381
I2395
sS'position'
p2382
I2396
sS'muscle'
p2383
I2397
sS'drawing'
p2384
I2398
sS'bandanna'
p2385
I1638
sS'rocker'
p2386
I1641
sS'bananas'
p2387
I2401
sS'sloth'
p2388
I1715
sS'rest'
p2389
I2403
sS'lettuce'
p2390
I2404
sS'broomstick'
p2391
I2405
sS'coyotes'
p2392
I2406
sS'tight'
p2393
I2408
sS'point'
p2394
I1717
sS'sky'
p2395
I2410
sS'ketchup'
p2396
I1577
sS'add'
p2397
I2412
sS'other'
p2398
I2536
sS'circular'
p2399
I2414
sS'strech'
p2400
I1716
sS'astronaut'
p2401
I446
sS'footballer'
p2402
I1384
sS'match'
p2403
I1758
sS'knob'
p2404
I2419
sS'soccerball'
p2405
I2420
sS'branch'
p2406
I2538
sS'knod'
p2407
I2422
sS'sweep'
p2408
I1720
sS'dryer'
p2409
I1790
sS'five'
p2410
I2424
sS'desk'
p2411
I2425
sS'propeller'
p2412
I1797
sS'popscicle'
p2413
I2427
sS'insert'
p2414
I2428
sS'trash'
p2415
I2429
sS'like'
p2416
I2430
sS'onion'
p2417
I2431
sS'chairs'
p2418
I2432
sS'sofa'
p2419
I2433
sS'clown'
p2420
I1836
sS'tickled'
p2421
I2435
sS'chick'
p2422
I2437
sS'mustace'
p2423
I2438
sS'soft'
p2424
I2439
sS'page'
p2425
I2440
sS'heel'
p2426
I2441
sS'glare'
p2427
I2442
sS'school'
p2428
I992
sS'ballon'
p2429
I2444
sS'tumble'
p2430
I2445
sS'hair'
p2431
I2446
sS'gymnastics'
p2432
I2447
sS'trucker'
p2433
I2448
sS'thier'
p2434
I2449
sS'shrug'
p2435
I2450
sS'leaf'
p2436
I2451
sS'lean'
p2437
I2452
sS'leap'
p2438
I2453
sS'does'
p2439
I1946
sS'earrings'
p2440
I2455
sS'headlights'
p2441
I2456
sS'hose'
p2442
I2457
sS'cymbol'
p2443
I2458
sS'rock'
p2444
I2459
sS'mits'
p2445
I2460
sS'forks'
p2446
I2461
sS'host'
p2447
I2462
sS'danceing'
p2448
I2463
sS'pasta'
p2449
I2464
sS'stage'
p2450
I2465
sS'drumming'
p2451
I2466
sS'getting'
p2452
I2467
sS'tray'
p2453
I2468
sS'surge'
p2454
I2469
sS'carrier'
p2455
I2079
sS'beige'
p2456
I2471
sS'puppies'
p2457
I2472
sS'tongue'
p2458
I2473
sS'glasses'
p2459
I2474
sS'swimming'
p2460
I2475
sS'owl'
p2461
I2476
sS'reptile'
p2462
I2477
sS'own'
p2463
I2478
sS'gymnastic'
p2464
I2479
sS'socks'
p2465
I2480
sS'guard'
p2466
I2481
sS'en'
p2467
I2482
sS'brush'
p2468
I2483
sS'female'
p2469
I2484
sS'brass'
p2470
I2485
sS'knuckles'
p2471
I2486
sS'van'
p2472
I2487
sS'gerbil'
p2473
I2488
sS'transfer'
p2474
I2489
sS'vegetables'
p2475
I2490
sS'spots'
p2476
I2491
sS'beanie'
p2477
I1784
sS'obstacle'
p2478
I2493
sS'drumstick'
p2479
I2494
sS'toothpaste'
p2480
I2495
sS'backhand'
p2481
I2496
sS'bobble'
p2482
I2497
sS'unwrap'
p2483
I2498
sS'bus'
p2484
I2499
sS'but'
p2485
I2500
sS'hi'
p2486
I2501
sS'bun'
p2487
I2502
sS'gain'
p2488
I2503
sS'gail'
p2489
I2250
sS'squeeze'
p2490
I2258
sS'bug'
p2491
I2264
sS'bud'
p2492
I2507
sS'he'
p2493
I2508
sS'arns'
p2494
I2271
sS'genitals'
p2495
I2510
sS'places'
p2496
I2511
sS'smooth'
p2497
I2512
sS'flip'
p2498
I2513
sS'record'
p2499
I2301
sS'below'
p2500
I2515
sS'cello'
p2501
I2516
sS'cake'
p2502
I2517
sS'piece'
p2503
I2518
sS'stirring'
p2504
I2519
sS'skating'
p2505
I2520
sS'rabbits'
p2506
I2521
sS'pin'
p2507
I2522
sS'curve'
p2508
I1732
sS'circus'
p2509
I2524
sS'kisses'
p2510
I2525
sS'pie'
p2511
I2526
sS'pig'
p2512
I2527
sS'twist'
p2513
I2528
sS'ink'
p2514
I2529
sS'kissed'
p2515
I2530
sS'backflips'
p2516
I1945
sS'boop'
p2517
I2531
sS'dressed'
p2518
I2532
sS'eliptical'
p2519
I2533
sS'guitarist'
p2520
I2534
sS'boot'
p2521
I2535
sS'book'
p2522
I2413
sS'oar'
p2523
I2537
sS'ledge'
p2524
I2421
sS'ponytail'
p2525
I2539
sS'frisbee'
p2526
I2540
sS'star'
p2527
I2541
sS'plate'
p2528
I2060
sS'bundle'
p2529
I2542
sS'sandwhich'
p2530
I2436
sS'friends'
p2531
I1604
sS'firesticks'
p2532
I2545
sS'jab'
p2533
I2546
sS'armor'
p2534
I2547
sS'pupil'
p2535
I2548
sS'yell'
p2536
I2549
s.