(dp1
S'raining'
p2
I2
sS'yellow'
p3
I3
sS'four'
p4
I4
sS'woods'
p5
I5
sS'railing'
p6
I30
sS'comically'
p7
I7
sS'marching'
p8
I8
sS'snowing'
p9
I9
sS'fingernails'
p10
I10
sS'crossbar'
p11
I11
sS'flicking'
p12
I12
sS'sinking'
p13
I13
sS'swivel'
p14
I14
sS'propane'
p15
I15
sS'oceans'
p16
I16
sS'foul'
p17
I17
sS'stabbed'
p18
I18
sS'bringing'
p19
I123
sS'wooded'
p20
I20
sS'prize'
p21
I21
sS'wooden'
p22
I22
sS'protest'
p23
I3649
sS'piling'
p24
I24
sS'crotch'
p25
I25
sS'succession'
p26
I26
sS'irises'
p27
I27
sS'tired'
p28
I28
sS'snuggles'
p29
I29
sS'hanging'
p30
I6
sS'bacon'
p31
I31
sS'tires'
p32
I32
sS'elegant'
p33
I33
sS'second'
p34
I34
sS'shrugging'
p35
I35
sS'bolts'
p36
I6276
sS'blouse'
p37
I37
sS'dangled'
p38
I38
sS'cooking'
p39
I39
sS'fingers'
p40
I40
sS'dangles'
p41
I41
sS'pawed'
p42
I42
sS'crouch'
p43
I43
sS'chins'
p44
I44
sS'sunbeams'
p45
I45
sS'here'
p46
I46
sS'herd'
p47
I47
sS'tatum'
p48
I48
sS'kids'
p49
I49
sS'elaborate'
p50
I50
sS'climbed'
p51
I51
sS'tortoiseshell'
p52
I52
sS'military'
p53
I53
sS'climber'
p54
I54
sS'golden'
p55
I55
sS'reenters'
p56
I56
sS'divide'
p57
I57
sS'magically'
p58
I58
sS'brought'
p59
I59
sS'stern'
p60
I60
sS'cocaine'
p61
I61
sS'unit'
p62
I62
sS'opponents'
p63
I63
sS'disinterested'
p64
I6301
sS'spoke'
p65
I64
sS'moth'
p66
I1288
sS'symphony'
p67
I66
sS'music'
p68
I67
sS'passport'
p69
I68
sS'strike'
p70
I69
sS'until'
p71
I70
sS'females'
p72
I71
sS'relax'
p73
I72
sS'brings'
p74
I73
sS'hurt'
p75
I74
sS'glass'
p76
I75
sS'tying'
p77
I76
sS'midst'
p78
I487
sS'hold'
p79
I78
sS'locked'
p80
I79
sS'sway'
p81
I3660
sS'blade'
p82
I81
sS'locker'
p83
I82
sS'locket'
p84
I83
sS'leaped'
p85
I84
sS'exhale'
p86
I85
sS'expressively'
p87
I86
sS'headbanging'
p88
I87
sS'wand'
p89
I88
sS'pints'
p90
I89
sS'dragons'
p91
I90
sS'want'
p92
I91
sS'hog'
p93
I92
sS'dimple'
p94
I93
sS'travel'
p95
I94
sS'drying'
p96
I95
sS'damage'
p97
I96
sS'machine'
p98
I97
sS'how'
p99
I98
sS'hot'
p100
I99
sS'dimply'
p101
I100
sS'hop'
p102
I101
sS'cheetah'
p103
I102
sS'gaming'
p104
I104
sS'beauty'
p105
I105
sS'dinosaurs'
p106
I106
sS'wrong'
p107
I107
sS'types'
p108
I108
sS'wins'
p109
I110
sS'youths'
p110
I111
sS'wink'
p111
I112
sS'snowballs'
p112
I113
sS'keeps'
p113
I114
sS'wing'
p114
I115
sS'wind'
p115
I116
sS'wine'
p116
I117
sS'sarcastically'
p117
I2512
sS'welcomed'
p118
I119
sS'fir'
p119
I120
sS'lovingly'
p120
I121
sS'fit'
p121
I122
sS'screaming'
p122
I19
sS'backpack'
p123
I124
sS'hidden'
p124
I125
sS'fin'
p125
I126
sS'corridor'
p126
I127
sS'thrones'
p127
I128
sS'duvet'
p128
I129
sS'slicing'
p129
I130
sS'effects'
p130
I131
sS'mimicking'
p131
I132
sS'silver'
p132
I133
sS'defecate'
p133
I134
sS'dumps'
p134
I135
sS'clothed'
p135
I3670
sS'arrow'
p136
I137
sS'volcano'
p137
I138
sS'snakes'
p138
I139
sS'knockout'
p139
I140
sS'garment'
p140
I141
sS'spider'
p141
I142
sS'bowls'
p142
I143
sS'whit'
p143
I144
sS'message'
p144
I2520
sS'whip'
p145
I146
sS'rv'
p146
I147
sS'smirk'
p147
I148
sS'mason'
p148
I149
sS're'
p149
I150
sS'encourage'
p150
I151
sS'rc'
p151
I152
sS'plushy'
p152
I5742
sS'peddles'
p153
I721
sS'stamping'
p154
I154
sS'dracula'
p155
I155
sS'pumpkins'
p156
I156
sS'sheet'
p157
I157
sS'knit'
p158
I158
sS'enormous'
p159
I159
sS'ate'
p160
I160
sS'exposing'
p161
I161
sS'eared'
p162
I162
sS'shelves'
p163
I163
sS'atm'
p164
I164
sS'flurry'
p165
I5020
sS'scruff'
p166
I730
sS'musicians'
p167
I167
sS'dentures'
p168
I168
sS'leaps'
p169
I1305
sS'wobbling'
p170
I170
sS'speeds'
p171
I171
sS'purpose'
p172
I172
sS'shopper'
p173
I173
sS'goggle'
p174
I1093
sS'wash'
p175
I175
sS'spinning'
p176
I176
sS'kfc'
p177
I177
sS'chevron'
p178
I178
sS'headbutts'
p179
I6829
sS'basketball'
p180
I179
sS'similarly'
p181
I180
sS'engagement'
p182
I181
sS'master'
p183
I182
sS'blossoms'
p184
I183
sS'chugging'
p185
I184
sS'critter'
p186
I185
sS'legs'
p187
I186
sS'bitter'
p188
I187
sS'listen'
p189
I188
sS'banister'
p190
I524
sS'collapse'
p191
I190
sS'cushions'
p192
I191
sS'expelling'
p193
I192
sS'lunges'
p194
I193
sS'prosthetic'
p195
I194
sS'tugs'
p196
I195
sS'crawl'
p197
I197
sS'showed'
p198
I198
sS'handcuffs'
p199
I199
sS'tree'
p200
I200
sS'shower'
p201
I201
sS'idle'
p202
I202
sS'feeling'
p203
I203
sS'runner'
p204
I204
sS'shyly'
p205
I205
sS'paddles'
p206
I206
sS'shrubs'
p207
I207
sS'escalator'
p208
I208
sS'concrete'
p209
I1309
sS'paramedics'
p210
I210
sS'bleachers'
p211
I211
sS'soaked'
p212
I1313
sS'eagerly'
p213
I213
sS'metallic'
p214
I214
sS'racers'
p215
I215
sS'causing'
p216
I216
sS'defiantly'
p217
I217
sS'doors'
p218
I218
sS'grips'
p219
I219
sS'paintbrush'
p220
I220
sS'object'
p221
I221
sS'mouth'
p222
I222
sS'letter'
p223
I223
sS'videotaping'
p224
I224
sS'retaining'
p225
I225
sS'dummy'
p226
I226
sS'singer'
p227
I227
sS'cops'
p228
I6312
sS'professor'
p229
I229
sS'camp'
p230
I230
sS'tech'
p231
I231
sS'scream'
p232
I232
sS'came'
p233
I233
sS'saying'
p234
I234
sS'bomb'
p235
I235
sS'insects'
p236
I236
sS'padded'
p237
I237
sS'hairbands'
p238
I238
sS'recliner'
p239
I239
sS'capes'
p240
I240
sS'touches'
p241
I241
sS'busy'
p242
I242
sS'shuffling'
p243
I243
sS'menu'
p244
I244
sS'bust'
p245
I245
sS'cougar'
p246
I246
sS'bush'
p247
I247
sS'touched'
p248
I248
sS'rich'
p249
I249
sS'rice'
p250
I250
sS'plate'
p251
I251
sS'warmers'
p252
I252
sS'cartwheels'
p253
I253
sS'godzilla'
p254
I254
sS'pocket'
p255
I255
sS'cushion'
p256
I256
sS'plats'
p257
I257
sS'net'
p258
I3690
sS'jaguar'
p259
I259
sS'spilling'
p260
I260
sS'nicely'
p261
I261
sS'tights'
p262
I262
sS'boarder'
p263
I263
sS'dipping'
p264
I264
sS'pretzel'
p265
I265
sS'patch'
p266
I266
sS'piggy'
p267
I267
sS'release'
p268
I268
sS'blew'
p269
I269
sS'fair'
p270
I270
sS'unexpectedly'
p271
I271
sS'goodnight'
p272
I272
sS'fail'
p273
I273
sS'hero'
p274
I274
sS'hammer'
p275
I275
sS'best'
p276
I276
sS'lots'
p277
I277
sS'sombrero'
p278
I278
sS'fanged'
p279
I279
sS'rings'
p280
I280
sS'stamps'
p281
I281
sS'score'
p282
I282
sS'yogurt'
p283
I283
sS'jumpsuit'
p284
I5038
sS'pirate'
p285
I285
sS'skimpy'
p286
I286
sS'claws'
p287
I287
sS'nature'
p288
I288
sS'rolled'
p289
I289
sS'smelled'
p290
I290
sS'lapping'
p291
I291
sS'twinkling'
p292
I292
sS'wheelbarrow'
p293
I293
sS'roller'
p294
I295
sS'accident'
p295
I296
sS'country'
p296
I297
sS'pits'
p297
I298
sS'bodysuit'
p298
I299
sS'levitating'
p299
I300
sS'pita'
p300
I301
sS'argue'
p301
I302
sS'unbuttoned'
p302
I303
sS'frameqaeatedly'
p303
I304
sS'rednecks'
p304
I305
sS'canyon'
p305
I306
sS'blonde'
p306
I307
sS'grazing'
p307
I308
sS'startles'
p308
I309
sS'source'
p309
I310
sS'chrome'
p310
I311
sS'fro'
p311
I312
sS'bothers'
p312
I313
sS'startled'
p313
I314
sS'stadium'
p314
I315
sS'fry'
p315
I316
sS'dots'
p316
I317
sS'obese'
p317
I318
sS'life'
p318
I319
sS'spit'
p319
I320
sS'worker'
p320
I321
sS'substance'
p321
I880
sS'child'
p322
I323
sS'chili'
p323
I324
sS'spin'
p324
I325
sS'skilfully'
p325
I326
sS'contemplates'
p326
I328
sS'starstruck'
p327
I329
sS'skirts'
p328
I330
sS'remembering'
p329
I331
sS'bin'
p330
I332
sS'canoeing'
p331
I333
sS'played'
p332
I334
sS'taunts'
p333
I1936
sS'eighteen'
p334
I336
sS'piercings'
p335
I337
sS'violin'
p336
I338
sS'crusaders'
p337
I339
sS'damaged'
p338
I340
sS'things'
p339
I341
sS'toaster'
p340
I342
sS'shipwrecked'
p341
I343
sS'damages'
p342
I1990
sS'babies'
p343
I345
sS'couple'
p344
I1325
sS'fairly'
p345
I347
sS'boiled'
p346
I348
sS'inadvertently'
p347
I349
sS'tops'
p348
I350
sS'photographers'
p349
I351
sS'simulates'
p350
I352
sS'duster'
p351
I7183
sS'burgers'
p352
I353
sS'goofing'
p353
I354
sS'massaging'
p354
I355
sS'veils'
p355
I356
sS'recoils'
p356
I357
sS'bellow'
p357
I358
sS'uncurls'
p358
I359
sS'sleeps'
p359
I360
sS'sleepy'
p360
I361
sS'disguise'
p361
I362
sS'rotates'
p362
I363
sS'rushing'
p363
I364
sS'amusingly'
p364
I365
sS'jumpers'
p365
I366
sS'handshake'
p366
I367
sS'spectacles'
p367
I2134
sS'ham'
p368
I369
sS'had'
p369
I370
sS'hay'
p370
I371
sS'innocent'
p371
I372
sS'prison'
p372
I373
sS'east'
p373
I2160
sS'hat'
p374
I375
sS'elevation'
p375
I376
sS'casually'
p376
I377
sS'disagreement'
p377
I378
sS'possibly'
p378
I379
sS'shadow'
p379
I380
sS'poses'
p380
I381
sS'bushy'
p381
I382
sS'stylist'
p382
I383
sS'deckchairs'
p383
I384
sS'pavement'
p384
I385
sS'steps'
p385
I386
sS'meringue'
p386
I387
sS'right'
p387
I388
sS'old'
p388
I389
sS'creek'
p389
I390
sS'crowd'
p390
I391
sS'people'
p391
I392
sS'crown'
p392
I393
sS'crows'
p393
I394
sS'stealthily'
p394
I395
sS'creep'
p395
I396
sS'gasps'
p396
I397
sS'for'
p397
I398
sS'bottom'
p398
I399
sS'rehearse'
p399
I400
sS'fox'
p400
I401
sS'ruffles'
p401
I402
sS'fog'
p402
I403
sS'treadmill'
p403
I404
sS'stingray'
p404
I405
sS'pinched'
p405
I406
sS'shakes'
p406
I408
sS'trampoline'
p407
I409
sS'shifting'
p408
I410
sS'starring'
p409
I411
sS'losing'
p410
I412
sS'bowing'
p411
I413
sS'emits'
p412
I414
sS'shaken'
p413
I415
sS'benches'
p414
I416
sS'opossums'
p415
I417
sS'o'
I418
sS'despair'
p416
I419
sS'slightly'
p417
I420
sS'raised'
p418
I422
sS'son'
p419
I423
sS'beings'
p420
I424
sS'raises'
p421
I425
sS'wrap'
p422
I426
sS'pairs'
p423
I6688
sS'shoots'
p424
I427
sS'frazzled'
p425
I428
sS'fabric'
p426
I429
sS'waits'
p427
I430
sS'altitude'
p428
I431
sS'constantly'
p429
I432
sS'tame'
p430
I433
sS'grasping'
p431
I434
sS'untie'
p432
I435
sS'launching'
p433
I436
sS'happy'
p434
I437
sS'waistcoat'
p435
I438
sS'buttoning'
p436
I7093
sS'offer'
p437
I439
sS'forming'
p438
I440
sS'otter'
p439
I441
sS'duel'
p440
I442
sS'rippling'
p441
I443
sS'inside'
p442
I444
sS'devices'
p443
I445
sS'smashes'
p444
I446
sS'lays'
p445
I447
sS'soldering'
p446
I448
sS'passenger'
p447
I449
sS'cuddles'
p448
I6342
sS'tournament'
p449
I451
sS'bathrobe'
p450
I452
sS'crumble'
p451
I453
sS'triangles'
p452
I454
sS'crutches'
p453
I455
sS'lees'
p454
I456
sS'floor'
p455
I457
sS'actor'
p456
I458
sS'flood'
p457
I459
sS'nestling'
p458
I460
sS'aerosol'
p459
I294
sS'smell'
p460
I462
sS'roll'
p461
I463
sS"'s"
p462
I464
sS'lollipops'
p463
I465
sS'palms'
p464
I466
sS'models'
p465
I467
sS'smelling'
p466
I468
sS'rolling'
p467
I469
sS'cleaver'
p468
I470
sS'windscreen'
p469
I471
sS'explosions'
p470
I472
sS'rockers'
p471
I473
sS'sniffed'
p472
I474
sS'time'
p473
I475
sS'push'
p474
I476
sS'overturned'
p475
I477
sS'peacock'
p476
I478
sS'furry'
p477
I6006
sS'chain'
p478
I479
sS'crocodile'
p479
I480
sS'avalanche'
p480
I481
sS'skate'
p481
I482
sS'skiing'
p482
I483
sS'trashcan'
p483
I484
sS'chair'
p484
I485
sS'activates'
p485
I486
sS'hole'
p486
I77
sS'ballet'
p487
I488
sS'suspending'
p488
I489
sS'blindfold'
p489
I3735
sS'german'
p490
I490
sS'balled'
p491
I491
sS'dragonfly'
p492
I492
sS'fatigues'
p493
I493
sS'icing'
p494
I494
sS'prances'
p495
I495
sS'gloomy'
p496
I496
sS'stays'
p497
I497
sS'minute'
p498
I498
sS'cooks'
p499
I499
sS'tricycle'
p500
I500
sS'tear'
p501
I501
sS'kneading'
p502
I502
sS'leave'
p503
I503
sS'crustacean'
p504
I504
sS'subway'
p505
I505
sS'teal'
p506
I506
sS'team'
p507
I507
sS'loads'
p508
I508
sS'prevent'
p509
I509
sS'bulldozer'
p510
I510
sS'bock'
p511
I511
sS'attic'
p512
I512
sS'trails'
p513
I513
sS'steaks'
p514
I514
sS'chopping'
p515
I515
sS'crescent'
p516
I516
sS'parachuting'
p517
I517
sS'headset'
p518
I518
sS'wriggle'
p519
I519
sS'freaks'
p520
I520
sS'falling'
p521
I521
sS'crashing'
p522
I522
sS'badge'
p523
I523
sS'ramming'
p524
I189
sS'climbs'
p525
I525
sS'funeral'
p526
I526
sS'plucking'
p527
I527
sS'contemplate'
p528
I528
sS'alone'
p529
I529
sS'along'
p530
I530
sS'anchoring'
p531
I6990
sS'passengers'
p532
I532
sS'dusts'
p533
I533
sS'dusty'
p534
I534
sS'wherever'
p535
I535
sS'queue'
p536
I536
sS'love'
p537
I537
sS'bloody'
p538
I538
sS'raking'
p539
I539
sS'fake'
p540
I540
sS'cocktail'
p541
I6227
sS'sunbathing'
p542
I541
sS'working'
p543
I542
sS'turret'
p544
I543
sS'wicker'
p545
I544
sS'angry'
p546
I545
sS'dangle'
p547
I546
sS'tightly'
p548
I547
sS'topples'
p549
I548
sS'films'
p550
I549
sS'scope'
p551
I550
sS'loving'
p552
I551
sS'scratched'
p553
I552
sS'introducing'
p554
I553
sS'apparent'
p555
I554
sS'approving'
p556
I555
sS'consoles'
p557
I556
sS'everywhere'
p558
I557
sS'scratches'
p559
I558
sS'riders'
p560
I559
sS'mascot'
p561
I560
sS'pretend'
p562
I561
sS'printing'
p563
I562
sS'following'
p564
I563
sS'interstate'
p565
I564
sS'gunfire'
p566
I565
sS'mirrors'
p567
I566
sS'awesome'
p568
I567
sS'nascar'
p569
I568
sS'parachute'
p570
I569
sS'locks'
p571
I570
sS'hides'
p572
I571
sS'backdrop'
p573
I720
sS'listens'
p574
I572
sS'winter'
p575
I573
sS'poking'
p576
I574
sS'elephant'
p577
I575
sS'snaps'
p578
I576
sS'explores'
p579
I577
sS'blasting'
p580
I578
sS'spot'
p581
I579
sS'applications'
p582
I580
sS'suck'
p583
I581
sS'dove'
p584
I582
sS'times'
p585
I5709
sS'pulley'
p586
I583
sS'surfing'
p587
I584
sS'wheelchair'
p588
I585
sS'yielding'
p589
I586
sS'darkened'
p590
I587
sS'mango'
p591
I588
sS'so'
p592
I589
sS'wolves'
p593
I590
sS'pulled'
p594
I591
sS'flips'
p595
I592
sS'decals'
p596
I593
sS'course'
p597
I594
sS'bucking'
p598
I595
sS'limbs'
p599
I596
sS'yawning'
p600
I597
sS'thumb'
p601
I598
sS'accordion'
p602
I599
sS'torn'
p603
I3483
sS'attraction'
p604
I601
sS'suspicion'
p605
I602
sS'suspension'
p606
I603
sS'swastika'
p607
I604
sS'instantly'
p608
I605
sS'apron'
p609
I606
sS'civilian'
p610
I607
sS'matches'
p611
I608
sS'records'
p612
I609
sS'drilling'
p613
I610
sS'twilight'
p614
I611
sS'ketchup'
p615
I612
sS'runners'
p616
I613
sS'shouted'
p617
I614
sS'bowling'
p618
I615
sS'quarter'
p619
I616
sS'turtle'
p620
I617
sS'square'
p621
I618
sS'bursting'
p622
I619
sS'crushing'
p623
I620
sS'entering'
p624
I621
sS'canvas'
p625
I622
sS'container'
p626
I623
sS'rounding'
p627
I624
sS'seriously'
p628
I625
sS'exploding'
p629
I626
sS'suggesting'
p630
I627
sS'formula'
p631
I628
sS'squares'
p632
I629
sS'igniting'
p633
I630
sS'sings'
p634
I5987
sS'smalls'
p635
I631
sS'quite'
p636
I632
sS'spooning'
p637
I633
sS'bumps'
p638
I634
sS'complicated'
p639
I635
sS'intensely'
p640
I636
sS'inhaler'
p641
I637
sS'inhales'
p642
I638
sS'training'
p643
I639
sS'silhouetted'
p644
I640
sS'disguised'
p645
I641
sS'possum'
p646
I642
sS'backside'
p647
I643
sS'collapsing'
p648
I644
sS'sneaky'
p649
I1358
sS'punk'
p650
I646
sS'ostrich'
p651
I647
sS'silhouettes'
p652
I648
sS'punt'
p653
I649
sS'massive'
p654
I650
sS'parrot'
p655
I5627
sS'emotion'
p656
I651
sS'ignored'
p657
I6377
sS'clause'
p658
I653
sS'passageway'
p659
I3759
sS'potter'
p660
I655
sS'one'
p661
I656
sS'chubby'
p662
I657
sS'potted'
p663
I658
sS'open'
p664
I659
sS'ripping'
p665
I660
sS'city'
p666
I661
sS'bite'
p667
I662
sS'runways'
p668
I663
sS'teacher'
p669
I6924
sS'2'
I664
sS'stuffed'
p670
I665
sS'typing'
p671
I666
sS'bits'
p672
I667
sS'slashes'
p673
I668
sS'notebook'
p674
I1541
sS'floppy'
p675
I669
sS'tombstones'
p676
I671
sS'snatch'
p677
I672
sS'veers'
p678
I673
sS'ridiculous'
p679
I674
sS'iceberg'
p680
I675
sS'depressed'
p681
I676
sS'coats'
p682
I3936
sS'siding'
p683
I678
sS'future'
p684
I679
sS'scuba'
p685
I680
sS'turned'
p686
I681
sS'locations'
p687
I3971
sS'alley'
p688
I683
sS'sad'
p689
I684
sS'say'
p690
I3976
sS'rained'
p691
I686
sS'buried'
p692
I687
sS'lurking'
p693
I688
sS'saw'
p694
I689
sS'sat'
p695
I690
sS'cigarettes'
p696
I691
sS'warriors'
p697
I4032
sS'downwards'
p698
I693
sS'aside'
p699
I694
sS'zoo'
p700
I695
sS'note'
p701
I696
sS'take'
p702
I697
sS'roadside'
p703
I698
sS'destroy'
p704
I4055
sS'blinding'
p705
I700
sS'relaxed'
p706
I1365
sS'butterfly'
p707
I702
sS'handing'
p708
I703
sS'printer'
p709
I704
sS'maneuvering'
p710
I705
sS'dinghies'
p711
I706
sS'opposite'
p712
I707
sS'spewing'
p713
I708
sS'buffet'
p714
I709
sS'printed'
p715
I710
sS'knee'
p716
I711
sS'inserted'
p717
I712
sS'pages'
p718
I713
sS'armrest'
p719
I714
sS'lawn'
p720
I715
sS'montage'
p721
I716
sS'trembles'
p722
I717
sS'drive'
p723
I718
sS'sodas'
p724
I719
sS'moose'
p725
I5985
sS'compactor'
p726
I4133
sS'careering'
p727
I722
sS'salt'
p728
I723
sS'walking'
p729
I724
sS'frameqaorter'
p730
I726
sS'frameqaorted'
p731
I727
sS'bright'
p732
I728
sS'aggressive'
p733
I729
sS'slot'
p734
I731
sS'weapons'
p735
I6388
sS'slow'
p736
I733
sS'farting'
p737
I734
sS'robs'
p738
I735
sS'cloak'
p739
I736
sS'nutshell'
p740
I737
sS'aimlessly'
p741
I738
sS'pianos'
p742
I3774
sS'tears'
p743
I740
sS'going'
p744
I741
sS'hockey'
p745
I742
sS'robe'
p746
I4227
sS'clawing'
p747
I744
sS'beatles'
p748
I745
sS'tilting'
p749
I746
sS'wheelie'
p750
I747
sS'inuit'
p751
I748
sS'artist'
p752
I749
sS'worried'
p753
I750
sS'skyline'
p754
I751
sS'bombs'
p755
I752
sS'uncover'
p756
I753
sS'tortilla'
p757
I754
sS'where'
p758
I755
sS'sheathes'
p759
I756
sS'dives'
p760
I757
sS'diver'
p761
I758
sS'poops'
p762
I759
sS'wielding'
p763
I760
sS'jumped'
p764
I761
sS'mops'
p765
I762
sS'teacup'
p766
I763
sS'navigates'
p767
I764
sS'teens'
p768
I4416
sS'surfboards'
p769
I766
sS'jumper'
p770
I767
sS'scoring'
p771
I3780
sS'checkered'
p772
I769
sS'vertical'
p773
I770
sS'screen'
p774
I771
sS'supermarket'
p775
I772
sS'revealed'
p776
I773
sS'awards'
p777
I4450
sS'jets'
p778
I775
sS'spark'
p779
I776
sS'busting'
p780
I777
sS'mans'
p781
I778
sS'parapet'
p782
I779
sS'many'
p783
I780
sS'flipped'
p784
I781
sS's'
I782
sS'loudly'
p785
I783
sS'mane'
p786
I784
sS'flipper'
p787
I785
sS'grooming'
p788
I786
sS'expression'
p789
I787
sS'fix'
p790
I788
sS'twin'
p791
I789
sS'boar'
p792
I790
sS'boas'
p793
I791
sS'twig'
p794
I792
sS'panics'
p795
I4561
sS'caring'
p796
I794
sS'sprays'
p797
I3786
sS'collides'
p798
I796
sS'teddy'
p799
I797
sS'stretch'
p800
I798
sS'toothpaste'
p801
I799
sS'breath'
p802
I800
sS'reflective'
p803
I802
sS'wants'
p804
I803
sS'lanes'
p805
I804
sS'coughing'
p806
I805
sS'formed'
p807
I806
sS'turtleneck'
p808
I807
sS'rooftops'
p809
I808
sS'observe'
p810
I809
sS'canoed'
p811
I810
sS'straighten'
p812
I811
sS'squeezes'
p813
I812
sS'intimately'
p814
I813
sS'canoes'
p815
I814
sS'squeezed'
p816
I815
sS'situation'
p817
I816
sS'spotlight'
p818
I817
sS'shepard'
p819
I818
sS'canoe'
p820
I819
sS'twists'
p821
I820
sS'purse'
p822
I821
sS'speedway'
p823
I822
sS'spooked'
p824
I823
sS'technology'
p825
I824
sS'dragging'
p826
I825
sS'shuts'
p827
I826
sS'breakdown'
p828
I827
sS'wires'
p829
I828
sS'barbel'
p830
I829
sS'deflate'
p831
I830
sS'cheers'
p832
I831
sS'edges'
p833
I832
sS'wired'
p834
I833
sS'advertisement'
p835
I834
sS'cheery'
p836
I835
sS'hummingbird'
p837
I836
sS'tracking'
p838
I837
sS'pacing'
p839
I838
sS'trains'
p840
I839
sS'grumpy'
p841
I840
sS'summer'
p842
I841
sS'sprayed'
p843
I842
sS'being'
p844
I843
sS'slime'
p845
I844
sS'rest'
p846
I845
sS'sprayer'
p847
I846
sS'afterwards'
p848
I6406
sS'blondes'
p849
I847
sS'plumed'
p850
I848
sS'instrument'
p851
I849
sS'skies'
p852
I850
sS'skier'
p853
I851
sS'around'
p854
I852
sS'pframeqaare'
p855
I853
sS'gestured'
p856
I854
sS'unveil'
p857
I855
sS'dark'
p858
I5026
sS'traffic'
p859
I857
sS'bandage'
p860
I858
sS'vacuum'
p861
I860
sS'world'
p862
I861
sS'apple'
p863
I7156
sS'snowmobiles'
p864
I862
sS'clad'
p865
I863
sS'superiority'
p866
I864
sS'clay'
p867
I865
sS'claw'
p868
I866
sS'stationary'
p869
I867
sS'kennel'
p870
I868
sS'clap'
p871
I869
sS'auditorium'
p872
I870
sS'seating'
p873
I871
sS'mulder'
p874
I872
sS'fives'
p875
I873
sS'diving'
p876
I874
sS'pickles'
p877
I875
sS'thinks'
p878
I876
sS'hunches'
p879
I6418
sS'dimensions'
p880
I878
sS'tote'
p881
I879
sS'tube'
p882
I881
sS'searing'
p883
I882
sS'tuba'
p884
I883
sS'cannabis'
p885
I884
sS'exit'
p886
I885
sS'dimples'
p887
I886
sS'tubs'
p888
I887
sS'destroys'
p889
I888
sS'scientific'
p890
I889
sS'power'
p891
I890
sS'intimate'
p892
I891
sS'frameqalace'
p893
I892
sS'leadership'
p894
I893
sS'ducking'
p895
I3801
sS'stone'
p896
I895
sS'ace'
p897
I896
sS'package'
p898
I897
sS'side'
p899
I3803
sS'act'
p900
I899
sS'gesturing'
p901
I900
sS'curling'
p902
I901
sS'marshmallow'
p903
I902
sS'headsets'
p904
I903
sS'image'
p905
I904
sS'legged'
p906
I905
sS'wads'
p907
I906
sS'sneering'
p908
I907
sS'lively'
p909
I908
sS'moped'
p910
I909
sS'hew'
p911
I910
sS'her'
p912
I911
sS'lounging'
p913
I912
sS'mindless'
p914
I913
sS'sealed'
p915
I914
sS'slopes'
p916
I915
sS'bubble'
p917
I916
sS'complete'
p918
I917
sS'gliding'
p919
I918
sS'mics'
p920
I919
sS'foreheads'
p921
I920
sS'fighter'
p922
I921
sS'mice'
p923
I922
sS'with'
p924
I923
sS'buying'
p925
I924
sS'handsome'
p926
I925
sS'pull'
p927
I926
sS'rush'
p928
I927
sS'thumps'
p929
I928
sS'rescuing'
p930
I929
sS'tambourines'
p931
I930
sS'dirty'
p932
I931
sS'mopping'
p933
I932
sS'torso'
p934
I933
sS'trips'
p935
I934
sS'gone'
p936
I5429
sS'carver'
p937
I5024
sS'fright'
p938
I937
sS'am'
p939
I938
sS'straightens'
p940
I939
sS'watches'
p941
I940
sS'an'
p942
I941
sS'as'
p943
I942
sS'at'
p944
I943
sS'walks'
p945
I944
sS'ax'
p946
I945
sS'crease'
p947
I1406
sS'cream'
p948
I947
sS'collie'
p949
I948
sS'yoga'
p950
I949
sS'tight'
p951
I950
sS'someones'
p952
I951
sS'puppy'
p953
I952
sS'motorcyclists'
p954
I953
sS'hydraulics'
p955
I954
sS'waving'
p956
I955
sS'herbs'
p957
I956
sS'midget'
p958
I957
sS'tricks'
p959
I958
sS'groom'
p960
I959
sS'mask'
p961
I960
sS'dyed'
p962
I961
sS'hello'
p963
I962
sS'mimic'
p964
I963
sS'sawing'
p965
I964
sS'motocross'
p966
I965
sS'debris'
p967
I966
sS'causes'
p968
I967
sS'particles'
p969
I3813
sS'hunting'
p970
I969
sS'tv'
p971
I970
sS'squirrels'
p972
I6431
sS'to'
p973
I972
sS'tail'
p974
I973
sS'chewing'
p975
I974
sS'dressing'
p976
I975
sS'smile'
p977
I976
sS'roadway'
p978
I977
sS'paying'
p979
I6433
sS'puzzled'
p980
I979
sS'squiring'
p981
I980
sS'swallows'
p982
I981
sS'baton'
p983
I982
sS'tatted'
p984
I983
sS'revolving'
p985
I3815
sS'strand'
p986
I985
sS'`'
I986
sS'cable'
p987
I987
sS'laying'
p988
I988
sS'joined'
p989
I989
sS'large'
p990
I990
sS'sang'
p991
I991
sS'sand'
p992
I992
sS'swirling'
p993
I993
sS'millimeters'
p994
I995
sS'unwraps'
p995
I996
sS'small'
p996
I997
sS'mammal'
p997
I998
sS'dodges'
p998
I999
sS'sync'
p999
I1000
sS'past'
p1000
I1001
sS'displays'
p1001
I1002
sS'pass'
p1002
I1003
sS'handicapped'
p1003
I1004
sS'clock'
p1004
I1005
sS'section'
p1005
I1006
sS'frameqatiles'
p1006
I1007
sS'nurse'
p1007
I1008
sS'revealing'
p1008
I1009
sS'full'
p1009
I1010
sS'escaping'
p1010
I1011
sS'leaping'
p1011
I1012
sS'mound'
p1012
I6442
sS'hamster'
p1013
I1014
sS'pick'
p1014
I1015
sS'action'
p1015
I1016
sS'brimmed'
p1016
I1017
sS'followed'
p1017
I1018
sS'adidas'
p1018
I1019
sS'vie'
p1019
I1020
sS'strolling'
p1020
I1021
sS'horsing'
p1021
I1022
sS'indoors'
p1022
I1023
sS'pulls'
p1023
I1024
sS'casket'
p1024
I1025
sS'poodle'
p1025
I1026
sS'pearl'
p1026
I1027
sS'pitching'
p1027
I1028
sS'more'
p1028
I1029
sS'teen'
p1029
I1030
sS'restraint'
p1030
I6970
sS'door'
p1031
I1031
sS'company'
p1032
I1032
sS'chucks'
p1033
I1033
sS'tested'
p1034
I1034
sS'coyote'
p1035
I1035
sS'riverbank'
p1036
I1036
sS'fleece'
p1037
I1037
sS'science'
p1038
I1038
sS'installing'
p1039
I1039
sS'mall'
p1040
I1040
sS'gesticulating'
p1041
I1041
sS'knocked'
p1042
I1042
sS'grope'
p1043
I1043
sS'male'
p1044
I1044
sS'beautiful'
p1045
I1045
sS'impacts'
p1046
I1046
sS'accept'
p1047
I1047
sS'fiercely'
p1048
I1048
sS'schoolgirl'
p1049
I1049
sS'gallon'
p1050
I1050
sS'scar'
p1051
I1051
sS'dress'
p1052
I1052
sS'huge'
p1053
I1053
sS'speedboat'
p1054
I1054
sS'glowing'
p1055
I1055
sS'disturbed'
p1056
I1056
sS'cling'
p1057
I1057
sS'hugs'
p1058
I1058
sS'clink'
p1059
I1059
sS'creature'
p1060
I1060
sS'waved'
p1061
I1061
sS'plant'
p1062
I1062
sS'plans'
p1063
I1063
sS'countryside'
p1064
I1064
sS'plane'
p1065
I1065
sS'waves'
p1066
I1066
sS'backyard'
p1067
I1067
sS'plank'
p1068
I1068
sS'loud'
p1069
I3829
sS'twisting'
p1070
I1070
sS'pucker'
p1071
I1071
sS'volleyball'
p1072
I1072
sS'tentacles'
p1073
I1073
sS'patio'
p1074
I1074
sS'pans'
p1075
I1075
sS'rottweiler'
p1076
I1076
sS'pant'
p1077
I1077
sS'bowl'
p1078
I6455
sS'pframeqaares'
p1079
I1079
sS'attitude'
p1080
I1080
sS'paper'
p1081
I1081
sS'pane'
p1082
I1082
sS'signs'
p1083
I1083
sS'smiling'
p1084
I1084
sS'its'
p1085
I1085
sS'licks'
p1086
I1086
sS'rapidly'
p1087
I1087
sS'laces'
p1088
I1090
sS'bobbles'
p1089
I6460
sS'sauce'
p1090
I1092
sS'playfully'
p1091
I174
sS'salamander'
p1092
I1094
sS'rebounds'
p1093
I6632
sS'snowball'
p1094
I1095
sS'sucked'
p1095
I1096
sS'lettuce'
p1096
I1097
sS'swimsuit'
p1097
I1098
sS'strangling'
p1098
I1099
sS'piping'
p1099
I1100
sS'found'
p1100
I1101
sS'shocking'
p1101
I1102
sS'energetically'
p1102
I1103
sS'lantern'
p1103
I1104
sS'brunette'
p1104
I1105
sS'bends'
p1105
I1106
sS'accelerator'
p1106
I1107
sS'bendy'
p1107
I1108
sS'bouquets'
p1108
I1109
sS'operation'
p1109
I1110
sS'really'
p1110
I1111
sS'try'
p1111
I1112
sS'missed'
p1112
I1113
sS'candlelight'
p1113
I1114
sS'scoops'
p1114
I1115
sS'misses'
p1115
I1116
sS'highway'
p1116
I1117
sS'nervously'
p1117
I1118
sS'alleys'
p1118
I1119
sS'drifting'
p1119
I1120
sS'porcelain'
p1120
I1121
sS'acorn'
p1121
I1122
sS'riser'
p1122
I1123
sS'rises'
p1123
I1124
sS'owners'
p1124
I1125
sS'positioning'
p1125
I1126
sS'w'
I1127
sS'bumper'
p1126
I1128
sS'castle'
p1127
I1129
sS'clump'
p1128
I1130
sS'porpoise'
p1129
I1131
sS'reversing'
p1130
I1132
sS'forwards'
p1131
I1133
sS'girls'
p1132
I3844
sS'number'
p1133
I1135
sS'feeder'
p1134
I1136
sS'slipper'
p1135
I1137
sS'gazes'
p1136
I1138
sS'scuffling'
p1137
I1139
sS'glitter'
p1138
I1140
sS'heads'
p1139
I1141
sS'guest'
p1140
I1142
sS'jet'
p1141
I1143
sS'swipe'
p1142
I1144
sS'threatening'
p1143
I1145
sS'flings'
p1144
I1146
sS'interviewing'
p1145
I5920
sS'stallions'
p1146
I1147
sS'fiframeqalace'
p1147
I1148
sS'cradled'
p1148
I1149
sS'warmly'
p1149
I1150
sS'interviewee'
p1150
I1151
sS'interviewed'
p1151
I1152
sS'focusing'
p1152
I1153
sS'interviewer'
p1153
I1154
sS'stairs'
p1154
I1155
sS'obama'
p1155
I1156
sS'submissively'
p1156
I1157
sS'swiveling'
p1157
I1158
sS'defends'
p1158
I1159
sS'fights'
p1159
I1160
sS'nailing'
p1160
I1161
sS'pframeqaaring'
p1161
I6476
sS'pedestrian'
p1162
I1163
sS'caress'
p1163
I1164
sS'graffiti'
p1164
I1165
sS'blond'
p1165
I1166
sS'sell'
p1166
I1167
sS'ballerina'
p1167
I1168
sS'spaghetti'
p1168
I1169
sS'self'
p1169
I1170
sS'silvery'
p1170
I1171
sS'also'
p1171
I1172
sS'brace'
p1172
I1173
sS'play'
p1173
I1174
sS'swiftly'
p1174
I1175
sS'nasal'
p1175
I1176
sS'singlet'
p1176
I1177
sS'yawn'
p1177
I1178
sS'pureeing'
p1178
I1179
sS'darts'
p1179
I1180
sS'accepting'
p1180
I1181
sS'colliding'
p1181
I1182
sS'cover'
p1182
I1183
sS'lounge'
p1183
I2426
sS'artistic'
p1184
I1184
sS'barren'
p1185
I1185
sS'barrel'
p1186
I1186
sS'dragged'
p1187
I1187
sS'bandeau'
p1188
I1188
sS'golf'
p1189
I1189
sS'gold'
p1190
I1190
sS'aghast'
p1191
I1191
sS'dejects'
p1192
I1192
sS'defender'
p1193
I1193
sS'blender'
p1194
I1194
sS'wraps'
p1195
I1196
sS'writes'
p1196
I1197
sS'writer'
p1197
I1198
sS'clothesline'
p1198
I1199
sS'failed'
p1199
I1200
sS'cassette'
p1200
I1201
sS'condom'
p1201
I1202
sS'captures'
p1202
I6481
sS'columns'
p1203
I1203
sS'begins'
p1204
I3851
sS'distance'
p1205
I3852
sS'sunny'
p1206
I1206
sS'synchronization'
p1207
I1207
sS'actress'
p1208
I6483
sS'closely'
p1209
I1209
sS'banner'
p1210
I1210
sS'distraction'
p1211
I1211
sS'enemy'
p1212
I1212
sS'devoured'
p1213
I1213
sS'sleeve'
p1214
I1214
sS'paddling'
p1215
I1215
sS'tabby'
p1216
I1216
sS'bird'
p1217
I1217
sS'frantically'
p1218
I5761
sS'weaves'
p1219
I1218
sS'approaching'
p1220
I1219
sS'delicately'
p1221
I1220
sS'set'
p1222
I1221
sS'carrying'
p1223
I1222
sS'see'
p1224
I1223
sS'sea'
p1225
I1224
sS'sips'
p1226
I1225
sS'origami'
p1227
I1226
sS'outward'
p1228
I1227
sS'project'
p1229
I1228
sS'puncturing'
p1230
I1229
sS'guinea'
p1231
I1230
sS'performer'
p1232
I7159
sS'pickup'
p1233
I1231
sS'crosswalk'
p1234
I1232
sS'monsters'
p1235
I1233
sS'knowing'
p1236
I1234
sS'fidgets'
p1237
I1235
sS'incident'
p1238
I1236
sS'mingling'
p1239
I2677
sS'disintegrates'
p1240
I3701
sS'last'
p1241
I1238
sS'barely'
p1242
I1239
sS'\\?'
p1243
I6491
sS'lash'
p1244
I1241
sS'whole'
p1245
I1242
sS'patty'
p1246
I1243
sS'load'
p1247
I1244
sS'loaf'
p1248
I1245
sS'pendulum'
p1249
I1246
sS'drunk'
p1250
I1247
sS'bejeweled'
p1251
I1248
sS'forklift'
p1252
I1249
sS'smashing'
p1253
I1250
sS'leading'
p1254
I6804
sS'church'
p1255
I1251
sS'belt'
p1256
I1252
sS'devil'
p1257
I1253
sS'conveyor'
p1258
I1254
sS'lizards'
p1259
I1255
sS'pantomiming'
p1260
I1256
sS'flounces'
p1261
I1257
sS'hitting'
p1262
I1258
sS'contentedly'
p1263
I1259
sS'extravagant'
p1264
I1260
sS'resting'
p1265
I1262
sS'sleeved'
p1266
I1263
sS'raced'
p1267
I1264
sS'squirrel'
p1268
I1265
sS'fire'
p1269
I1266
sS'wheeler'
p1270
I1267
sS'surfacing'
p1271
I1268
sS'racer'
p1272
I1269
sS'races'
p1273
I1270
sS'sleeves'
p1274
I1271
sS'deport'
p1275
I1272
sS'wheeled'
p1276
I1273
sS'slobs'
p1277
I1274
sS'presses'
p1278
I1275
sS'handling'
p1279
I1276
sS'uncertain'
p1280
I1277
sS'slyly'
p1281
I1278
sS'straight'
p1282
I1279
sS'pressed'
p1283
I1281
sS'leaning'
p1284
I1282
sS'kissing'
p1285
I1283
sS'real'
p1286
I2685
sS'pound'
p1287
I1285
sS'hoping'
p1288
I1286
sS'arching'
p1289
I1287
sS'backing'
p1290
I65
sS'calculator'
p1291
I1289
sS'decline'
p1292
I6918
sS'ducks'
p1293
I1290
sS'triple'
p1294
I1291
sS'thrown'
p1295
I6781
sS'chase'
p1296
I1292
sS'funny'
p1297
I1293
sS'choking'
p1298
I1294
sS'maids'
p1299
I1295
sS'shorter'
p1300
I1296
sS'virtually'
p1301
I1297
sS'pecking'
p1302
I1298
sS'knitting'
p1303
I1299
sS'snail'
p1304
I1300
sS'flooded'
p1305
I1301
sS'cigar'
p1306
I1302
sS'viewing'
p1307
I1303
sS'levels'
p1308
I1304
sS'cucumber'
p1309
I169
sS'stack'
p1310
I1306
sS'canned'
p1311
I1307
sS'picks'
p1312
I1308
sS'person'
p1313
I209
sS'feces'
p1314
I1310
sS'strobe'
p1315
I1311
sS'clasped'
p1316
I1312
sS'listening'
p1317
I2693
sS'amp'
p1318
I3644
sS'cuffs'
p1319
I1316
sS'surprises'
p1320
I1317
sS'chest'
p1321
I1318
sS'signals'
p1322
I1319
sS'parents'
p1323
I1320
sS'crying'
p1324
I1321
sS'surprised'
p1325
I1322
sS'clutches'
p1326
I1323
sS'emergency'
p1327
I1324
sS'skateboards'
p1328
I346
sS'towel'
p1329
I6508
sS'flannel'
p1330
I1452
sS'sorting'
p1331
I1328
sS'd'
I1329
sS'individuals'
p1332
I1089
sS'stylish'
p1333
I1331
sS'spins'
p1334
I1332
sS'clipping'
p1335
I1333
sS'partying'
p1336
I1334
sS'spring'
p1337
I1335
sS'sorbet'
p1338
I1336
sS'bounce'
p1339
I1337
sS'sighs'
p1340
I1338
sS'bouncy'
p1341
I1339
sS'palm'
p1342
I1340
sS'sight'
p1343
I1341
sS'curious'
p1344
I1342
sS'sprint'
p1345
I1343
sS'pale'
p1346
I1344
sS'mummy'
p1347
I1345
sS'ornate'
p1348
I1346
sS'be'
p1349
I1347
sS'performed'
p1350
I7189
sS'agreement'
p1351
I1348
sS'santa'
p1352
I1349
sS'by'
p1353
I1350
sS'anything'
p1354
I1351
sS'exaggerated'
p1355
I1352
sS'hatchet'
p1356
I1353
sS'whiteboard'
p1357
I1354
sS'garbage'
p1358
I1355
sS'into'
p1359
I1356
sS'arcade'
p1360
I1357
sS'retrieving'
p1361
I645
sS'sock'
p1362
I1359
sS'sneaks'
p1363
I1360
sS'suit'
p1364
I1361
sS'spar'
p1365
I1362
sS'athlete'
p1366
I1502
sS'opens'
p1367
I1363
sS'poster'
p1368
I1364
sS'atop'
p1369
I701
sS'link'
p1370
I1366
sS'competition'
p1371
I6520
sS'line'
p1372
I1368
sS'relaxes'
p1373
I1369
sS'posted'
p1374
I1370
sS'fades'
p1375
I1371
sS'shimmying'
p1376
I1372
sS'up'
p1377
I1373
sS'us'
p1378
I1374
sS'faded'
p1379
I1375
sS'continuously'
p1380
I1376
sS'aerial'
p1381
I1377
sS'labrador'
p1382
I1378
sS'nighttime'
p1383
I3884
sS'squinted'
p1384
I1380
sS'chan'
p1385
I1381
sS'skimming'
p1386
I1382
sS'chat'
p1387
I1383
sS'surveying'
p1388
I1384
sS'graceful'
p1389
I1385
sS'sacking'
p1390
I6863
sS'stiffly'
p1391
I1386
sS'fixing'
p1392
I1387
sS'scrape'
p1393
I1388
sS'actors'
p1394
I1389
sS'parakeet'
p1395
I1390
sS'swirl'
p1396
I1391
sS'tarp'
p1397
I1392
sS'lashing'
p1398
I1393
sS'strums'
p1399
I1394
sS'robots'
p1400
I1395
sS'cobblestone'
p1401
I1396
sS'dos'
p1402
I3890
sS'sides'
p1403
I1398
sS'lane'
p1404
I1399
sS'land'
p1405
I1400
sS'mindlessly'
p1406
I1401
sS'expressionless'
p1407
I1402
sS'rescued'
p1408
I1403
sS'holes'
p1409
I1404
sS'walked'
p1410
I1405
sS'bedclothes'
p1411
I2431
sS'beverage'
p1412
I1408
sS'doves'
p1413
I1409
sS'walker'
p1414
I1410
sS'rescues'
p1415
I1411
sS'code'
p1416
I1412
sS'partial'
p1417
I1413
sS'sharply'
p1418
I1414
sS'squats'
p1419
I1415
sS'scratch'
p1420
I1416
sS'splashing'
p1421
I1417
sS'astronauts'
p1422
I1418
sS'unbuttoning'
p1423
I1419
sS'flashback'
p1424
I1420
sS'trampling'
p1425
I1421
sS'detectives'
p1426
I1422
sS'windowsill'
p1427
I1423
sS'glows'
p1428
I1424
sS'concerned'
p1429
I1425
sS'young'
p1430
I1426
sS'send'
p1431
I1427
sS'sent'
p1432
I1428
sS'pestering'
p1433
I1429
sS'garden'
p1434
I1430
sS'panting'
p1435
I1431
sS'continues'
p1436
I1432
sS'llama'
p1437
I1433
sS'mixing'
p1438
I1434
sS'practicing'
p1439
I1435
sS'decorating'
p1440
I1436
sS'wipe'
p1441
I1088
sS'magic'
p1442
I1438
sS'having'
p1443
I1439
sS'anxious'
p1444
I1440
sS'race'
p1445
I1441
sS'disheveled'
p1446
I1442
sS'rack'
p1447
I1443
sS'awoman'
p1448
I1444
sS'enclosed'
p1449
I1445
sS'wheat'
p1450
I2713
sS'odd'
p1451
I1447
sS'graduating'
p1452
I1448
sS'index'
p1453
I1449
sS'sweats'
p1454
I1450
sS'apparatus'
p1455
I1451
sS'expressed'
p1456
I1453
sS'sweaty'
p1457
I1454
sS'twins'
p1458
I1455
sS'flowing'
p1459
I1456
sS'lolly'
p1460
I1457
sS'scenery'
p1461
I1458
sS'led'
p1462
I1459
sS'leg'
p1463
I1460
sS'gathered'
p1464
I1461
sS'punch'
p1465
I1462
sS'delivering'
p1466
I1463
sS'let'
p1467
I1464
sS'squirming'
p1468
I1465
sS'great'
p1469
I1466
sS'engage'
p1470
I1467
sS'receive'
p1471
I1468
sS'involved'
p1472
I1469
sS'resulting'
p1473
I1470
sS'popcorn'
p1474
I1471
sS'makes'
p1475
I1472
sS'maker'
p1476
I1473
sS'involves'
p1477
I1474
sS'chains'
p1478
I5530
sS'sixty'
p1479
I2723
sS'neighs'
p1480
I1476
sS'nibbling'
p1481
I1477
sS'tools'
p1482
I1478
sS'desiring'
p1483
I1479
sS'standing'
p1484
I1480
sS'sketchbook'
p1485
I1481
sS'zip'
p1486
I1482
sS'whipping'
p1487
I1483
sS'chocolates'
p1488
I1484
sS'next'
p1489
I1485
sS'pelvic'
p1490
I1486
sS'doubling'
p1491
I1487
sS'pencil'
p1492
I1488
sS'crisscrossing'
p1493
I1489
sS'on'
p1494
I6535
sS'bobbing'
p1495
I1491
sS'reloads'
p1496
I1492
sS'opposing'
p1497
I1493
sS'rubbish'
p1498
I1494
sS'baby'
p1499
I1495
sS'haircuts'
p1500
I1496
sS'customer'
p1501
I1497
sS'balls'
p1502
I1498
sS'animals'
p1503
I1499
sS'this'
p1504
I1500
sS'bally'
p1505
I1501
sS'challenge'
p1506
I2584
sS'pour'
p1507
I1503
sS'prompts'
p1508
I1504
sS'thin'
p1509
I1505
sS'drill'
p1510
I1506
sS'of'
p1511
I6537
sS'coffin'
p1512
I1508
sS'wedge'
p1513
I1509
sS'slid'
p1514
I1510
sS'bent'
p1515
I1511
sS'pawn'
p1516
I1512
sS'stropping'
p1517
I1513
sS'process'
p1518
I1514
sS'lock'
p1519
I1515
sS'slim'
p1520
I1516
sS'rode'
p1521
I1517
sS'signers'
p1522
I1518
sS'pieces'
p1523
I1519
sS'high'
p1524
I1520
sS'bend'
p1525
I1521
sS'slip'
p1526
I1522
sS'pelvis'
p1527
I1523
sS'rods'
p1528
I1524
sS'paws'
p1529
I1525
sS'trumpet'
p1530
I1526
sS'chop'
p1531
I2730
sS'shuffled'
p1532
I1528
sS'destroying'
p1533
I1529
sS'swishes'
p1534
I1530
sS'animal'
p1535
I1531
sS'swivels'
p1536
I1532
sS'supervised'
p1537
I2732
sS'intelligent'
p1538
I1534
sS'puckered'
p1539
I1535
sS'contraption'
p1540
I1536
sS'blocks'
p1541
I1537
sS'wallpaper'
p1542
I1538
sS'tied'
p1543
I1539
sS'paintball'
p1544
I1540
sS'pigs'
p1545
I1602
sS'demonstrating'
p1546
I1542
sS'fits'
p1547
I1543
sS'ties'
p1548
I1544
sS'cabbage'
p1549
I1545
sS'hawk'
p1550
I1546
sS'autograph'
p1551
I1547
sS'tomato'
p1552
I1548
sS'counter'
p1553
I1549
sS'robot'
p1554
I1550
sS'element'
p1555
I1551
sS'realizes'
p1556
I1552
sS'allow'
p1557
I1553
sS'pyramids'
p1558
I1554
sS'counted'
p1559
I1555
sS'erasing'
p1560
I1556
sS'antelope'
p1561
I1557
sS'holds'
p1562
I5237
sS'thigh'
p1563
I1559
sS'knotting'
p1564
I1560
sS'produces'
p1565
I1561
sS'move'
p1566
I1563
sS'spatula'
p1567
I1564
sS'flopped'
p1568
I670
sS'perfect'
p1569
I1566
sS'tightrope'
p1570
I1567
sS'dock'
p1571
I1568
sS'bothering'
p1572
I1569
sS'kiss'
p1573
I1570
sS'rotation'
p1574
I1571
sS'cage'
p1575
I1572
sS'transparent'
p1576
I1573
sS'scenic'
p1577
I1574
sS'clasping'
p1578
I1575
sS'sniffing'
p1579
I1576
sS'beneath'
p1580
I1577
sS'stock'
p1581
I1578
sS'glasses'
p1582
I1579
sS'tents'
p1583
I1580
sS'doing'
p1584
I1581
sS'sportsman'
p1585
I1582
sS'books'
p1586
I1583
sS'static'
p1587
I1584
sS'goalkeeper'
p1588
I1585
sS'matrix'
p1589
I1586
sS"'"
I1587
sS'bag'
p1590
I3922
sS'softly'
p1591
I3924
sS'frowns'
p1592
I1590
sS'shut'
p1593
I1591
sS'yawns'
p1594
I1592
sS'inhaling'
p1595
I1593
sS'graze'
p1596
I1594
sS'thrust'
p1597
I1595
sS'steering'
p1598
I1596
sS'scary'
p1599
I1597
sS'spill'
p1600
I1598
sS'latches'
p1601
I1599
sS'length'
p1602
I1601
sS'frameqaorting'
p1603
I1954
sS'scare'
p1604
I1969
sS'latched'
p1605
I1972
sS'blown'
p1606
I1605
sS'yells'
p1607
I1606
sS'scene'
p1608
I1607
sS'owner'
p1609
I1608
sS'blows'
p1610
I1609
sS'prank'
p1611
I1610
sS'ferris'
p1612
I6557
sS'ordering'
p1613
I1612
sS'system'
p1614
I1613
sS'decorations'
p1615
I1614
sS'spaceship'
p1616
I1615
sS'painful'
p1617
I1616
sS'gummy'
p1618
I1617
sS'stomach'
p1619
I1618
sS'stars'
p1620
I2745
sS'shorts'
p1621
I1621
sS'applauds'
p1622
I1622
sS'UNK'
p1623
I1
sS'colleagues'
p1624
I1623
sS'buttocks'
p1625
I1624
sS'bother'
p1626
I1625
sS'pads'
p1627
I1626
sS'steep'
p1628
I1627
sS'twos'
p1629
I1628
sS'steer'
p1630
I1629
sS'collecting'
p1631
I1630
sS'false'
p1632
I1631
sS'shrinks'
p1633
I1632
sS'viewer'
p1634
I1633
sS'lines'
p1635
I1634
sS'gently'
p1636
I1635
sS'spelled'
p1637
I1636
sS'reassuring'
p1638
I1637
sS'defending'
p1639
I1638
sS'ponders'
p1640
I1639
sS'clearly'
p1641
I1640
sS'jug'
p1642
I6560
sS'depict'
p1643
I1767
sS'hungrily'
p1644
I2192
sS'studying'
p1645
I1644
sS'demolished'
p1646
I1645
sS'ashore'
p1647
I1646
sS'korean'
p1648
I1647
sS'latino'
p1649
I2226
sS'lily'
p1650
I2228
sS'sculling'
p1651
I2229
sS'soar'
p1652
I1651
sS'warily'
p1653
I1652
sS'manor'
p1654
I1653
sS'petals'
p1655
I1654
sS'device'
p1656
I1655
sS'stronger'
p1657
I1657
sS'face'
p1658
I1658
sS'mechanical'
p1659
I1659
sS'painting'
p1660
I1660
sS'atmosphere'
p1661
I1661
sS'shirted'
p1662
I1662
sS'woolly'
p1663
I1663
sS'bring'
p1664
I1664
sS'biker'
p1665
I1665
sS'bikes'
p1666
I1666
sS'greenhouse'
p1667
I1667
sS'yolks'
p1668
I2358
sS'rough'
p1669
I1669
sS'taps'
p1670
I1670
sS'pause'
p1671
I1671
sS'hops'
p1672
I1672
sS'jar'
p1673
I1673
sS'should'
p1674
I1674
sS'terminal'
p1675
I2388
sS'tape'
p1676
I1676
sS'riding'
p1677
I1677
sS'gnaws'
p1678
I1678
sS'capsules'
p1679
I5195
sS'lucky'
p1680
I1680
sS'wiggle'
p1681
I1681
sS'smash'
p1682
I1682
sS'hoses'
p1683
I1683
sS'rapper'
p1684
I1684
sS'stuff'
p1685
I1685
sS'hosed'
p1686
I1686
sS'handstand'
p1687
I1687
sS'motorcycle'
p1688
I1565
sS'bucket'
p1689
I2753
sS'frame'
p1690
I1690
sS'shreds'
p1691
I1691
sS'packet'
p1692
I1692
sS'slanted'
p1693
I1693
sS'skateboarding'
p1694
I1694
sS'packed'
p1695
I1695
sS'wire'
p1696
I1696
sS'superhero'
p1697
I1697
sS'interacting'
p1698
I1698
sS'insulting'
p1699
I1699
sS'nuclear'
p1700
I1700
sS'taunting'
p1701
I1701
sS'iguana'
p1702
I2011
sS'ends'
p1703
I1703
sS'scrolls'
p1704
I1704
sS'fancily'
p1705
I1705
sS'butts'
p1706
I1706
sS'courtyard'
p1707
I1707
sS'strides'
p1708
I1708
sS'staring'
p1709
I1709
sS'drum'
p1710
I1710
sS'handstands'
p1711
I1711
sS'recorders'
p1712
I2636
sS'drug'
p1713
I1713
sS'rams'
p1714
I1714
sS'doorway'
p1715
I1715
sS'figures'
p1716
I1716
sS'puff'
p1717
I2654
sS'co'
p1718
I2674
sS'pounces'
p1719
I1719
sS'ca'
p1720
I1720
sS'cd'
p1721
I1721
sS'pounced'
p1722
I1722
sS'whispering'
p1723
I1723
sS'winning'
p1724
I5273
sS'powered'
p1725
I1725
sS'gondola'
p1726
I1726
sS'poured'
p1727
I5197
sS'chalkboard'
p1728
I1728
sS'aquamarine'
p1729
I1729
sS'feather'
p1730
I1730
sS'preteens'
p1731
I1731
sS'homosexual'
p1732
I1732
sS'toasting'
p1733
I1733
sS'laser'
p1734
I1734
sS'basket'
p1735
I4276
sS'runway'
p1736
I1735
sS'grinning'
p1737
I1736
sS'apparitions'
p1738
I1737
sS'rigged'
p1739
I1738
sS'bathtub'
p1740
I1739
sS'groin'
p1741
I1740
sS'stuffing'
p1742
I1741
sS'site'
p1743
I1742
sS'rips'
p1744
I1743
sS'sits'
p1745
I1744
sS'tattoo'
p1746
I1745
sS'skateboarders'
p1747
I1746
sS'overcoats'
p1748
I1748
sS'digging'
p1749
I1749
sS'glaring'
p1750
I1750
sS'ball'
p1751
I1751
sS'emotionally'
p1752
I1752
sS'dusk'
p1753
I1753
sS'bale'
p1754
I1754
sS'drink'
p1755
I2251
sS'upon'
p1756
I1756
sS'stumbled'
p1757
I6576
sS'paving'
p1758
I1758
sS'robotic'
p1759
I1759
sS'dust'
p1760
I1760
sS'overalls'
p1761
I1761
sS'broccoli'
p1762
I1762
sS'off'
p1763
I1763
sS'shotgun'
p1764
I1764
sS'patterns'
p1765
I1765
sS'clambering'
p1766
I1766
sS'fashionable'
p1767
I4025
sS'drawing'
p1768
I2995
sS'snake'
p1769
I1768
sS'loincloths'
p1770
I1769
sS'gelled'
p1771
I3007
sS'moments'
p1772
I1771
sS'rooms'
p1773
I1772
sS'broomstick'
p1774
I1773
sS'clipper'
p1775
I1774
sS'web'
p1776
I1775
sS'undulating'
p1777
I1776
sS'clipped'
p1778
I3068
sS'wet'
p1779
I3070
sS'stunts'
p1780
I5282
sS'checking'
p1781
I3090
sS'taunt'
p1782
I1781
sS'whispers'
p1783
I1782
sS'increases'
p1784
I1783
sS'five'
p1785
I1784
sS'desk'
p1786
I1785
sS'pier'
p1787
I1786
sS'smudge'
p1788
I1787
sS'chairs'
p1789
I1788
sS'accelerating'
p1790
I1789
sS'garage'
p1791
I1790
sS'lanterns'
p1792
I3955
sS'flickering'
p1793
I1792
sS'become'
p1794
I1793
sS'poor'
p1795
I1794
sS'suites'
p1796
I2772
sS'footage'
p1797
I1796
sS'gymnastics'
p1798
I1797
sS'hissing'
p1799
I1798
sS'humming'
p1800
I1799
sS'hipsters'
p1801
I1800
sS'disbelief'
p1802
I1801
sS'avoid'
p1803
I3209
sS'shone'
p1804
I1804
sS'does'
p1805
I1805
sS'passion'
p1806
I1806
sS'saucepan'
p1807
I1807
sS'kangaroos'
p1808
I1808
sS'stairway'
p1809
I1809
sS'blowing'
p1810
I1810
sS'manta'
p1811
I1811
sS'drift'
p1812
I1812
sS'outrageously'
p1813
I7468
sS'wields'
p1814
I2774
sS'zips'
p1815
I1814
sS'imaginary'
p1816
I1815
sS'includes'
p1817
I6591
sS'coldly'
p1818
I3274
sS'hiding'
p1819
I3277
sS'iris'
p1820
I1819
sS'sister'
p1821
I1820
sS'drumming'
p1822
I1821
sS'puts'
p1823
I3960
sS'slayer'
p1824
I1823
sS'union'
p1825
I1824
sS'furred'
p1826
I1825
sS'seeds'
p1827
I1826
sS'swimming'
p1828
I1827
sS'flailing'
p1829
I1828
sS'snuggling'
p1830
I1829
sS'roads'
p1831
I1830
sS'cradling'
p1832
I1831
sS'behind'
p1833
I4402
sS'disapproval'
p1834
I3366
sS'bump'
p1835
I1833
sS'much'
p1836
I1834
sS'frustration'
p1837
I1835
sS'bagged'
p1838
I1836
sS'directs'
p1839
I1688
sS'overlapping'
p1840
I1837
sS'pixie'
p1841
I2345
sS'lowered'
p1842
I3420
sS'grate'
p1843
I1840
sS'delivers'
p1844
I1841
sS'count'
p1845
I1842
sS'tossed'
p1846
I1843
sS'places'
p1847
I1844
sS'chained'
p1848
I1845
sS'smooth'
p1849
I1846
sS'triumphant'
p1850
I1847
sS'excitement'
p1851
I1848
sS'placed'
p1852
I1849
sS'tosses'
p1853
I1850
sS'monument'
p1854
I1851
sS'problem'
p1855
I1852
sS'bearing'
p1856
I1853
sS'nurses'
p1857
I1854
sS'slowing'
p1858
I1855
sS'ink'
p1859
I1856
sS'ina'
p1860
I1857
sS'variety'
p1861
I1858
sS'tubular'
p1862
I1859
sS'ponytail'
p1863
I1860
sS'frisbee'
p1864
I1861
sS'footprints'
p1865
I1862
sS'veil'
p1866
I1863
sS'dolphins'
p1867
I1864
sS'ghost'
p1868
I1865
sS'batting'
p1869
I6326
sS'lift'
p1870
I322
sS'rural'
p1871
I1867
sS'trims'
p1872
I1868
sS'saves'
p1873
I1869
sS'swirls'
p1874
I6606
sS'controversial'
p1875
I1871
sS'mansion'
p1876
I1872
sS'huffs'
p1877
I1873
sS'saved'
p1878
I1874
sS'chinese'
p1879
I6608
sS'tickle'
p1880
I1875
sS'bike'
p1881
I1876
sS'sped'
p1882
I1877
sS'blanket'
p1883
I1878
sS'closeup'
p1884
I1879
sS'washboard'
p1885
I1880
sS'porpoises'
p1886
I1881
sS'fogs'
p1887
I1882
sS'fondly'
p1888
I5306
sS'surgical'
p1889
I6612
sS'samurai'
p1890
I1885
sS'red'
p1891
I1886
sS'whist'
p1892
I1887
sS'chew'
p1893
I1888
sS'phones'
p1894
I1889
sS'bubbling'
p1895
I1890
sS'horn'
p1896
I1891
sS'chef'
p1897
I1892
sS'lacy'
p1898
I6615
sS'guillotine'
p1899
I1894
sS'levitate'
p1900
I1895
sS'panda'
p1901
I1896
sS'near'
p1902
I3978
sS'above'
p1903
I1899
sS'toll'
p1904
I1900
sS'zoomed'
p1905
I1901
sS'simultaneously'
p1906
I1902
sS'sinks'
p1907
I1903
sS'wrapping'
p1908
I1904
sS'protection'
p1909
I1905
sS'celebration'
p1910
I1906
sS'studs'
p1911
I1907
sS'daughter'
p1912
I1908
sS'items'
p1913
I1909
sS'employees'
p1914
I3982
sS'pinning'
p1915
I1911
sS'smoke'
p1916
I1912
sS'pinkies'
p1917
I1913
sS'otters'
p1918
I1914
sS'spooky'
p1919
I1915
sS'angrily'
p1920
I1916
sS'romantically'
p1921
I1917
sS'glance'
p1922
I1918
sS'bra'
p1923
I1919
sS'devastation'
p1924
I1920
sS'saran'
p1925
I1921
sS'alligator'
p1926
I1922
sS'gingerly'
p1927
I1923
sS'sweater'
p1928
I1924
sS'coins'
p1929
I1925
sS'negative'
p1930
I1926
sS'lorry'
p1931
I1927
sS'separated'
p1932
I1928
sS'meowed'
p1933
I1929
sS'award'
p1934
I1930
sS'pierced'
p1935
I1931
sS'unraveled'
p1936
I1932
sS'bunnies'
p1937
I1933
sS'word'
p1938
I1934
sS'wore'
p1939
I1935
sS'player'
p1940
I335
sS'work'
p1941
I1937
sS'eclipse'
p1942
I1938
sS'worm'
p1943
I1939
sS'worn'
p1944
I1940
sS'cuddly'
p1945
I1941
sS'cuddle'
p1946
I1942
sS'mechanic'
p1947
I1943
sS'blooming'
p1948
I1944
sS'elbow'
p1949
I1945
sS'elegantly'
p1950
I1946
sS'clinging'
p1951
I1947
sS'flung'
p1952
I1948
sS'acrobatic'
p1953
I1949
sS'agony'
p1954
I1950
sS'photocopy'
p1955
I1951
sS'nuts'
p1956
I1952
sS'recovers'
p1957
I1953
sS'gapes'
p1958
I1955
sS'interview'
p1959
I1956
sS'beach'
p1960
I1957
sS'pizza'
p1961
I1958
sS'bares'
p1962
I1959
sS'transforming'
p1963
I1960
sS'ladder'
p1964
I1961
sS'after'
p1965
I1962
sS'lab'
p1966
I1963
sS'bombarded'
p1967
I1964
sS'lay'
p1968
I1965
sS'arch'
p1969
I531
sS'headdress'
p1970
I4338
sS'boiling'
p1971
I6340
sS'greet'
p1972
I1968
sS'motorbikes'
p1973
I1603
sS'wriggling'
p1974
I1970
sS'green'
p1975
I1971
sS'scarf'
p1976
I1604
sS'ambulance'
p1977
I1973
sS'make'
p1978
I4000
sS'triggering'
p1979
I1975
sS'salon'
p1980
I1976
sS'infested'
p1981
I1977
sS'popsicle'
p1982
I1978
sS'office'
p1983
I1979
sS'muffin'
p1984
I1980
sS'satisfied'
p1985
I1981
sS'miming'
p1986
I1982
sS'oncoming'
p1987
I1983
sS'somewhere'
p1988
I1984
sS'highlights'
p1989
I1985
sS'avocado'
p1990
I1986
sS'production'
p1991
I1987
sS'brawling'
p1992
I1988
sS'carton'
p1993
I1989
sS'then'
p1994
I1991
sS'them'
p1995
I1992
sS'woken'
p1996
I1993
sS'exhales'
p1997
I1994
sS'exhaling'
p1998
I1995
sS'collide'
p1999
I1996
sS'break'
p2000
I1997
sS'band'
p2001
I1998
sS'bang'
p2002
I1999
sS'giraffe'
p2003
I2000
sS'reaches'
p2004
I2001
sS'they'
p2005
I2002
sS'bank'
p2006
I2003
sS'pegs'
p2007
I4524
sS'rocky'
p2008
I2005
sS'oxygen'
p2009
I2006
sS'routines'
p2010
I2007
sS'backgrounds'
p2011
I2008
sS'rocks'
p2012
I2010
sS'hurdle'
p2013
I2012
sS'feeds'
p2014
I2013
sS'lifted'
p2015
I2014
sS'kneels'
p2016
I2015
sS'logs'
p2017
I2016
sS'dumping'
p2018
I2017
sS'sled'
p2019
I2018
sS'logo'
p2020
I2019
sS'flock'
p2021
I2020
sS'motorized'
p2022
I2021
sS'trench'
p2023
I6635
sS'cameras'
p2024
I2023
sS'hooked'
p2025
I2024
sS'trainers'
p2026
I2025
sS'medicine'
p2027
I2026
sS'forth'
p2028
I2027
sS'sliding'
p2029
I2028
sS'barrier'
p2030
I2030
sS'negligee'
p2031
I2031
sS'standard'
p2032
I2032
sS'smacking'
p2033
I2033
sS'frameqatile'
p2034
I2034
sS'fastening'
p2035
I2035
sS'amazement'
p2036
I2036
sS'lollipop'
p2037
I2037
sS'staggers'
p2038
I2038
sS'recovering'
p2039
I2039
sS'created'
p2040
I2040
sS'writhing'
p2041
I2041
sS'creates'
p2042
I2042
sS'licked'
p2043
I2043
sS'chased'
p2044
I2044
sS'delicious'
p2045
I4821
sS'drones'
p2046
I2046
sS'thoughtfully'
p2047
I2047
sS'comic'
p2048
I2048
sS'perking'
p2049
I2049
sS'electronic'
p2050
I2050
sS'illustrate'
p2051
I2051
sS'crunches'
p2052
I2052
sS'swatting'
p2053
I2053
sS'elevator'
p2054
I2054
sS'flagpole'
p2055
I2055
sS'purposefully'
p2056
I2056
sS'dogs'
p2057
I2057
sS'emblem'
p2058
I2058
sS'happily'
p2059
I2059
sS'cereal'
p2060
I2060
sS'chases'
p2061
I2061
sS'target'
p2062
I2062
sS'scenes'
p2063
I2063
sS'seated'
p2064
I2064
sS'iron'
p2065
I2065
sS'tackled'
p2066
I2066
sS'solely'
p2067
I2067
sS'hologram'
p2068
I2068
sS'navigate'
p2069
I2070
sS'sportsmen'
p2070
I2071
sS'manner'
p2071
I2072
sS'stalls'
p2072
I2073
sS'contents'
p2073
I2074
sS'forced'
p2074
I2075
sS'strength'
p2075
I2076
sS'necktie'
p2076
I2077
sS'latter'
p2077
I2078
sS'casual'
p2078
I2814
sS'practices'
p2079
I4029
sS'luxury'
p2080
I2081
sS'forces'
p2081
I2082
sS'swims'
p2082
I2083
sS'circles'
p2083
I2084
sS'extending'
p2084
I2085
sS'circled'
p2085
I2086
sS'exercises'
p2086
I2087
sS'corded'
p2087
I2088
sS'grave'
p2088
I2089
sS'nostrils'
p2089
I2090
sS'duckling'
p2090
I2091
sS'goalpost'
p2091
I2092
sS'swamp'
p2092
I2093
sS'sun'
p2093
I6650
sS'briskly'
p2094
I2095
sS'subtly'
p2095
I2096
sS'chandelier'
p2096
I2097
sS'enjoyed'
p2097
I2098
sS'blotting'
p2098
I2099
sS'toast'
p2099
I2100
sS'geyser'
p2100
I2101
sS'pursuing'
p2101
I2102
sS'goalie'
p2102
I2103
sS'do'
p2103
I2104
sS'dj'
p2104
I2105
sS'de'
p2105
I2106
sS'frowning'
p2106
I2107
sS'roundabout'
p2107
I2108
sS'nasty'
p2108
I2110
sS'runs'
p2109
I2111
sS'covering'
p2110
I2112
sS'megaphones'
p2111
I2113
sS'gears'
p2112
I2114
sS'steak'
p2113
I2115
sS'steal'
p2114
I2116
sS'steam'
p2115
I2117
sS'secretary'
p2116
I2118
sS'cheerleader'
p2117
I7162
sS'newspaper'
p2118
I2119
sS'miserably'
p2119
I2120
sS'lemonade'
p2120
I2121
sS'cattle'
p2121
I2123
sS'techniques'
p2122
I2124
sS'bunting'
p2123
I2125
sS'draws'
p2124
I2126
sS'away'
p2125
I2127
sS'gentleman'
p2126
I2128
sS'swimwear'
p2127
I2129
sS'unable'
p2128
I2130
sS'drawn'
p2129
I2131
sS'shields'
p2130
I2132
sS'handful'
p2131
I2133
sS'enters'
p2132
I368
sS'unfold'
p2133
I2135
sS'convertible'
p2134
I2136
sS'kitchen'
p2135
I2137
sS'received'
p2136
I5447
sS'cot'
p2137
I2139
sS'cow'
p2138
I2140
sS'ill'
p2139
I2141
sS'machete'
p2140
I6845
sS'cob'
p2141
I2142
sS'receives'
p2142
I2143
sS'disappears'
p2143
I2144
sS'#START#'
p2144
I0
sS'peacefully'
p2145
I2146
sS'widen'
p2146
I2147
sS'spear'
p2147
I2148
sS'royal'
p2148
I2149
sS'zigzagging'
p2149
I2150
sS'headlights'
p2150
I2151
sS'unhappily'
p2151
I2152
sS'observing'
p2152
I6666
sS'noel'
p2153
I2154
sS'flexible'
p2154
I2155
sS'relaxing'
p2155
I2156
sS'attacked'
p2156
I2157
sS'applied'
p2157
I2158
sS'tide'
p2158
I2159
sS'has'
p2159
I374
sS'gnu'
p2160
I2161
sS'launches'
p2161
I2162
sS'air'
p2162
I2163
sS'aim'
p2163
I2164
sS'micheal'
p2164
I2165
sS'applies'
p2165
I2166
sS'aid'
p2166
I2167
sS'property'
p2167
I2168
sS'overtaking'
p2168
I2169
sS'launched'
p2169
I2170
sS'stink'
p2170
I2171
sS'sticker'
p2171
I2172
sS'dumped'
p2172
I2173
sS'skipping'
p2173
I2174
sS'dizzy'
p2174
I2175
sS'brake'
p2175
I2176
sS'cone'
p2176
I2177
sS'drawers'
p2177
I2178
sS'perform'
p2178
I2179
sS'descend'
p2179
I2180
sS'avoids'
p2180
I2181
sS'plates'
p2181
I2182
sS'bunny'
p2182
I2183
sS'wheel'
p2183
I2184
sS'plating'
p2184
I2185
sS'springing'
p2185
I2186
sS'rail'
p2186
I2187
sS'rain'
p2187
I2188
sS'hand'
p2188
I2189
sS'demolishes'
p2189
I2190
sS'animations'
p2190
I2191
sS'dishes'
p2191
I1643
sS'hopping'
p2192
I2193
sS'exited'
p2193
I6672
sS'hispanic'
p2194
I2195
sS'contact'
p2195
I2196
sS'the'
p2196
I2197
sS'musical'
p2197
I2198
sS'athletic'
p2198
I2199
sS'photo'
p2199
I2200
sS'mid'
p2200
I5361
sS'quotes'
p2201
I2202
sS'goggles'
p2202
I2203
sS'farther'
p2203
I2204
sS'goalies'
p2204
I2205
sS'adding'
p2205
I2206
sS'boars'
p2206
I2207
sS'unique'
p2207
I2208
sS'hills'
p2208
I2209
sS'flooring'
p2209
I2210
sS'photographer'
p2210
I2211
sS'reuniting'
p2211
I2212
sS'hilly'
p2212
I2213
sS'shout'
p2213
I2214
sS'spread'
p2214
I2215
sS'transformed'
p2215
I2216
sS'board'
p2216
I2217
sS'expelled'
p2217
I2218
sS'photographed'
p2218
I2219
sS'caps'
p2219
I2220
sS'boxes'
p2220
I2221
sS'boxer'
p2221
I2222
sS'cape'
p2222
I2223
sS'retreat'
p2223
I2224
sS'hairless'
p2224
I2225
sS'seductive'
p2225
I1648
sS'cooler'
p2226
I2227
sS'scooping'
p2227
I1649
sS'soap'
p2228
I1650
sS'sparse'
p2229
I2230
sS'night'
p2230
I2231
sS'slouches'
p2231
I2232
sS'security'
p2232
I2233
sS'antique'
p2233
I2234
sS'lashes'
p2234
I2235
sS'sends'
p2235
I2236
sS'trainee'
p2236
I2237
sS'born'
p2237
I2238
sS'couture'
p2238
I2239
sS'stardust'
p2239
I2240
sS'bore'
p2240
I2241
sS'confusing'
p2241
I2242
sS'congratulate'
p2242
I2243
sS'nuzzles'
p2243
I2244
sS'purple'
p2244
I2245
sS'comments'
p2245
I2246
sS'filming'
p2246
I2247
sS'asking'
p2247
I2248
sS'beating'
p2248
I2249
sS'adorable'
p2249
I2250
sS'peek'
p2250
I2252
sS'peel'
p2251
I2253
sS'lucille'
p2252
I2254
sS'pose'
p2253
I2255
sS'scarves'
p2254
I2256
sS'pees'
p2255
I2257
sS'post'
p2256
I2258
sS'trophy'
p2257
I2259
sS'rearrange'
p2258
I2260
sS'diner'
p2259
I2261
sS'handle'
p2260
I1679
sS'theirs'
p2261
I2262
sS'accepts'
p2262
I2263
sS'sizzling'
p2263
I2264
sS'zooming'
p2264
I3201
sS'horizon'
p2265
I2265
sS'octopus'
p2266
I2266
sS'pays'
p2267
I2267
sS'float'
p2268
I2268
sS'bound'
p2269
I2269
sS'balances'
p2270
I2270
sS'handbag'
p2271
I5367
sS'capped'
p2272
I2272
sS'balanced'
p2273
I2273
sS'amused'
p2274
I946
sS'stumble'
p2275
I2274
sS'strangely'
p2276
I2275
sS'fuchsia'
p2277
I2276
sS'fight'
p2278
I2277
sS'way'
p2279
I2278
sS'wax'
p2280
I2279
sS'was'
p2281
I2280
sS'war'
p2282
I2281
sS'pirouette'
p2283
I2282
sS'snowy'
p2284
I2283
sS'becoming'
p2285
I2284
sS'converse'
p2286
I2285
sS'snows'
p2287
I2286
sS'garages'
p2288
I2287
sS'dead'
p2289
I4065
sS'astonished'
p2290
I2289
sS'responding'
p2291
I2290
sS'entertainers'
p2292
I2291
sS'crystal'
p2293
I2292
sS'coverings'
p2294
I2293
sS'emotional'
p2295
I2294
sS'perks'
p2296
I7484
sS'turbo'
p2297
I6556
sS'underwater'
p2298
I7228
sS'muscular'
p2299
I2296
sS'howling'
p2300
I2297
sS'prayer'
p2301
I2298
sS'mold'
p2302
I2299
sS'mole'
p2303
I2300
sS'physical'
p2304
I2301
sS'dimly'
p2305
I2302
sS'dying'
p2306
I2303
sS'dace'
p2307
I2304
sS'reality'
p2308
I2305
sS'interested'
p2309
I2306
sS'holding'
p2310
I2307
sS'test'
p2311
I2308
sS'bulling'
p2312
I2309
sS'frolic'
p2313
I2310
sS'scored'
p2314
I2311
sS'brothers'
p2315
I2312
sS'mulling'
p2316
I2313
sS'notepad'
p2317
I2314
sS'scores'
p2318
I2315
sS'together'
p2319
I2316
sS'beds'
p2320
I2317
sS'reception'
p2321
I2318
sS'songs'
p2322
I2319
sS'dance'
p2323
I2320
sS'horseback'
p2324
I2321
sS'switches'
p2325
I2322
sS'grateful'
p2326
I2324
sS'battle'
p2327
I2325
sS'toothpick'
p2328
I2326
sS'interlaced'
p2329
I2327
sS'varnish'
p2330
I2328
sS'zone'
p2331
I2329
sS'hovers'
p2332
I2330
sS'flask'
p2333
I2331
sS'hump'
p2334
I2332
sS'flash'
p2335
I2333
sS'thighs'
p2336
I4544
sS'flopping'
p2337
I2334
sS'rhythm'
p2338
I2335
sS'terror'
p2339
I2336
sS'brown'
p2340
I2337
sS'protective'
p2341
I2338
sS'decking'
p2342
I2339
sS'seemingly'
p2343
I2340
sS'ferociously'
p2344
I2341
sS'kitten'
p2345
I2342
sS'trouble'
p2346
I2343
sS'blast'
p2347
I2344
sS'aggressively'
p2348
I2346
sS'presented'
p2349
I2347
sS'turns'
p2350
I2348
sS'gun'
p2351
I2349
sS'gum'
p2352
I2350
sS'evades'
p2353
I2351
sS'q'
I4272
sS'guitars'
p2354
I2352
sS'guy'
p2355
I2353
sS'upper'
p2356
I2354
sS'brave'
p2357
I2355
sS'temples'
p2358
I2356
sS'regained'
p2359
I2357
sS'bedroom'
p2360
I1668
sS'agitate'
p2361
I2359
sS'cargo'
p2362
I2360
sS'appear'
p2363
I2361
sS'blotches'
p2364
I2362
sS'wildebeest'
p2365
I2363
sS'uniform'
p2366
I2364
sS'peels'
p2367
I2365
sS'saluting'
p2368
I2366
sS'supporting'
p2369
I2367
sS'explosion'
p2370
I2368
sS'peeled'
p2371
I2369
sS'whiteness'
p2372
I2370
sS'smearing'
p2373
I2371
sS'goldfish'
p2374
I2372
sS'roaring'
p2375
I2373
sS'teaches'
p2376
I2374
sS'appears'
p2377
I2375
sS'change'
p2378
I2376
sS'pedals'
p2379
I2377
sS'flames'
p2380
I2378
sS'exiting'
p2381
I2379
sS'bangs'
p2382
I2380
sS'pillow'
p2383
I2381
sS'puffer'
p2384
I2382
sS'marked'
p2385
I2383
sS'snowboard'
p2386
I2384
sS'marker'
p2387
I2385
sS'firearm'
p2388
I2386
sS'market'
p2389
I2387
sS'buttons'
p2390
I1675
sS'streetcar'
p2391
I2389
sS'masturbating'
p2392
I2390
sS'live'
p2393
I2391
sS'matador'
p2394
I2392
sS'intently'
p2395
I2393
sS'entrance'
p2396
I2394
sS'club'
p2397
I2395
sS'envelope'
p2398
I2396
sS'clue'
p2399
I2397
sS'slinky'
p2400
I2398
sS'envelops'
p2401
I2399
sS'beluga'
p2402
I2400
sS'bowler'
p2403
I2401
sS'skaters'
p2404
I2402
sS'indescribable'
p2405
I2403
sS'car'
p2406
I2404
sS'cap'
p2407
I2405
sS'cat'
p2408
I2406
sS'labeled'
p2409
I2407
sS'gathers'
p2410
I2408
sS'can'
p2411
I2409
sS'cam'
p2412
I2410
sS'cab'
p2413
I2411
sS'heart'
p2414
I2412
sS'grassy'
p2415
I2413
sS'pauses'
p2416
I2414
sS'expanding'
p2417
I2415
sS'chip'
p2418
I2416
sS'skydiving'
p2419
I2417
sS'chin'
p2420
I2418
sS'spa'
p2421
I2419
sS'clothing'
p2422
I2420
sS'pong'
p2423
I6708
sS'discussion'
p2424
I2422
sS'spreads'
p2425
I2423
sS'freezer'
p2426
I2424
sS'freezes'
p2427
I2425
sS'amputated'
p2428
I3645
sS'frameqaairing'
p2429
I2427
sS'product'
p2430
I2428
sS'staircase'
p2431
I2429
sS'dive'
p2432
I2430
sS'use'
p2433
I7167
sS'disgusted'
p2434
I2432
sS'motorway'
p2435
I2433
sS'jousting'
p2436
I2434
sS'heroes'
p2437
I2435
sS'flourish'
p2438
I2436
sS'lifting'
p2439
I2437
sS'dreads'
p2440
I6715
sS'noses'
p2441
I2440
sS'candles'
p2442
I2441
sS'nosed'
p2443
I2442
sS'serving'
p2444
I2443
sS'freckles'
p2445
I2444
sS'displayed'
p2446
I2445
sS'playful'
p2447
I2446
sS'ended'
p2448
I2447
sS'tablets'
p2449
I2448
sS'cold'
p2450
I2449
sS'still'
p2451
I2450
sS'birds'
p2452
I2451
sS'statuettes'
p2453
I2452
sS'cola'
p2454
I2453
sS'rooftop'
p2455
I2454
sS'curly'
p2456
I2455
sS'holing'
p2457
I2456
sS'reacting'
p2458
I2457
sS'curls'
p2459
I2458
sS'forms'
p2460
I2459
sS'window'
p2461
I2460
sS'spacious'
p2462
I2461
sS'showered'
p2463
I2462
sS'tiara'
p2464
I2463
sS'non'
p2465
I2464
sS'halt'
p2466
I2465
sS'fling'
p2467
I2466
sS'nod'
p2468
I2467
sS'rake'
p2469
I2468
sS'introduce'
p2470
I2469
sS'scaling'
p2471
I2470
sS'tails'
p2472
I2471
sS'half'
p2473
I2472
sS'not'
p2474
I2473
sS'hall'
p2475
I2474
sS'halo'
p2476
I5396
sS'barrow'
p2477
I2476
sS'calipers'
p2478
I2477
sS'streaks'
p2479
I2478
sS'lies'
p2480
I4095
sS'drop'
p2481
I2480
sS'bursts'
p2482
I2481
sS'cliffs'
p2483
I2482
sS'fired'
p2484
I2483
sS'ed'
p2485
I2484
sS'challenges'
p2486
I2485
sS'soy'
p2487
I2486
sS'fires'
p2488
I2487
sS'eyebrow'
p2489
I2488
sS'year'
p2490
I2489
sS'calling'
p2491
I5402
sS'pills'
p2492
I2491
sS'amusement'
p2493
I2492
sS'er'
p2494
I2493
sS'irons'
p2495
I2494
sS'shown'
p2496
I2495
sS'opened'
p2497
I2496
sS'space'
p2498
I2497
sS'hastily'
p2499
I2498
sS'looking'
p2500
I2499
sS'wholeheartedly'
p2501
I2500
sS'receiving'
p2502
I2501
sS'shows'
p2503
I2502
sS'cars'
p2504
I2504
sS'cart'
p2505
I2505
sS'grimacing'
p2506
I2506
sS'ominous'
p2507
I2507
sS'card'
p2508
I2508
sS'care'
p2509
I2509
sS'cycles'
p2510
I2510
sS'tangled'
p2511
I2511
sS'blind'
p2512
I118
sS'tennis'
p2513
I2513
sS'striking'
p2514
I2514
sS'flipping'
p2515
I2515
sS'blink'
p2516
I2516
sS'directly'
p2517
I2517
sS'hairstyles'
p2518
I2518
sS'rind'
p2519
I2519
sS'ring'
p2520
I145
sS'drove'
p2521
I2521
sS'weightlifter'
p2522
I2522
sS'guitarists'
p2523
I2523
sS'sheep'
p2524
I2524
sS'sheer'
p2525
I2525
sS'checked'
p2526
I2526
sS'silent'
p2527
I2527
sS'caught'
p2528
I2528
sS'traction'
p2529
I2529
sS'carousel'
p2530
I2530
sS'friend'
p2531
I2531
sS'shampooed'
p2532
I2532
sS'that'
p2533
I212
sS'flowery'
p2534
I2534
sS'inmates'
p2535
I2535
sS'quad'
p2536
I2536
sS'peck'
p2537
I1562
sS'than'
p2538
I2538
sS'professionals'
p2539
I2539
sS'television'
p2540
I2540
sS'karate'
p2541
I2541
sS'vocals'
p2542
I2542
sS'apples'
p2543
I2543
sS'cymbals'
p2544
I2544
sS'fruits'
p2545
I2545
sS'grooms'
p2546
I2546
sS'decapitates'
p2547
I2547
sS'angel'
p2548
I2548
sS'slap'
p2549
I2549
sS'contortion'
p2550
I2550
sS'slam'
p2551
I2551
sS'distorted'
p2552
I2552
sS'anger'
p2553
I2553
sS'spurting'
p2554
I2554
sS'breakfast'
p2555
I2555
sS'recover'
p2556
I2556
sS'snorting'
p2557
I2557
sS'form'
p2558
I4105
sS'skidding'
p2559
I2559
sS'snout'
p2560
I2560
sS'equipment'
p2561
I2561
sS'hookah'
p2562
I2562
sS'dread'
p2563
I2563
sS'begin'
p2564
I2564
sS'sledge'
p2565
I2565
sS'america'
p2566
I2566
sS'egg'
p2567
I2567
sS'sidekick'
p2568
I2568
sS'steady'
p2569
I2569
sS'tooth'
p2570
I2570
sS'sunset'
p2571
I461
sS'clearing'
p2572
I2572
sS'conservatively'
p2573
I2573
sS'professional'
p2574
I2574
sS'washcloth'
p2575
I2575
sS'podiums'
p2576
I2576
sS'fifty'
p2577
I2577
sS'sheepdogs'
p2578
I2578
sS'fifth'
p2579
I2579
sS'ground'
p2580
I2580
sS'snack'
p2581
I2581
sS'handlebars'
p2582
I6740
sS'stair'
p2583
I2583
sS'stained'
p2584
I2585
sS'only'
p2585
I2586
sS'onlooker'
p2586
I2587
sS'pumpkin'
p2587
I2588
sS'bracelets'
p2588
I2589
sS'celebrate'
p2589
I2590
sS'pistol'
p2590
I1702
sS'leather'
p2591
I2591
sS'outsmarting'
p2592
I4112
sS'reels'
p2593
I2593
sS'concert'
p2594
I2594
sS'burst'
p2595
I2595
sS'physically'
p2596
I2596
sS'asleep'
p2597
I2597
sS'sport'
p2598
I2598
sS'palette'
p2599
I2599
sS'3'
I2600
sS'between'
p2600
I2601
sS'whipped'
p2601
I2603
sS'unlocks'
p2602
I2604
sS'smashed'
p2603
I2605
sS'hurts'
p2604
I2606
sS'article'
p2605
I2607
sS'talented'
p2606
I2608
sS'reluctantly'
p2607
I2609
sS'wheels'
p2608
I2610
sS'comes'
p2609
I2611
sS'nearby'
p2610
I2612
sS'inspecting'
p2611
I7233
sS'jeans'
p2612
I2614
sS'learning'
p2613
I2615
sS'pigtails'
p2614
I2616
sS'sledding'
p2615
I2617
sS'sticks'
p2616
I4119
sS'cycling'
p2617
I2619
sS'lioness'
p2618
I2620
sS'reenacting'
p2619
I2621
sS'tropical'
p2620
I2622
sS'fours'
p2621
I2623
sS'language'
p2622
I2624
sS'rubs'
p2623
I2625
sS'rucksacks'
p2624
I2626
sS'foggy'
p2625
I2627
sS'skiers'
p2626
I2628
sS'prehistoric'
p2627
I2629
sS'crumb'
p2628
I2630
sS'developing'
p2629
I2631
sS'these'
p2630
I2632
sS'winks'
p2631
I2633
sS'trick'
p2632
I2634
sS'joke'
p2633
I2635
sS'ramp'
p2634
I1712
sS'inflatable'
p2635
I2637
sS'embrace'
p2636
I2639
sS'heels'
p2637
I2640
sS'waterway'
p2638
I2641
sS'helium'
p2639
I2642
sS'floating'
p2640
I4125
sS'figurine'
p2641
I2644
sS'angered'
p2642
I2645
sS'coworkers'
p2643
I2646
sS'sweeper'
p2644
I2647
sS'finish'
p2645
I2648
sS'frying'
p2646
I7397
sS'foal'
p2647
I2649
sS'foam'
p2648
I2650
sS'cymbal'
p2649
I2651
sS'fruit'
p2650
I2652
sS'investigates'
p2651
I2653
sS'volley'
p2652
I1717
sS'alligators'
p2653
I2655
sS'passing'
p2654
I2656
sS'theater'
p2655
I2657
sS'traps'
p2656
I2658
sS'charges'
p2657
I2659
sS'breezy'
p2658
I2660
sS'severe'
p2659
I2661
sS'breeze'
p2660
I2662
sS'taxi'
p2661
I2663
sS'choreography'
p2662
I2664
sS'tossing'
p2663
I4129
sS'armour'
p2664
I2666
sS'dancers'
p2665
I2667
sS'neon'
p2666
I2668
sS'shouts'
p2667
I2669
sS'foot'
p2668
I2670
sS'wrecks'
p2669
I2671
sS'crowns'
p2670
I2672
sS'touch'
p2671
I2673
sS'speed'
p2672
I2675
sS'dueling'
p2673
I2676
sS'death'
p2674
I1237
sS'snowboarder'
p2675
I2678
sS'provocatively'
p2676
I2679
sS'thinking'
p2677
I2680
sS'desktop'
p2678
I2681
sS'treatment'
p2679
I2682
sS'struck'
p2680
I2683
sS'swim'
p2681
I1284
sS'propped'
p2682
I2686
sS'frown'
p2683
I2687
sS'read'
p2684
I2688
sS'stools'
p2685
I2689
sS'amf'
p2686
I2690
sS'early'
p2687
I2691
sS'overlooks'
p2688
I2692
sS'lads'
p2689
I1314
sS'stunt'
p2690
I1315
sS'lady'
p2691
I2695
sS'rear'
p2692
I2696
sS'barbells'
p2693
I2697
sS'conversing'
p2694
I2698
sS'cheerily'
p2695
I2699
sS'conducts'
p2696
I2700
sS'greeting'
p2697
I2701
sS't'
I2702
sS'animating'
p2698
I2703
sS'downward'
p2699
I2704
sS'twelve'
p2700
I2705
sS'hacks'
p2701
I2706
sS'exposes'
p2702
I2707
sS'bobbed'
p2703
I2708
sS'rehearsing'
p2704
I2709
sS'cleanser'
p2705
I2710
sS'recorded'
p2706
I2711
sS'squirt'
p2707
I1437
sS'assembly'
p2708
I1446
sS'pylons'
p2709
I2714
sS'business'
p2710
I2715
sS'sixth'
p2711
I2716
sS'chefs'
p2712
I2717
sS'volkswagen'
p2713
I2718
sS'morphs'
p2714
I2719
sS'seducing'
p2715
I2720
sS'sniffs'
p2716
I2721
sS'papered'
p2717
I2722
sS'assemble'
p2718
I1475
sS'flinches'
p2719
I2724
sS'exciting'
p2720
I2725
sS'throw'
p2721
I2726
sS'beseeches'
p2722
I2728
sS'paints'
p2723
I2729
sS'gums'
p2724
I1527
sS'escalating'
p2725
I2731
sS'wolf'
p2726
I1533
sS'backup'
p2727
I2733
sS'daringly'
p2728
I2734
sS'barrels'
p2729
I2735
sS'earring'
p2730
I2736
sS'stare'
p2731
I2737
sS'fast'
p2732
I7044
sS'log'
p2733
I2738
sS'area'
p2734
I2739
sS'removing'
p2735
I2740
sS'stark'
p2736
I2741
sS'start'
p2737
I2742
sS'cats'
p2738
I2743
sS'low'
p2739
I2744
sS'lot'
p2740
I1619
sS'pitcher'
p2741
I2746
sS'pitches'
p2742
I2747
sS'curiously'
p2743
I2748
sS'recoil'
p2744
I2749
sS'cottage'
p2745
I2750
sS'trying'
p2746
I2751
sS'toned'
p2747
I2752
sS'appliance'
p2748
I1689
sS'sadness'
p2749
I2754
sS'tutus'
p2750
I2755
sS'wrestlers'
p2751
I2756
sS'juggles'
p2752
I2757
sS'scanner'
p2753
I2758
sS'sunroof'
p2754
I2759
sS'moved'
p2755
I2760
sS'sales'
p2756
I2761
sS'scratching'
p2757
I6767
sS'pickax'
p2758
I2763
sS'sheath'
p2759
I2764
sS'mover'
p2760
I2765
sS'moves'
p2761
I2766
sS'gorilla'
p2762
I4146
sS'storage'
p2763
I2768
sS'milking'
p2764
I2769
sS'forcing'
p2765
I2770
sS'gaining'
p2766
I2771
sS'polar'
p2767
I1795
sS'pear'
p2768
I2773
sS'whistling'
p2769
I1813
sS'podium'
p2770
I2775
sS'poof'
p2771
I2776
sS'peak'
p2772
I2777
sS'suited'
p2773
I2778
sS'torches'
p2774
I2779
sS'banners'
p2775
I2780
sS'pool'
p2776
I2781
sS'building'
p2777
I2782
sS'vines'
p2778
I2783
sS'moonlight'
p2779
I2784
sS'bystander'
p2780
I2785
sS'embracing'
p2781
I2786
sS'strings'
p2782
I2787
sS'skeleton'
p2783
I2788
sS'pointing'
p2784
I2789
sS'gown'
p2785
I2790
sS'month'
p2786
I2791
sS'thoughtful'
p2787
I2792
sS'messy'
p2788
I2793
sS'inflating'
p2789
I2794
sS'headscarf'
p2790
I2795
sS'carpet'
p2791
I2796
sS'gymnast'
p2792
I2797
sS'fountain'
p2793
I2798
sS'washroom'
p2794
I2799
sS'very'
p2795
I2800
sS'horror'
p2796
I2801
sS'robes'
p2797
I2802
sS'screwdriver'
p2798
I2803
sS'balancing'
p2799
I2804
sS'decide'
p2800
I2805
sS'sexily'
p2801
I2806
sS'instigates'
p2802
I2807
sS'throbbing'
p2803
I2808
sS'locomotive'
p2804
I2809
sS'dunk'
p2805
I2810
sS'cookies'
p2806
I2811
sS'fence'
p2807
I2812
sS'streets'
p2808
I2813
sS'hamper'
p2809
I2079
sS'cues'
p2810
I2816
sS'darkness'
p2811
I2817
sS'dribbling'
p2812
I2818
sS'<EOS>'
p2813
I2819
sS'milk'
p2814
I4157
sS'belching'
p2815
I2821
sS'edited'
p2816
I2822
sS'loose'
p2817
I2823
sS'answers'
p2818
I2824
sS'tracks'
p2819
I2825
sS'trunk'
p2820
I2826
sS'strong'
p2821
I2827
sS'arena'
p2822
I2828
sS'creeps'
p2823
I2829
sS'colored'
p2824
I2830
sS'ahead'
p2825
I2831
sS'losses'
p2826
I2832
sS'exceptionally'
p2827
I2833
sS'creepy'
p2828
I2834
sS'soldier'
p2829
I2835
sS'amount'
p2830
I2836
sS'trainer'
p2831
I2837
sS'limos'
p2832
I2838
sS'family'
p2833
I2839
sS'put'
p2834
I2840
sS'analyzing'
p2835
I2841
sS'aimed'
p2836
I2842
sS'trained'
p2837
I2843
sS'toys'
p2838
I2844
sS'chunks'
p2839
I2845
sS'somersaulting'
p2840
I2846
sS'takes'
p2841
I2847
sS'contains'
p2842
I2848
sS'bicycles'
p2843
I2849
sS'taken'
p2844
I2850
sS'autographs'
p2845
I2851
sS'chestnut'
p2846
I2852
sS'lowering'
p2847
I2853
sS'propellers'
p2848
I2854
sS'fussed'
p2849
I2855
sS'broke'
p2850
I2856
sS'mounted'
p2851
I2857
sS'producing'
p2852
I2858
sS'grill'
p2853
I2859
sS'sweeps'
p2854
I2861
sS'f1'
p2855
I2862
sS'pushes'
p2856
I2863
sS'pushed'
p2857
I2864
sS'cows'
p2858
I2865
sS'phrase'
p2859
I2866
sS'hamburgers'
p2860
I2867
sS'terribly'
p2861
I2868
sS'chops'
p2862
I2869
sS'wigs'
p2863
I2870
sS'tried'
p2864
I2871
sS'rude'
p2865
I2872
sS'communicating'
p2866
I2873
sS'sneak'
p2867
I2874
sS'tries'
p2868
I2875
sS'purring'
p2869
I2876
sS'gasp'
p2870
I2877
sS'horizontal'
p2871
I2878
sS'a'
I2879
sS'morphing'
p2872
I2880
sS'bugs'
p2873
I2881
sS'chopsticks'
p2874
I2882
sS'scaring'
p2875
I2883
sS'dream'
p2876
I2884
sS'chicks'
p2877
I2885
sS'help'
p2878
I2886
sS'rhinos'
p2879
I2887
sS'cyclists'
p2880
I2888
sS'held'
p2881
I2889
sS'wiener'
p2882
I2890
sS'lasers'
p2883
I2891
sS'tousled'
p2884
I2892
sS'clarinet'
p2885
I2893
sS'fanning'
p2886
I2894
sS'buffaloes'
p2887
I2947
sS'carpeted'
p2888
I2896
sS'overhead'
p2889
I2897
sS'solving'
p2890
I2898
sS'peanuts'
p2891
I2899
sS'fool'
p2892
I2900
sS'evening'
p2893
I2901
sS'groping'
p2894
I2902
sS'yo'
p2895
I2903
sS'food'
p2896
I2904
sS'doughnuts'
p2897
I2905
sS'petted'
p2898
I2906
sS'cupcake'
p2899
I2907
sS'peeing'
p2900
I2908
sS'sweeping'
p2901
I2909
sS'ninja'
p2902
I2910
sS'traveled'
p2903
I6792
sS'desperately'
p2904
I2912
sS'stopper'
p2905
I2913
sS'fully'
p2906
I2914
sS'did'
p2907
I2915
sS'stopped'
p2908
I2916
sS'fairy'
p2909
I2917
sS'trailer'
p2910
I2918
sS'heavy'
p2911
I2919
sS'positioned'
p2912
I2920
sS'beyond'
p2913
I2921
sS'event'
p2914
I2922
sS'surrounded'
p2915
I2923
sS'safety'
p2916
I2924
sS'issue'
p2917
I2925
sS'mittens'
p2918
I2926
sS'smock'
p2919
I2927
sS'overturns'
p2920
I2928
sS'bass'
p2921
I2929
sS'protruding'
p2922
I2930
sS'dirt'
p2923
I2931
sS'pug'
p2924
I2932
sS'pub'
p2925
I2933
sS'houses'
p2926
I2934
sS'reason'
p2927
I2935
sS'base'
p2928
I2936
sS'ask'
p2929
I2937
sS'ash'
p2930
I2938
sS'pup'
p2931
I2939
sS'dishwasher'
p2932
I2940
sS'launch'
p2933
I2941
sS'lemur'
p2934
I2942
sS'cheering'
p2935
I2943
sS'american'
p2936
I2944
sS'daisy'
p2937
I2945
sS'attracting'
p2938
I4181
sS'interact'
p2939
I6805
sS'quiff'
p2940
I2895
sS'knocking'
p2941
I2948
sS'river'
p2942
I7263
sS'hangs'
p2943
I6806
sS'mist'
p2944
I2950
sS'miss'
p2945
I2951
sS'horse'
p2946
I2952
sS'airborne'
p2947
I2953
sS'pinned'
p2948
I2954
sS'station'
p2949
I2955
sS'fingernail'
p2950
I2956
sS'hundred'
p2951
I2957
sS'banana'
p2952
I2958
sS'storm'
p2953
I6808
sS'trapped'
p2954
I2960
sS'jamie'
p2955
I2961
sS'readies'
p2956
I7388
sS'jordan'
p2957
I2962
sS'signaling'
p2958
I2963
sS'sign'
p2959
I2964
sS'leotard'
p2960
I2965
sS'grocery'
p2961
I2966
sS'performers'
p2962
I2967
sS'grey'
p2963
I2968
sS'bride'
p2964
I2969
sS'toward'
p2965
I2970
sS'builder'
p2966
I5484
sS'shirts'
p2967
I2972
sS'mickey'
p2968
I2973
sS'chipmunk'
p2969
I2974
sS'alongside'
p2970
I2975
sS'juice'
p2971
I2976
sS'concentration'
p2972
I2977
sS'sensual'
p2973
I2978
sS'lid'
p2974
I2979
sS'lie'
p2975
I2980
sS'koala'
p2976
I2981
sS'flaming'
p2977
I2982
sS'officers'
p2978
I2983
sS'camouflage'
p2979
I2984
sS'lit'
p2980
I2985
sS'swallowing'
p2981
I2986
sS'lip'
p2982
I2987
sS'nightie'
p2983
I2988
sS'arks'
p2984
I2989
sS'towards'
p2985
I2990
sS'eaten'
p2986
I2991
sS'muscle'
p2987
I5489
sS'mobile'
p2988
I2992
sS'clear'
p2989
I2993
sS'snapping'
p2990
I2994
sS'tongs'
p2991
I2996
sS'swipes'
p2992
I5703
sS'clean'
p2993
I2997
sS'blend'
p2994
I3202
sS'hips'
p2995
I2999
sS'giggles'
p2996
I3000
sS'stunned'
p2997
I3001
sS'flicker'
p2998
I3002
sS'celebrities'
p2999
I3003
sS'barbell'
p3000
I3004
sS'crayon'
p3001
I3005
sS'flicked'
p3002
I3006
sS'bananas'
p3003
I1770
sS'northern'
p3004
I3008
sS'scooter'
p3005
I3009
sS'necking'
p3006
I3010
sS'flights'
p3007
I3011
sS'pretty'
p3008
I3012
sS'circle'
p3009
I3013
sS'porcupine'
p3010
I3014
sS'meanwhile'
p3011
I3015
sS'trees'
p3012
I3016
sS'strut'
p3013
I3017
sS'famous'
p3014
I3018
sS'feels'
p3015
I3310
sS'strum'
p3016
I3020
sS'competing'
p3017
I3021
sS'boils'
p3018
I3022
sS'during'
p3019
I3023
sS'footballers'
p3020
I3024
sS'imitating'
p3021
I3025
sS'molten'
p3022
I3026
sS'fluff'
p3023
I3027
sS'catcher'
p3024
I3028
sS'withe'
p3025
I3029
sS'celebrates'
p3026
I3030
sS'perfume'
p3027
I3031
sS'gloves'
p3028
I3032
sS'corgi'
p3029
I3033
sS'crams'
p3030
I3034
sS'throwing'
p3031
I3035
sS'close'
p3032
I3036
sS'embarking'
p3033
I3037
sS'deploying'
p3034
I3038
sS'patties'
p3035
I3039
sS'pictures'
p3036
I3040
sS'wow'
p3037
I3041
sS'pictured'
p3038
I3042
sS'unconscious'
p3039
I3043
sS'missing'
p3040
I3044
sS'zipped'
p3041
I3045
sS'spray'
p3042
I3047
sS'invisible'
p3043
I3048
sS'zipper'
p3044
I3049
sS'abruptly'
p3045
I3050
sS'both'
p3046
I3051
sS'sensitive'
p3047
I3052
sS'eggplant'
p3048
I3053
sS'boxers'
p3049
I3054
sS'headed'
p3050
I3055
sS'battery'
p3051
I3543
sS'whatever'
p3052
I3057
sS'skips'
p3053
I3058
sS'likes'
p3054
I3059
sS'vessel'
p3055
I3060
sS'catwalk'
p3056
I3061
sS'unaided'
p3057
I3062
sS'damp'
p3058
I3063
sS'reciprocate'
p3059
I3599
sS'tearfully'
p3060
I3065
sS'territory'
p3061
I3066
sS'empty'
p3062
I3067
sS'combing'
p3063
I1777
sS'packs'
p3064
I3069
sS'crack'
p3065
I1778
sS'else'
p3066
I3071
sS'lives'
p3067
I3072
sS'intriguing'
p3068
I3073
sS'loom'
p3069
I3074
sS'look'
p3070
I3075
sS'rope'
p3071
I3076
sS'pace'
p3072
I3077
sS'while'
p3073
I3078
sS'smart'
p3074
I5507
sS'animated'
p3075
I3080
sS'pack'
p3076
I3707
sS'erupting'
p3077
I3082
sS'reads'
p3078
I3083
sS'terminator'
p3079
I3084
sS'loosened'
p3080
I3085
sS'ready'
p3081
I3086
sS'speechlessly'
p3082
I3087
sS'fedora'
p3083
I3088
sS'makeshift'
p3084
I3089
sS'budgie'
p3085
I1780
sS'madly'
p3086
I3091
sS'grand'
p3087
I3092
sS'hocking'
p3088
I3093
sS'hallway'
p3089
I3094
sS'used'
p3090
I3095
sS'overweight'
p3091
I3096
sS'youngsters'
p3092
I3097
sS'uses'
p3093
I3098
sS'cleaning'
p3094
I3099
sS'haunting'
p3095
I3100
sS'plugs'
p3096
I3101
sS'flirty'
p3097
I3102
sS'older'
p3098
I3104
sS'docked'
p3099
I3105
sS'obviously'
p3100
I3106
sS'clears'
p3101
I3107
sS'grossly'
p3102
I3108
sS'roaster'
p3103
I3893
sS'lobsters'
p3104
I3110
sS'chord'
p3105
I3111
sS'powering'
p3106
I3112
sS'quarters'
p3107
I3113
sS'praying'
p3108
I3114
sS'afro'
p3109
I3115
sS'cocks'
p3110
I3116
sS'scrunches'
p3111
I3117
sS'cemetery'
p3112
I3118
sS'exercising'
p3113
I3119
sS'conjures'
p3114
I3120
sS'remaining'
p3115
I3121
sS'march'
p3116
I3122
sS'showing'
p3117
I3123
sS'enthusiastically'
p3118
I3124
sS'game'
p3119
I3125
sS'wings'
p3120
I3126
sS'vests'
p3121
I3127
sS'signal'
p3122
I3128
sS'eel'
p3123
I3129
sS'provoking'
p3124
I3130
sS'crawled'
p3125
I5513
sS'sleigh'
p3126
I4079
sS'cones'
p3127
I3133
sS'brakes'
p3128
I3134
sS'some'
p3129
I3135
sS'yolk'
p3130
I3136
sS'lips'
p3131
I3137
sS'entwining'
p3132
I3138
sS'trendy'
p3133
I3139
sS'clinking'
p3134
I3140
sS'describing'
p3135
I3141
sS'spouting'
p3136
I3142
sS'hairband'
p3137
I3144
sS'pounding'
p3138
I3145
sS'sweating'
p3139
I4214
sS'run'
p3140
I4186
sS'rum'
p3141
I3148
sS'rub'
p3142
I3149
sS'rug'
p3143
I3150
sS'stem'
p3144
I3151
sS'step'
p3145
I3152
sS'alleyway'
p3146
I3153
sS'raspberry'
p3147
I3154
sS'shine'
p3148
I3155
sS'frameqaulsing'
p3149
I5518
sS'positive'
p3150
I3157
sS'messaging'
p3151
I3158
sS'shiny'
p3152
I3159
sS'block'
p3153
I3160
sS'seeing'
p3154
I3161
sS'within'
p3155
I3162
sS'sprawled'
p3156
I3163
sS'rolls'
p3157
I3164
sS'smells'
p3158
I3165
sS'vineyard'
p3159
I4218
sS'placing'
p3160
I3167
sS'douse'
p3161
I4341
sS'himself'
p3162
I3169
sS'dips'
p3163
I3170
sS'properly'
p3164
I3171
sS'toucan'
p3165
I3172
sS'russian'
p3166
I3173
sS'injection'
p3167
I3174
sS'collapses'
p3168
I3175
sS'skull'
p3169
I3176
sS'stumbling'
p3170
I3177
sS'sifting'
p3171
I3178
sS'cautiously'
p3172
I3179
sS'similar'
p3173
I3180
sS'adults'
p3174
I3181
sS'cotton'
p3175
I3182
sS'hyena'
p3176
I6849
sS'tito'
p3177
I3184
sS'upstage'
p3178
I3185
sS'nap'
p3179
I3186
sS'electrical'
p3180
I3187
sS'department'
p3181
I3188
sS'aprons'
p3182
I3189
sS'pandas'
p3183
I3190
sS'smiles'
p3184
I3191
sS'draw'
p3185
I3192
sS'spectators'
p3186
I3193
sS'crouching'
p3187
I3194
sS'lunging'
p3188
I3195
sS'drag'
p3189
I3196
sS'smiled'
p3190
I3197
sS'formal'
p3191
I3198
sS'restrained'
p3192
I3199
sS'structure'
p3193
I4600
sS'cribs'
p3194
I5094
sS'tubes'
p3195
I2998
sS'outing'
p3196
I3203
sS'bleached'
p3197
I3204
sS'pamphlets'
p3198
I3205
sS'tandem'
p3199
I4224
sS'clenches'
p3200
I3207
sS'berries'
p3201
I3208
sS'bedding'
p3202
I1803
sS'stones'
p3203
I6853
sS'nuns'
p3204
I3211
sS'desserts'
p3205
I3212
sS'go'
p3206
I3214
sS'compact'
p3207
I3215
sS'wizard'
p3208
I3216
sS'mosque'
p3209
I3217
sS'suits'
p3210
I3218
sS'suite'
p3211
I3219
sS'friendly'
p3212
I3220
sS'ukulele'
p3213
I4763
sS'demolish'
p3214
I4230
sS'fishnet'
p3215
I3223
sS'kitty'
p3216
I3224
sS'wave'
p3217
I3225
sS'wavy'
p3218
I3226
sS'trough'
p3219
I3227
sS'cellular'
p3220
I3228
sS'telling'
p3221
I3229
sS'exits'
p3222
I3230
sS'snowboards'
p3223
I3231
sS'positions'
p3224
I3232
sS'button'
p3225
I3233
sS'michael'
p3226
I3234
sS'ryan'
p3227
I3235
sS'comforts'
p3228
I3236
sS'booty'
p3229
I3237
sS'boots'
p3230
I3238
sS'waking'
p3231
I3239
sS'jump'
p3232
I3240
sS'hose'
p3233
I5533
sS'booth'
p3234
I3242
sS'picked'
p3235
I3243
sS'cupcakes'
p3236
I4911
sS'plays'
p3237
I3245
sS'paintings'
p3238
I3246
sS'soup'
p3239
I4234
sS'espresso'
p3240
I3248
sS'vampire'
p3241
I3249
sS'valet'
p3242
I3250
sS'cell'
p3243
I3251
sS'experiment'
p3244
I3252
sS'poles'
p3245
I3253
sS'commercial'
p3246
I3254
sS'pancake'
p3247
I3255
sS'ponytails'
p3248
I3256
sS'products'
p3249
I3257
sS'wig'
p3250
I3258
sS'examining'
p3251
I3259
sS'addresses'
p3252
I3260
sS'pitch'
p3253
I3457
sS'win'
p3254
I3261
sS'sparklers'
p3255
I3262
sS'manage'
p3256
I3263
sS'wii'
p3257
I3264
sS'wit'
p3258
I3265
sS'gimmick'
p3259
I3266
sS'singing'
p3260
I3267
sS'cloud'
p3261
I3268
sS'handfuls'
p3262
I3269
sS'strapped'
p3263
I3270
sS'clatters'
p3264
I3271
sS'remains'
p3265
I3272
sS'congratulated'
p3266
I3273
sS'crab'
p3267
I3275
sS'vehicle'
p3268
I3276
sS'stage'
p3269
I1818
sS'reflects'
p3270
I3278
sS'cheeks'
p3271
I3279
sS'popped'
p3272
I3280
sS'formally'
p3273
I3281
sS'started'
p3274
I3282
sS'becomes'
p3275
I3283
sS'missile'
p3276
I3284
sS'crosses'
p3277
I3285
sS'arched'
p3278
I3286
sS'salad'
p3279
I3287
sS'ride'
p3280
I3288
sS'donut'
p3281
I3289
sS'arches'
p3282
I3290
sS'crossed'
p3283
I3291
sS'meet'
p3284
I3292
sS'drops'
p3285
I3293
sS'control'
p3286
I3294
sS'escapes'
p3287
I3295
sS'ferrets'
p3288
I3296
sS'halloween'
p3289
I3297
sS'pulling'
p3290
I3298
sS'suds'
p3291
I3299
sS'triangle'
p3292
I6865
sS'drainpipe'
p3293
I3301
sS'skirt'
p3294
I3302
sS'fearsome'
p3295
I3303
sS'letterbox'
p3296
I3304
sS'filament'
p3297
I3305
sS'circular'
p3298
I3306
sS'furiously'
p3299
I3307
sS'farm'
p3300
I3308
sS'peeling'
p3301
I3309
sS'capsule'
p3302
I3019
sS'scoop'
p3303
I3311
sS'bakery'
p3304
I3312
sS'crazed'
p3305
I3313
sS'scoot'
p3306
I3314
sS'bathing'
p3307
I3315
sS'pretending'
p3308
I3316
sS'basement'
p3309
I3317
sS'including'
p3310
I3318
sS'costume'
p3311
I3319
sS'outer'
p3312
I3320
sS'broom'
p3313
I3321
sS'notebooks'
p3314
I3322
sS'youngster'
p3315
I3323
sS'gymnasts'
p3316
I3324
sS'sword'
p3317
I3325
sS'auto'
p3318
I3326
sS'catches'
p3319
I3327
sS'pins'
p3320
I3329
sS'gloved'
p3321
I3330
sS'hands'
p3322
I3331
sS'front'
p3323
I3332
sS'slide'
p3324
I3333
sS'crossing'
p3325
I3334
sS'shaking'
p3326
I3335
sS'upward'
p3327
I3336
sS'showering'
p3328
I3337
sS'globe'
p3329
I3338
sS'mas'
p3330
I3339
sS'multicolored'
p3331
I3340
sS'measure'
p3332
I3341
sS'separating'
p3333
I3342
sS'laundry'
p3334
I3343
sS'special'
p3335
I3344
sS'armor'
p3336
I3345
sS'strokes'
p3337
I4261
sS'playground'
p3338
I3347
sS'wick'
p3339
I3348
sS'cause'
p3340
I3349
sS'umbrella'
p3341
I3350
sS'reacts'
p3342
I3351
sS'undressing'
p3343
I3352
sS'clenching'
p3344
I3353
sS'completely'
p3345
I3354
sS'x'
I3355
sS'drowning'
p3346
I3356
sS'untying'
p3347
I6872
sS'headbutt'
p3348
I3358
sS'keep'
p3349
I3359
sS'stride'
p3350
I3360
sS'wading'
p3351
I3361
sS'projectile'
p3352
I3362
sS'sabers'
p3353
I3363
sS'designed'
p3354
I4264
sS'powerful'
p3355
I3365
sS'spots'
p3356
I1832
sS'art'
p3357
I6877
sS'horseman'
p3358
I3368
sS'bears'
p3359
I3369
sS'squinting'
p3360
I3370
sS'wrapper'
p3361
I3371
sS'attach'
p3362
I3372
sS'attack'
p3363
I3373
sS'fells'
p3364
I3374
sS'wrapped'
p3365
I3375
sS'man'
p3366
I4269
sS'tourists'
p3367
I3377
sS'beard'
p3368
I3378
sS'fuzzy'
p3369
I3379
sS'herself'
p3370
I3380
sS'newlywed'
p3371
I3381
sS'waist'
p3372
I3382
sS'photograph'
p3373
I3383
sS'thrashing'
p3374
I3385
sS'yawned'
p3375
I3386
sS'bed'
p3376
I3387
sS'bee'
p3377
I3388
sS'firework'
p3378
I3389
sS'dumb'
p3379
I6883
sS'sultry'
p3380
I3391
sS'bet'
p3381
I3392
sS'exhibit'
p3382
I3393
sS'villains'
p3383
I3394
sS'lightly'
p3384
I3395
sS'carrots'
p3385
I3396
sS'portrait'
p3386
I3397
sS'screw'
p3387
I2503
sS'microphone'
p3388
I3399
sS'bobble'
p3389
I5563
sS'able'
p3390
I3401
sS'battles'
p3391
I3402
sS'sprinkled'
p3392
I3403
sS'truck'
p3393
I3404
sS'detector'
p3394
I3405
sS'brand'
p3395
I5565
sS'blades'
p3396
I3407
sS'lectures'
p3397
I3408
sS'passionately'
p3398
I3409
sS'plugging'
p3399
I3410
sS'parenting'
p3400
I3411
sS'connected'
p3401
I3412
sS'awe'
p3402
I3413
sS'cellphone'
p3403
I3414
sS'stereo'
p3404
I3415
sS'scrambles'
p3405
I3416
sS'urn'
p3406
I3417
sS'indy'
p3407
I3418
sS'scrambled'
p3408
I3419
sS'construction'
p3409
I1839
sS'gesture'
p3410
I4278
sS'wreaked'
p3411
I3422
sS'emerging'
p3412
I3423
sS'kiddie'
p3413
I3424
sS'indoor'
p3414
I3425
sS'crate'
p3415
I3426
sS'parked'
p3416
I3428
sS'ottoman'
p3417
I3429
sS'shield'
p3418
I4280
sS'partners'
p3419
I3431
sS'based'
p3420
I3432
sS'tire'
p3421
I3433
sS'winner'
p3422
I3434
sS'employee'
p3423
I3435
sS'surfs'
p3424
I3436
sS'worktop'
p3425
I3437
sS'dodge'
p3426
I3438
sS'slows'
p3427
I3439
sS'vehicles'
p3428
I936
sS'joint'
p3429
I3441
sS'joins'
p3430
I3442
sS'sassy'
p3431
I3443
sS'scrolling'
p3432
I3444
sS'gray'
p3433
I3445
sS'trucks'
p3434
I3446
sS'shy'
p3435
I3447
sS'dishing'
p3436
I3448
sS'she'
p3437
I3449
sS'dangerous'
p3438
I5575
sS'fasteners'
p3439
I3451
sS'uniformed'
p3440
I4663
sS'widow'
p3441
I3453
sS'spotted'
p3442
I3454
sS'prayers'
p3443
I3455
sS'hardwood'
p3444
I3456
sS'shake'
p3445
I4282
sS'humans'
p3446
I3458
sS'freeze'
p3447
I3459
sS'computer'
p3448
I3460
sS'powder'
p3449
I3461
sS'whinnying'
p3450
I3462
sS'unshaven'
p3451
I3463
sS'written'
p3452
I3464
sS'correctly'
p3453
I3465
sS'masking'
p3454
I3466
sS'chipmunks'
p3455
I3467
sS'juggle'
p3456
I3468
sS'tent'
p3457
I3469
sS'ken'
p3458
I3470
sS'barreling'
p3459
I3471
sS'munching'
p3460
I3472
sS'buckets'
p3461
I3473
sS'kicking'
p3462
I3474
sS'blinked'
p3463
I3475
sS'merry'
p3464
I3476
sS'police'
p3465
I3477
sS'hits'
p3466
I3478
sS'sniff'
p3467
I3480
sS'aqua'
p3468
I3481
sS'jersey'
p3469
I3482
sS'spandex'
p3470
I3484
sS'kings'
p3471
I3485
sS'heimlich'
p3472
I3486
sS'sari'
p3473
I3487
sS'tread'
p3474
I3488
sS'addition'
p3475
I3489
sS'disintegrate'
p3476
I3490
sS'polka'
p3477
I3491
sS'frenetically'
p3478
I3492
sS'slowly'
p3479
I3493
sS'treat'
p3480
I3494
sS'shoulders'
p3481
I3495
sS'controlled'
p3482
I3496
sS'hoisted'
p3483
I3497
sS'releasing'
p3484
I3498
sS'pie'
p3485
I5584
sS'controller'
p3486
I3500
sS'kicks'
p3487
I3501
sS'smoking'
p3488
I3502
sS'digger'
p3489
I3503
sS'skywards'
p3490
I5586
sS'license'
p3491
I6904
sS'examines'
p3492
I3507
sS'surface'
p3493
I3508
sS'examined'
p3494
I3509
sS'swinging'
p3495
I3510
sS'claps'
p3496
I3511
sS'bucks'
p3497
I3512
sS'capture'
p3498
I3513
sS'mysteriously'
p3499
I5587
sS'balloon'
p3500
I3515
sS'housecoats'
p3501
I6905
sS'proceeds'
p3502
I5589
sS'parts'
p3503
I3518
sS'speaker'
p3504
I3519
sS'underground'
p3505
I3520
sS'party'
p3506
I3521
sS'tapped'
p3507
I3522
sS'fireman'
p3508
I3523
sS'effect'
p3509
I3524
sS'gestures'
p3510
I3525
sS'parachutist'
p3511
I3526
sS'steals'
p3512
I3527
sS'weld'
p3513
I3528
sS'reflection'
p3514
I3529
sS'lunch'
p3515
I3530
sS'obstacles'
p3516
I3531
sS'well'
p3517
I3532
sS'traffics'
p3518
I5769
sS'rink'
p3519
I3533
sS'drone'
p3520
I3534
sS'flexing'
p3521
I3535
sS'taller'
p3522
I3536
sS'spastic'
p3523
I3537
sS'distant'
p3524
I3538
sS'skill'
p3525
I3539
sS'mysterious'
p3526
I3540
sS'grappling'
p3527
I3541
sS'lures'
p3528
I3542
sS'lured'
p3529
I3544
sS'extends'
p3530
I3545
sS'morgue'
p3531
I3546
sS'riverside'
p3532
I3547
sS'balloons'
p3533
I3548
sS'kick'
p3534
I3549
sS'clouded'
p3535
I3550
sS'sonic'
p3536
I3551
sS'ducked'
p3537
I5595
sS'fate'
p3538
I3553
sS'propelled'
p3539
I3554
sS'unseen'
p3540
I3555
sS'bottoms'
p3541
I3556
sS'propeller'
p3542
I3557
sS'crushes'
p3543
I3558
sS'crusher'
p3544
I3559
sS'lost'
p3545
I3560
sS'sizes'
p3546
I3561
sS'starry'
p3547
I3562
sS'nipping'
p3548
I6915
sS'candy'
p3549
I3564
sS'sized'
p3550
I3565
sS'lose'
p3551
I3566
sS'page'
p3552
I3567
sS'climbers'
p3553
I3568
sS'shed'
p3554
I3569
sS'blandishing'
p3555
I6916
sS'scuffle'
p3556
I3571
sS'library'
p3557
I3572
sS'home'
p3558
I3573
sS'competitor'
p3559
I3574
sS'steaming'
p3560
I3575
sS'demonstrates'
p3561
I3576
sS'kettle'
p3562
I3577
sS'injects'
p3563
I3578
sS'grinding'
p3564
I3579
sS'tadpole'
p3565
I3580
sS'cradle'
p3566
I3581
sS'medieval'
p3567
I3582
sS'reaching'
p3568
I3583
sS'goatee'
p3569
I3584
sS'journal'
p3570
I3585
sS'shakily'
p3571
I3586
sS'sways'
p3572
I3587
sS'cleans'
p3573
I3588
sS'nightclub'
p3574
I3589
sS'beige'
p3575
I3590
sS'puppies'
p3576
I3591
sS'tongue'
p3577
I3592
sS'readjusts'
p3578
I3593
sS'mushrooms'
p3579
I3594
sS'artists'
p3580
I3595
sS'clown'
p3581
I6282
sS'gerbil'
p3582
I3597
sS'museum'
p3583
I3598
sS'funnily'
p3584
I3600
sS'protectors'
p3585
I3601
sS'synthesizer'
p3586
I3602
sS'inner'
p3587
I3603
sS'notices'
p3588
I3604
sS'drumstick'
p3589
I3605
sS'cricket'
p3590
I3606
sS'recorder'
p3591
I2712
sS'chinning'
p3592
I3607
sS'fountains'
p3593
I3608
sS'hi'
p3594
I3609
sS'sprinkling'
p3595
I3610
sS'overflow'
p3596
I3611
sS'ear'
p3597
I3612
sS'eat'
p3598
I3613
sS'he'
p3599
I3614
sS'hosting'
p3600
I3615
sS'rumba'
p3601
I3616
sS'carriage'
p3602
I3617
sS'cello'
p3603
I3618
sS'suggestively'
p3604
I3619
sS'piece'
p3605
I3620
sS'display'
p3606
I3621
sS'penny'
p3607
I3622
sS'kisses'
p3608
I3623
sS'twist'
p3609
I3624
sS'utensils'
p3610
I3625
sS'beats'
p3611
I3626
sS'crystals'
p3612
I3627
sS'kissed'
p3613
I3628
sS'balcony'
p3614
I3629
sS'contest'
p3615
I3630
sS'fencing'
p3616
I3631
sS'offensive'
p3617
I3632
sS'meteor'
p3618
I3633
sS'suspiciously'
p3619
I3634
sS'jamming'
p3620
I3635
sS'derails'
p3621
I3636
sS'star'
p3622
I3637
sS'living'
p3623
I4308
sS'stay'
p3624
I3639
sS'foil'
p3625
I3640
sS'stab'
p3626
I3641
sS'candyfloss'
p3627
I3642
sS'friends'
p3628
I3643
sS'using'
p3629
I2694
sS'furrowing'
p3630
I3646
sS'powdery'
p3631
I3647
sS'dynamic'
p3632
I3648
sS'straws'
p3633
I23
sS'asian'
p3634
I3650
sS'captain'
p3635
I3651
sS'whose'
p3636
I3652
sS'buddy'
p3637
I3653
sS'swam'
p3638
I3654
sS'presents'
p3639
I3655
sS'swat'
p3640
I3656
sS'swap'
p3641
I3657
sS'trousers'
p3642
I3658
sS'teaching'
p3643
I3659
sS'onstage'
p3644
I80
sS'hats'
p3645
I5604
sS'fists'
p3646
I3662
sS'cruising'
p3647
I3663
sS'rescue'
p3648
I3664
sS'vase'
p3649
I3665
sS'smack'
p3650
I3666
sS'hitch'
p3651
I5605
sS'vast'
p3652
I3668
sS'snowflakes'
p3653
I3669
sS'skills'
p3654
I136
sS'convenience'
p3655
I3671
sS'mopped'
p3656
I3672
sS'heading'
p3657
I166
sS'clothes'
p3658
I3674
sS'uncovers'
p3659
I3675
sS'force'
p3660
I3676
sS'quilt'
p3661
I3677
sS'chaises'
p3662
I3678
sS'japanese'
p3663
I3679
sS'across'
p3664
I4435
sS'gator'
p3665
I3680
sS'subordinate'
p3666
I3681
sS'even'
p3667
I3682
sS'trapping'
p3668
I3683
sS'wreck'
p3669
I3684
sS'orchestra'
p3670
I3685
sS'bikini'
p3671
I3686
sS'asia'
p3672
I3687
sS'lights'
p3673
I3688
sS'new'
p3674
I3689
sS'tips'
p3675
I258
sS'helmets'
p3676
I3691
sS'screams'
p3677
I3692
sS'pancakes'
p3678
I3693
sS'men'
p3679
I3694
sS'weirdly'
p3680
I3695
sS'drew'
p3681
I3696
sS'gagging'
p3682
I4314
sS'active'
p3683
I3698
sS'cardboard'
p3684
I3699
sS'dry'
p3685
I3700
sS'jams'
p3686
I327
sS'rests'
p3687
I3702
sS'piercing'
p3688
I3703
sS'ignoring'
p3689
I3704
sS'taped'
p3690
I3705
sS'floorboards'
p3691
I3706
sS'eyebrows'
p3692
I3708
sS'heeled'
p3693
I3709
sS'digitally'
p3694
I3710
sS'besides'
p3695
I3711
sS'slices'
p3696
I3712
sS'sliced'
p3697
I3713
sS'jackets'
p3698
I3714
sS'gorillas'
p3699
I3715
sS'landscape'
p3700
I3716
sS'scarred'
p3701
I3717
sS'army'
p3702
I3718
sS'watering'
p3703
I3719
sS'barks'
p3704
I3720
sS'arms'
p3705
I3721
sS'leaks'
p3706
I3722
sS'call'
p3707
I3723
sS'calm'
p3708
I3724
sS'twirled'
p3709
I3725
sS'type'
p3710
I3726
sS'calf'
p3711
I3727
sS'peeping'
p3712
I3728
sS'oscar'
p3713
I3729
sS'expose'
p3714
I3730
sS'under'
p3715
I5615
sS'lunge'
p3716
I3732
sS'warm'
p3717
I3733
sS'adult'
p3718
I3734
sS'dapple'
p3719
I3384
sS'room'
p3720
I3736
sS'trots'
p3721
I3737
sS'wadding'
p3722
I3738
sS'somber'
p3723
I3739
sS'roof'
p3724
I3740
sS'suggestive'
p3725
I3741
sS'foliage'
p3726
I3742
sS'defecates'
p3727
I3743
sS'vodka'
p3728
I3744
sS'sensually'
p3729
I3745
sS'give'
p3730
I3746
sS'laughs'
p3731
I3747
sS'foods'
p3732
I3748
sS'braids'
p3733
I3749
sS'twitching'
p3734
I3750
sS'blackish'
p3735
I3751
sS'answer'
p3736
I3752
sS'butting'
p3737
I3753
sS'scooters'
p3738
I3754
sS'sportsperson'
p3739
I3755
sS'briefcase'
p3740
I3756
sS'abdomen'
p3741
I3757
sS'curiosity'
p3742
I3758
sS'schoolchildren'
p3743
I654
sS'waterfront'
p3744
I3760
sS'president'
p3745
I3761
sS'attemps'
p3746
I3763
sS'attempt'
p3747
I3764
sS'third'
p3748
I3765
sS'longingly'
p3749
I3766
sS'owls'
p3750
I3767
sS'goodbye'
p3751
I3768
sS'every'
p3752
I5621
sS'overtakes'
p3753
I3770
sS'athletes'
p3754
I3771
sS'documents'
p3755
I1642
sS'unfolds'
p3756
I3772
sS'deck'
p3757
I3773
sS'pothole'
p3758
I739
sS'hairnet'
p3759
I3775
sS'sheltering'
p3760
I3776
sS'keyboard'
p3761
I3777
sS'windshield'
p3762
I3778
sS'before'
p3763
I3779
sS'scooting'
p3764
I768
sS'chihuahua'
p3765
I3781
sS'harmonica'
p3766
I3782
sS'frisks'
p3767
I3783
sS','
I3784
sS'crew'
p3768
I3785
sS'better'
p3769
I795
sS'weighed'
p3770
I5464
sS'differently'
p3771
I3787
sS'personas'
p3772
I3788
sS'gents'
p3773
I3789
sS'confidently'
p3774
I3790
sS'combination'
p3775
I3791
sS'workout'
p3776
I3792
sS'caterpillar'
p3777
I3793
sS'glazed'
p3778
I3794
sS'whisk'
p3779
I3795
sS'fringed'
p3780
I3796
sS'meat'
p3781
I3797
sS'fringes'
p3782
I3798
sS'mounts'
p3783
I3799
sS'acoustic'
p3784
I3800
sS'went'
p3785
I894
sS'bong'
p3786
I3802
sS'meal'
p3787
I898
sS'bone'
p3788
I3804
sS'mean'
p3789
I3805
sS'calmly'
p3790
I3806
sS'stealing'
p3791
I3807
sS'navy'
p3792
I3808
sS'dawn'
p3793
I3809
sS'bodywork'
p3794
I3810
sS'enclosure'
p3795
I3811
sS'sparkly'
p3796
I3812
sS'content'
p3797
I968
sS'debit'
p3798
I3814
sS'surprise'
p3799
I984
sS'hushes'
p3800
I3816
sS'flashy'
p3801
I5630
sS'turning'
p3802
I3818
sS'ascending'
p3803
I3819
sS'struggle'
p3804
I3820
sS'beanies'
p3805
I3821
sS'mistress'
p3806
I3822
sS'aisle'
p3807
I3823
sS'starts'
p3808
I3824
sS'shush'
p3809
I3825
sS'steward'
p3810
I3826
sS'murky'
p3811
I3827
sS'swiping'
p3812
I3828
sS'boarders'
p3813
I1069
sS'features'
p3814
I3830
sS'hoop'
p3815
I3831
sS'twitches'
p3816
I3832
sS'comforted'
p3817
I3833
sS'buttock'
p3818
I3834
sS'hook'
p3819
I3835
sS'featured'
p3820
I3836
sS'floors'
p3821
I3837
sS'disappearing'
p3822
I3838
sS'comforter'
p3823
I3839
sS'twitched'
p3824
I3840
sS'ditch'
p3825
I3841
sS'hood'
p3826
I3842
sS'struts'
p3827
I3843
sS'dumbfounded'
p3828
I1134
sS'twisted'
p3829
I3845
sS'bouncing'
p3830
I3846
sS'gym'
p3831
I3847
sS'digs'
p3832
I3848
sS'dilates'
p3833
I3849
sS'stocking'
p3834
I3850
sS'boarding'
p3835
I1204
sS'spoiler'
p3836
I1205
sS'matter'
p3837
I3853
sS'street'
p3838
I5644
sS'silly'
p3839
I3855
sS'mermaid'
p3840
I4340
sS'childlike'
p3841
I3857
sS'knights'
p3842
I3858
sS'mini'
p3843
I3859
sS'mink'
p3844
I3860
sS'sees'
p3845
I3861
sS'stomping'
p3846
I1261
sS'modern'
p3847
I3863
sS'ginger'
p3848
I3864
sS'seed'
p3849
I3865
sS'seen'
p3850
I3866
sS'seem'
p3851
I3867
sS'grind'
p3852
I3868
sS'seek'
p3853
I3869
sS'tells'
p3854
I3870
sS'fitting'
p3855
I3871
sS'chess'
p3856
I3872
sS'musketeers'
p3857
I3873
sS'hoods'
p3858
I3874
sS'panties'
p3859
I3875
sS'wrists'
p3860
I3876
sS'buggies'
p3861
I3877
sS'rappers'
p3862
I3878
sS'phonograph'
p3863
I3879
sS'grins'
p3864
I3880
sS'regular'
p3865
I3881
sS'medical'
p3866
I3883
sS'm'
I1379
sS'dog'
p3867
I3885
sS'breathes'
p3868
I3886
sS'competitors'
p3869
I3887
sS'points'
p3870
I3888
sS'hamming'
p3871
I3889
sS'pointy'
p3872
I1397
sS'annoyed'
p3873
I3891
sS'dot'
p3874
I3892
sS'distances'
p3875
I3109
sS'ending'
p3876
I3894
sS'attempts'
p3877
I3895
sS'sown'
p3878
I3896
sS'stepping'
p3879
I3897
sS'sneaking'
p3880
I3898
sS'judges'
p3881
I3899
sS'explain'
p3882
I3900
sS'folded'
p3883
I3901
sS'sugar'
p3884
I3902
sS'celery'
p3885
I3903
sS'stabbing'
p3886
I3904
sS'folder'
p3887
I3905
sS'wearing'
p3888
I3906
sS'tiles'
p3889
I3907
sS'glaciers'
p3890
I3908
sS'colorful'
p3891
I3909
sS'frameqalacing'
p3892
I3910
sS'stop'
p3893
I3911
sS'coast'
p3894
I3912
sS'patted'
p3895
I3913
sS'watermelon'
p3896
I3914
sS'tiled'
p3897
I3915
sS'smug'
p3898
I3916
sS'bat'
p3899
I3917
sS'bar'
p3900
I3918
sS'fields'
p3901
I3919
sS'thrusts'
p3902
I3920
sS'disco'
p3903
I3921
sS'reload'
p3904
I1588
sS'bad'
p3905
I3923
sS'discs'
p3906
I1589
sS'troop'
p3907
I3925
sS'ban'
p3908
I3926
sS'ears'
p3909
I3927
sS'fluffs'
p3910
I3928
sS'decides'
p3911
I3929
sS'imitate'
p3912
I3930
sS'fluffy'
p3913
I3931
sS'testing'
p3914
I3932
sS'mournfully'
p3915
I3933
sS'pebbles'
p3916
I3934
sS'said'
p3917
I3935
sS'shaven'
p3918
I1656
sS'sail'
p3919
I3937
sS'artificial'
p3920
I3938
sS'smacks'
p3921
I3939
sS'pets'
p3922
I3940
sS'baboon'
p3923
I3941
sS'lethargic'
p3924
I3942
sS'warrior'
p3925
I3943
sS'lazy'
p3926
I3944
sS'wears'
p3927
I3945
sS'vacuuming'
p3928
I3946
sS'lotion'
p3929
I3947
sS'loading'
p3930
I6993
sS'modeling'
p3931
I3948
sS'picking'
p3932
I3949
sS'against'
p3933
I3950
sS'peddling'
p3934
I3951
sS'dandelion'
p3935
I7202
sS'motioning'
p3936
I3952
sS'appeared'
p3937
I3953
sS'awesomely'
p3938
I3954
sS'springy'
p3939
I1791
sS'drilled'
p3940
I3956
sS'loaded'
p3941
I3957
sS'putt'
p3942
I3958
sS'immobile'
p3943
I3959
sS'asks'
p3944
I1822
sS'three'
p3945
I3961
sS'tiny'
p3946
I3962
sS'trigger'
p3947
I3963
sS'basin'
p3948
I3964
sS'lovely'
p3949
I3965
sS'threw'
p3950
I3966
sS'deeper'
p3951
I3968
sS'mushroom'
p3952
I3969
sS'sunshine'
p3953
I3970
sS'argument'
p3954
I682
sS'houseplants'
p3955
I3972
sS'tapping'
p3956
I3973
sS'tank'
p3957
I3974
sS'reddish'
p3958
I3975
sS'tastes'
p3959
I685
sS'ugly'
p3960
I3977
sS'lizard'
p3961
I1898
sS'melted'
p3962
I3979
sS'comedian'
p3963
I4360
sS'balance'
p3964
I3981
sS'smoky'
p3965
I1910
sS'seven'
p3966
I3983
sS'cane'
p3967
I3984
sS'is'
p3968
I3985
sS'it'
p3969
I3986
sS'fakes'
p3970
I3987
sS'sequined'
p3971
I3988
sS'cans'
p3972
I3989
sS'in'
p3973
I3990
sS'mouse'
p3974
I3991
sS'id'
p3975
I3992
sS'disappear'
p3976
I3993
sS'if'
p3977
I3994
sS'grown'
p3978
I3995
sS'waging'
p3979
I3996
sS'bottles'
p3980
I3997
sS'shimmering'
p3981
I3998
sS'occupied'
p3982
I3999
sS'tucking'
p3983
I1974
sS'polaroid'
p3984
I4001
sS'belly'
p3985
I4003
sS'vegetable'
p3986
I4004
sS'filtered'
p3987
I4005
sS'shoveling'
p3988
I4006
sS'sidelines'
p3989
I4007
sS'grows'
p3990
I4008
sS'bells'
p3991
I4009
sS'vibrates'
p3992
I4010
sS'meets'
p3993
I4011
sS'bearded'
p3994
I4012
sS'scarfs'
p3995
I4013
sS'kit'
p3996
I4014
sS'delight'
p3997
I4015
sS'waterfall'
p3998
I4016
sS'garlic'
p3999
I4017
sS'unicorn'
p4000
I4018
sS'thoughts'
p4001
I4019
sS'kid'
p4002
I4020
sS'butter'
p4003
I4021
sS'practiced'
p4004
I4022
sS'smokey'
p4005
I4023
sS'changes'
p4006
I5674
sS'failing'
p4007
I2069
sS'smokes'
p4008
I4026
sS'smoker'
p4009
I4027
sS'bedspread'
p4010
I4028
sS'materials'
p4011
I2080
sS'tombstone'
p4012
I4030
sS'butted'
p4013
I4031
sS'coliseum'
p4014
I692
sS'flops'
p4015
I4033
sS'pooping'
p4016
I4034
sS'left'
p4017
I4035
sS'just'
p4018
I4036
sS'sporting'
p4019
I4037
sS'swearing'
p4020
I5675
sS'somethings'
p4021
I4039
sS'fighters'
p4022
I4040
sS'transforms'
p4023
I4041
sS'human'
p4024
I4042
sS'yes'
p4025
I4043
sS'tattooed'
p4026
I4044
sS'sunflower'
p4027
I4045
sS'agile'
p4028
I4046
sS'faceof'
p4029
I4047
sS'character'
p4030
I4048
sS'catsuit'
p4031
I4049
sS'save'
p4032
I4050
sS'trimming'
p4033
I4051
sS'sailors'
p4034
I4052
sS'gyrating'
p4035
I4053
sS'background'
p4036
I4054
sS'wanting'
p4037
I699
sS'strap'
p4038
I5678
sS'shoulder'
p4039
I4057
sS'waddling'
p4040
I4058
sS'nude'
p4041
I4059
sS'performing'
p4042
I4060
sS'zombies'
p4043
I4062
sS'pillar'
p4044
I4063
sS'somehow'
p4045
I4064
sS'elderly'
p4046
I2288
sS'intern'
p4047
I4066
sS'fingering'
p4048
I4067
sS'pain'
p4049
I4068
sS'tripped'
p4050
I4069
sS'theatrical'
p4051
I4070
sS'dense'
p4052
I4071
sS'carts'
p4053
I4072
sS'daytime'
p4054
I4073
sS'arguing'
p4055
I4074
sS'onlooking'
p4056
I4075
sS'skateboarder'
p4057
I4076
sS'burn'
p4058
I4077
sS'boll'
p4059
I4078
sS'popular'
p4060
I3132
sS'bolt'
p4061
I4080
sS'keeper'
p4062
I4081
sS'super'
p4063
I4082
sS'dunking'
p4064
I4083
sS'yelling'
p4065
I4084
sS'assault'
p4066
I4085
sS'magazine'
p4067
I4086
sS'crucifix'
p4068
I4087
sS'wintertime'
p4069
I4088
sS'automatically'
p4070
I4089
sS'gloss'
p4071
I4090
sS'managers'
p4072
I4091
sS'chimp'
p4073
I4092
sS'chooses'
p4074
I4093
sS'down'
p4075
I4094
sS'fumes'
p4076
I2479
sS'carving'
p4077
I4096
sS'frightened'
p4078
I4097
sS'snorts'
p4079
I4098
sS'weathered'
p4080
I4099
sS'amazingly'
p4081
I4100
sS'flying'
p4082
I4101
sS'victorious'
p4083
I4103
sS'fork'
p4084
I4104
sS'offering'
p4085
I2558
sS'forks'
p4086
I4106
sS'fireworks'
p4087
I4107
sS'landing'
p4088
I4108
sS'diaper'
p4089
I4109
sS'fort'
p4090
I4110
sS'prevents'
p4091
I4111
sS'hikers'
p4092
I2592
sS'attached'
p4093
I4113
sS'blueberry'
p4094
I4114
sS'boomerang'
p4095
I4115
sS'attaches'
p4096
I4116
sS'hurriedly'
p4097
I7016
sS'breathe'
p4098
I5686
sS'shimmies'
p4099
I2618
sS'classic'
p4100
I4120
sS'toss'
p4101
I4121
sS'covers'
p4102
I4122
sS'sticky'
p4103
I4123
sS'fashioned'
p4104
I4124
sS'ship'
p4105
I2643
sS'marking'
p4106
I4126
sS'agreeing'
p4107
I4127
sS'leafless'
p4108
I4128
sS'clings'
p4109
I2665
sS'handed'
p4110
I4130
sS'warehouse'
p4111
I4131
sS'ribbons'
p4112
I4132
sS'dies'
p4113
I4134
sS'felt'
p4114
I4135
sS'grassland'
p4115
I4136
sS'fell'
p4116
I4137
sS'shatters'
p4117
I4138
sS'pizzas'
p4118
I4139
sS'unlocking'
p4119
I4140
sS'derail'
p4120
I4141
sS'happening'
p4121
I4142
sS'potato'
p4122
I4143
sS'blushing'
p4123
I4144
sS'jacket'
p4124
I4145
sS'tyrannosaurus'
p4125
I2767
sS'stripping'
p4126
I4147
sS'teeth'
p4127
I4148
sS'themed'
p4128
I4149
sS'skip'
p4129
I4150
sS'skis'
p4130
I4151
sS'manager'
p4131
I4152
sS'manages'
p4132
I4153
sS'skin'
p4133
I4154
sS'mill'
p4134
I4155
sS'bomber'
p4135
I4156
sS'skid'
p4136
I2820
sS'burnout'
p4137
I4158
sS'technique'
p4138
I4159
sS'father'
p4139
I4160
sS'finally'
p4140
I4161
sS'marks'
p4141
I4162
sS'advises'
p4142
I4163
sS'string'
p4143
I4164
sS'congratulating'
p4144
I4165
sS'piggybacking'
p4145
I4166
sS'join'
p4146
I5697
sS'dim'
p4147
I4168
sS'biceps'
p4148
I4169
sS'swapping'
p4149
I4170
sS'malamute'
p4150
I4171
sS'die'
p4151
I4172
sS'dig'
p4152
I4173
sS'accidentally'
p4153
I4174
sS'travels'
p4154
I4175
sS'item'
p4155
I4176
sS'brownish'
p4156
I4177
sS'grimace'
p4157
I4178
sS'dip'
p4158
I4179
sS'round'
p4159
I4180
sS'shoe'
p4160
I4395
sS'talked'
p4161
I4182
sS'undoes'
p4162
I4183
sS'sneakily'
p4163
I4184
sS'refusing'
p4164
I4185
sS'eating'
p4165
I3147
sS'targets'
p4166
I4187
sS'vandalized'
p4167
I4188
sS'sweaters'
p4168
I4189
sS'filled'
p4169
I4190
sS'growls'
p4170
I4191
sS'makeup'
p4171
I4192
sS'french'
p4172
I4193
sS'frosting'
p4173
I4194
sS'earthquake'
p4174
I4195
sS'wait'
p4175
I4196
sS'box'
p4176
I4197
sS'boy'
p4177
I4198
sS'bot'
p4178
I4199
sS'bow'
p4179
I4200
sS'simultaneous'
p4180
I4201
sS'boo'
p4181
I4202
sS'raccoon'
p4182
I4203
sS'boa'
p4183
I4204
sS'bob'
p4184
I4205
sS'nylon'
p4185
I3103
sS'bruised'
p4186
I4207
sS'massage'
p4187
I4208
sS'teenage'
p4188
I4209
sS'kayak'
p4189
I4210
sS'stiletto'
p4190
I4211
sS'lamppost'
p4191
I4212
sS'verge'
p4192
I4213
sS'everybody'
p4193
I3146
sS'lockers'
p4194
I4215
sS'stoops'
p4195
I4216
sS'dude'
p4196
I4217
sS'scenarios'
p4197
I3166
sS'creamy'
p4198
I4219
sS'somersault'
p4199
I4220
sS'creams'
p4200
I4221
sS'sharing'
p4201
I4222
sS'mouthing'
p4202
I4223
sS'downing'
p4203
I3206
sS'olive'
p4204
I4225
sS'effort'
p4205
I4226
sS'blinds'
p4206
I743
sS'capturing'
p4207
I4228
sS'fly'
p4208
I4229
sS'walled'
p4209
I3222
sS'deformed'
p4210
I4231
sS'avoiding'
p4211
I4232
sS'androgynous'
p4212
I4233
sS'wallet'
p4213
I3247
sS'drags'
p4214
I4235
sS'growing'
p4215
I4236
sS'making'
p4216
I4237
sS'bites'
p4217
I4239
sS'crazy'
p4218
I4240
sS'confused'
p4219
I4241
sS'agent'
p4220
I4242
sS'drawer'
p4221
I4243
sS'battered'
p4222
I4244
sS'whirls'
p4223
I4245
sS'pink'
p4224
I4246
sS'tilt'
p4225
I4248
sS'necklaces'
p4226
I4249
sS'ping'
p4227
I4250
sS'till'
p4228
I4251
sS'emotionless'
p4229
I4252
sS'skater'
p4230
I4253
sS'skates'
p4231
I4254
sS'tile'
p4232
I4255
sS'happens'
p4233
I5524
sS'pathway'
p4234
I4256
sS'map'
p4235
I4257
sS'staying'
p4236
I4258
sS'designer'
p4237
I4259
sS'mat'
p4238
I4260
sS'may'
p4239
I3346
sS'max'
p4240
I4262
sS'mad'
p4241
I3364
sS'mocks'
p4242
I4265
sS'tablecloth'
p4243
I4266
sS'guys'
p4244
I4267
sS'grow'
p4245
I4268
sS'jellyfish'
p4246
I3376
sS'scrambling'
p4247
I4270
sS'neck'
p4248
I4271
sS'tale'
p4249
I3398
sS'switch'
p4250
I4273
sS'jail'
p4251
I4274
sS'african'
p4252
I4275
sS'thorns'
p4253
I2860
sS'tall'
p4254
I4277
sS'talk'
p4255
I3421
sS'cute'
p4256
I4279
sS'shoes'
p4257
I3430
sS'pointed'
p4258
I4281
sS'cuts'
p4259
I3056
sS'marshmallows'
p4260
I4283
sS'pointer'
p4261
I4284
sS'group'
p4262
I4285
sS'monitor'
p4263
I4286
sS'interesting'
p4264
I4287
sS'yorkshire'
p4265
I4288
sS'maid'
p4266
I4289
sS'listing'
p4267
I4290
sS'mail'
p4268
I4291
sS'main'
p4269
I4292
sS'piglets'
p4270
I4293
sS'views'
p4271
I4294
sS'killer'
p4272
I4295
sS'boats'
p4273
I4296
sS'touching'
p4274
I4297
sS'markings'
p4275
I4298
sS'rattles'
p4276
I4299
sS'arrows'
p4277
I4300
sS'rock'
p4278
I4301
sS'showcasing'
p4279
I4302
sS'elephants'
p4280
I4303
sS'treacherous'
p4281
I4304
sS'unlock'
p4282
I4305
sS'girl'
p4283
I4306
sS'pucks'
p4284
I4307
sS'emerges'
p4285
I3638
sS'jackson'
p4286
I4309
sS'ymca'
p4287
I4310
sS'correct'
p4288
I4311
sS'monster'
p4289
I4312
sS'sideways'
p4290
I4313
sS'pumping'
p4291
I3697
sS'spies'
p4292
I4315
sS'vinyl'
p4293
I4316
sS'headband'
p4294
I4317
sS'underwear'
p4295
I4318
sS'carnival'
p4296
I4319
sS'waiter'
p4297
I4320
sS'headphones'
p4298
I4321
sS'contented'
p4299
I4322
sS'thing'
p4300
I4323
sS'blacksmith'
p4301
I4324
sS'think'
p4302
I4325
sS'first'
p4303
I4326
sS'cheese'
p4304
I4327
sS'fleeing'
p4305
I4328
sS'question'
p4306
I7043
sS'gargling'
p4307
I4330
sS'crib'
p4308
I4331
sS'signifies'
p4309
I3143
sS'suspended'
p4310
I4333
sS'carry'
p4311
I4334
sS'little'
p4312
I4335
sS'meaningful'
p4313
I4336
sS'slept'
p4314
I4337
sS'nipped'
p4315
I1967
sS'fiery'
p4316
I4339
sS'speaking'
p4317
I3856
sS'caresses'
p4318
I3168
sS'eyes'
p4319
I4342
sS'massaged'
p4320
I4343
sS'buts'
p4321
I4344
sS'eyed'
p4322
I4345
sS'butt'
p4323
I4346
sS'bobs'
p4324
I4347
sS'10'
p4325
I4348
sS'cracks'
p4326
I4349
sS'sailing'
p4327
I4350
sS'19'
p4328
I4351
sS'scraping'
p4329
I4352
sS'knives'
p4330
I4353
sS'were'
p4331
I4354
sS'tractor'
p4332
I4355
sS'gathering'
p4333
I4356
sS'lick'
p4334
I4357
sS'marijuana'
p4335
I4358
sS'winding'
p4336
I4359
sS'camouflages'
p4337
I3980
sS'pastry'
p4338
I4361
sS'mitts'
p4339
I4362
sS'salute'
p4340
I6637
sS'speakers'
p4341
I4363
sS'hooded'
p4342
I4364
sS'answering'
p4343
I4365
sS'shocked'
p4344
I4366
sS'squad'
p4345
I4367
sS'interior'
p4346
I4368
sS'performance'
p4347
I4369
sS'pranks'
p4348
I4370
sS'switching'
p4349
I4061
sS'channel'
p4350
I4372
sS'skinned'
p4351
I4373
sS'straightening'
p4352
I4374
sS'pail'
p4353
I4375
sS'normal'
p4354
I4376
sS'track'
p4355
I4377
sS'beta'
p4356
I4378
sS'sheets'
p4357
I4379
sS'pair'
p4358
I4380
sS'tugging'
p4359
I4381
sS'surprising'
p4360
I4382
sS'fills'
p4361
I4383
sS'wreathed'
p4362
I4384
sS'napkin'
p4363
I4385
sS'gracefully'
p4364
I4386
sS'order'
p4365
I4387
sS'stockings'
p4366
I4388
sS'unsteady'
p4367
I5739
sS'trotted'
p4368
I4390
sS'shop'
p4369
I4391
sS'shot'
p4370
I4392
sS'show'
p4371
I4393
sS'contemporary'
p4372
I4394
sS'drawings'
p4373
I4959
sS'glider'
p4374
I5966
sS'corner'
p4375
I4396
sS'curled'
p4376
I4397
sS'fend'
p4377
I4398
sS'dice'
p4378
I4399
sS'stormy'
p4379
I4400
sS'plume'
p4380
I4401
sS'enough'
p4381
I4602
sS'either'
p4382
I4403
sS'black'
p4383
I4404
sS'incredulous'
p4384
I4405
sS'defenders'
p4385
I4406
sS'plump'
p4386
I4407
sS'hippo'
p4387
I4408
sS'savoring'
p4388
I4409
sS'get'
p4389
I4410
sS'hostage'
p4390
I4411
sS'stomp'
p4391
I4412
sS'spraying'
p4392
I4413
sS'hailed'
p4393
I4414
sS'nearly'
p4394
I4415
sS'enjoys'
p4395
I765
sS'keyboards'
p4396
I4417
sS'morning'
p4397
I4418
sS'stupid'
p4398
I4419
sS'finishing'
p4399
I4420
sS'silently'
p4400
I4421
sS'seat'
p4401
I4423
sS'cocktails'
p4402
I4424
sS'seal'
p4403
I4425
sS'wonder'
p4404
I4426
sS'camping'
p4405
I4427
sS'ornament'
p4406
I4428
sS'label'
p4407
I4429
sS'pump'
p4408
I4430
sS'chimpanzees'
p4409
I4431
sS'chews'
p4410
I4432
sS'geometric'
p4411
I4433
sS'reading'
p4412
I4434
sS'checks'
p4413
I2122
sS'tux'
p4414
I4436
sS'parent'
p4415
I4437
sS'killing'
p4416
I4438
sS'tum'
p4417
I4439
sS'singers'
p4418
I4440
sS'tub'
p4419
I4441
sS'tug'
p4420
I4442
sS'bopping'
p4421
I4443
sS'rugby'
p4422
I4444
sS'tuck'
p4423
I4445
sS'trades'
p4424
I4446
sS'according'
p4425
I4447
sS'restroom'
p4426
I4448
sS'disappointment'
p4427
I4449
sS'reigns'
p4428
I774
sS'holders'
p4429
I4451
sS'among'
p4430
I4452
sS'stretches'
p4431
I4453
sS'stretcher'
p4432
I4454
sS'stretched'
p4433
I4455
sS'pacifier'
p4434
I4456
sS'arts'
p4435
I4457
sS'caricature'
p4436
I4458
sS'tuning'
p4437
I4459
sS'undershirt'
p4438
I4460
sS'mark'
p4439
I4461
sS'attaching'
p4440
I4462
sS'shopping'
p4441
I4463
sS'graveyard'
p4442
I4464
sS'offered'
p4443
I4465
sS'gripped'
p4444
I4644
sS'spills'
p4445
I4467
sS'wake'
p4446
I4468
sS'chickens'
p4447
I6981
sS'those'
p4448
I4469
sS'sound'
p4449
I4470
sS'stacked'
p4450
I4471
sS'turtles'
p4451
I4472
sS'romping'
p4452
I4473
sS'profiles'
p4453
I4474
sS"n't"
p4454
I4475
sS'ignition'
p4455
I4476
sS'coco'
p4456
I4477
sS'investigating'
p4457
I4478
sS'slapping'
p4458
I4479
sS'cock'
p4459
I4480
sS'eventually'
p4460
I4481
sS'rubbing'
p4461
I4482
sS'coffee'
p4462
I4483
sS'sleeping'
p4463
I4484
sS'middle'
p4464
I4485
sS'pressing'
p4465
I4486
sS'dangerously'
p4466
I4487
sS'movements'
p4467
I4488
sS'bags'
p4468
I4489
sS'different'
p4469
I4490
sS'pat'
p4470
I4491
sS'harsh'
p4471
I4492
sS'doctor'
p4472
I4493
sS'pay'
p4473
I4494
sS'woodland'
p4474
I4495
sS'same'
p4475
I4496
sS'wizards'
p4476
I4497
sS'speech'
p4477
I4798
sS'jerking'
p4478
I4499
sS'stepped'
p4479
I4500
sS'pan'
p4480
I4501
sS'meaningfully'
p4481
I4502
sS'exhaust'
p4482
I4503
sS'extended'
p4483
I4504
sS'flexes'
p4484
I4505
sS'seagulls'
p4485
I4506
sS'companion'
p4486
I4507
sS'running'
p4487
I4508
sS'stairwell'
p4488
I4509
sS'climbing'
p4489
I4510
sS'weave'
p4490
I4511
sS'ruffling'
p4491
I4512
sS'roughly'
p4492
I4513
sS'bottle'
p4493
I4514
sS'bumping'
p4494
I4515
sS'amazed'
p4495
I4516
sS'outdoor'
p4496
I4517
sS'money'
p4497
I4518
sS'flotation'
p4498
I5754
sS'sights'
p4499
I4519
sS'dipped'
p4500
I4520
sS'pups'
p4501
I4521
sS'pile'
p4502
I4522
sS'4'
I4523
sS'bread'
p4503
I2004
sS'pill'
p4504
I4525
sS'grip'
p4505
I4526
sS'mop'
p4506
I4527
sS'chainsaw'
p4507
I4528
sS'luring'
p4508
I4529
sS'grid'
p4509
I4530
sS'mom'
p4510
I4531
sS'railroad'
p4511
I4532
sS'aiming'
p4512
I4533
sS'disappointed'
p4513
I5042
sS'grim'
p4514
I4535
sS'grin'
p4515
I4536
sS'fondling'
p4516
I4537
sS'vending'
p4517
I4538
sS'adams'
p4518
I4539
sS'serves'
p4519
I4540
sS'lightning'
p4520
I4541
sS'facing'
p4521
I4542
sS'audience'
p4522
I4543
sS'laughing'
p4523
I971
sS'robbery'
p4524
I4545
sS'served'
p4525
I4546
sS'passionate'
p4526
I4547
sS'escalators'
p4527
I4548
sS'sneaker'
p4528
I4549
sS'doll'
p4529
I4550
sS'alternately'
p4530
I4551
sS'sneaked'
p4531
I4552
sS'images'
p4532
I4553
sS'pasture'
p4533
I4554
sS'gramophone'
p4534
I4555
sS'matching'
p4535
I4556
sS'outs'
p4536
I4557
sS'drenched'
p4537
I4558
sS'footing'
p4538
I5148
sS'overly'
p4539
I4560
sS'boat'
p4540
I793
sS'expressing'
p4541
I4562
sS'linoleum'
p4542
I5167
sS'knife'
p4543
I5170
sS'measuring'
p4544
I4565
sS'seconds'
p4545
I4566
sS'each'
p4546
I5763
sS'unusual'
p4547
I4568
sS'broken'
p4548
I4569
sS'drums'
p4549
I4570
sS'giggle'
p4550
I4571
sS'conducting'
p4551
I4572
sS'tease'
p4552
I4573
sS'roar'
p4553
I4574
sS'smear'
p4554
I5223
sS'fringe'
p4555
I4576
sS'develops'
p4556
I2911
sS'mixer'
p4557
I4578
sS'mixes'
p4558
I4579
sS'pockets'
p4559
I4580
sS'mounting'
p4560
I4581
sS'mixed'
p4561
I4582
sS'road'
p4562
I4583
sS'quietly'
p4563
I4584
sS'lands'
p4564
I4585
sS'whites'
p4565
I4586
sS'spreading'
p4566
I4587
sS'skilled'
p4567
I4588
sS'splint'
p4568
I4589
sS'harness'
p4569
I4590
sS'imitates'
p4570
I4591
sS'strip'
p4571
I5291
sS'annoys'
p4572
I4593
sS'shells'
p4573
I4594
sS'trapeze'
p4574
I4595
sS'distracted'
p4575
I4596
sS'styling'
p4576
I4597
sS'handcuffed'
p4577
I4598
sS'lions'
p4578
I4599
sS'earphones'
p4579
I3200
sS'pretends'
p4580
I4601
sS'strikes'
p4581
I4603
sS'wiping'
p4582
I4605
sS'staircases'
p4583
I4606
sS'walkway'
p4584
I4607
sS'overhangs'
p4585
I4608
sS'shrugs'
p4586
I4609
sS'downstairs'
p4587
I4610
sS'swabs'
p4588
I4611
sS'arranged'
p4589
I4612
sS'strawberry'
p4590
I4613
sS'peeking'
p4591
I4614
sS'dvd'
p4592
I1600
sS'grouch'
p4593
I4616
sS'affection'
p4594
I4617
sS'juggling'
p4595
I5772
sS'videos'
p4596
I4619
sS'deer'
p4597
I4620
sS'deep'
p4598
I4621
sS'fellow'
p4599
I4622
sS'grasped'
p4600
I4623
sS'file'
p4601
I4624
sS'girlfriend'
p4602
I4625
sS'cables'
p4603
I4626
sS'fill'
p4604
I4627
sS'again'
p4605
I4628
sS'pensive'
p4606
I4629
sS'personnel'
p4607
I4630
sS'drivers'
p4608
I4631
sS'field'
p4609
I4632
sS'astronaut'
p4610
I4633
sS'rollerblading'
p4611
I4634
sS'outfield'
p4612
I4635
sS'complected'
p4613
I4636
sS'shelter'
p4614
I4637
sS'important'
p4615
I4638
sS'tackle'
p4616
I4639
sS'dunked'
p4617
I4640
sS'revolve'
p4618
I4641
sS'awkwardly'
p4619
I4642
sS'sicks'
p4620
I4643
sS'laptops'
p4621
I4466
sS'remote'
p4622
I4645
sS'photos'
p4623
I4646
sS'casts'
p4624
I4647
sS'wets'
p4625
I4648
sS'tightened'
p4626
I4649
sS'resembles'
p4627
I4650
sS'husky'
p4628
I4651
sS'starting'
p4629
I4653
sS'growling'
p4630
I4654
sS'lapped'
p4631
I4655
sS'sighing'
p4632
I5783
sS'dollar'
p4633
I4657
sS'talks'
p4634
I4658
sS'expressions'
p4635
I4659
sS'children'
p4636
I4660
sS'reluctant'
p4637
I4661
sS'shredding'
p4638
I4662
sS'crimson'
p4639
I4664
sS'enjoying'
p4640
I4665
sS'puffs'
p4641
I4666
sS'premium'
p4642
I4667
sS'parcel'
p4643
I4668
sS'returning'
p4644
I4669
sS'puffy'
p4645
I4670
sS'clench'
p4646
I2602
sS'squirted'
p4647
I4672
sS'washing'
p4648
I4673
sS'mothers'
p4649
I4674
sS'skeletal'
p4650
I4675
sS'celebrity'
p4651
I4676
sS'disused'
p4652
I4677
sS'neighborhood'
p4653
I4678
sS'portable'
p4654
I4679
sS'crashes'
p4655
I7254
sS'grasshopper'
p4656
I4680
sS'grabs'
p4657
I4681
sS'endures'
p4658
I4682
sS'knitted'
p4659
I4683
sS'burger'
p4660
I4684
sS'zero'
p4661
I4685
sS'perspective'
p4662
I4686
sS'further'
p4663
I4687
sS'ribbon'
p4664
I4688
sS'creatures'
p4665
I4689
sS'residue'
p4666
I4690
sS'dial'
p4667
I4691
sS'stood'
p4668
I4692
sS'sweetly'
p4669
I4693
sS'wrecked'
p4670
I4694
sS'stool'
p4671
I4695
sS'overshot'
p4672
I4696
sS'exasperation'
p4673
I4697
sS'abs'
p4674
I4698
sS'everlasting'
p4675
I4699
sS'public'
p4676
I4700
sS'movement'
p4677
I4701
sS'tattoos'
p4678
I4702
sS'lightnings'
p4679
I4703
sS'surfer'
p4680
I4704
sS'puddles'
p4681
I4705
sS'ranger'
p4682
I4706
sS'threads'
p4683
I4707
sS'affectionately'
p4684
I4708
sS'meowing'
p4685
I4709
sS'awakened'
p4686
I4710
sS'search'
p4687
I4711
sS'tortoise'
p4688
I4712
sS'stretching'
p4689
I4713
sS'scurry'
p4690
I4714
sS'sofas'
p4691
I4715
sS'airport'
p4692
I4716
sS'narrow'
p4693
I4717
sS'skids'
p4694
I4718
sS'splashes'
p4695
I5796
sS'fenced'
p4696
I3046
sS'clapping'
p4697
I4720
sS'emptied'
p4698
I4721
sS'hunching'
p4699
I4722
sS'forcibly'
p4700
I4723
sS'empties'
p4701
I4724
sS'rollover'
p4702
I4725
sS'armed'
p4703
I4726
sS'dachshund'
p4704
I4727
sS'eye'
p4705
I4728
sS'destination'
p4706
I4729
sS'two'
p4707
I4730
sS'comparing'
p4708
I4731
sS'splash'
p4709
I4732
sS'jive'
p4710
I4733
sS'raft'
p4711
I4734
sS'dunks'
p4712
I4735
sS'megaphone'
p4713
I4736
sS'wiper'
p4714
I4737
sS'wipes'
p4715
I4738
sS'pawing'
p4716
I4739
sS'diamond'
p4717
I4740
sS'engaged'
p4718
I4741
sS'chimpanzee'
p4719
I4742
sS'landed'
p4720
I4743
sS'controlling'
p4721
I4744
sS'nineteen'
p4722
I4745
sS'town'
p4723
I4746
sS'sucks'
p4724
I4747
sS'intercepted'
p4725
I4748
sS'dramatically'
p4726
I7107
sS'guards'
p4727
I4750
sS'remain'
p4728
I4751
sS'dazed'
p4729
I4752
sS'tows'
p4730
I4753
sS'shark'
p4731
I4754
sS'hamburger'
p4732
I4755
sS'synchronized'
p4733
I4756
sS'prods'
p4734
I4757
sS'share'
p4735
I4758
sS'collision'
p4736
I4759
sS'numbers'
p4737
I4760
sS'sharp'
p4738
I4761
sS'!'
I4762
sS'flinging'
p4739
I3221
sS'awkward'
p4740
I4764
sS'cocking'
p4741
I4765
sS'comfort'
p4742
I4766
sS'preening'
p4743
I4767
sS'automatic'
p4744
I5909
sS'stir'
p4745
I4768
sS'ensemble'
p4746
I4769
sS'frilly'
p4747
I4770
sS'blood'
p4748
I4771
sS'coming'
p4749
I4772
sS'response'
p4750
I4773
sS'hedgehogs'
p4751
I4774
sS'chute'
p4752
I4776
sS'crowded'
p4753
I4777
sS'coat'
p4754
I4778
sS'paw'
p4755
I4779
sS'eats'
p4756
I4780
sS'bathed'
p4757
I4781
sS'dragon'
p4758
I4782
sS'deserted'
p4759
I4783
sS'redirecting'
p4760
I4784
sS'playing'
p4761
I4785
sS'infant'
p4762
I4786
sS'rifles'
p4763
I4787
sS'winged'
p4764
I4788
sS'already'
p4765
I5808
sS'through'
p4766
I4790
sS'lava'
p4767
I4791
sS'sleepily'
p4768
I4792
sS'clumsily'
p4769
I4793
sS'golfing'
p4770
I4794
sS'20'
p4771
I4795
sS'late'
p4772
I4796
sS'messes'
p4773
I4797
sS'pad'
p4774
I4498
sS'upping'
p4775
I4799
sS'crawls'
p4776
I4800
sS'dolls'
p4777
I4801
sS'goof'
p4778
I4802
sS'good'
p4779
I4803
sS'males'
p4780
I4804
sS'noticing'
p4781
I4805
sS'bandages'
p4782
I5811
sS'walls'
p4783
I4807
sS'struggling'
p4784
I4808
sS'easily'
p4785
I4809
sS'huddle'
p4786
I4810
sS'pregnant'
p4787
I4811
sS'fluttered'
p4788
I4812
sS'micro'
p4789
I4813
sS'goofy'
p4790
I4814
sS'gender'
p4791
I4815
sS'biscuits'
p4792
I4816
sS'clamp'
p4793
I4817
sS'nuzzle'
p4794
I4818
sS'harm'
p4795
I4819
sS'dumbbells'
p4796
I4820
sS'another'
p4797
I2045
sS'house'
p4798
I4822
sS'energy'
p4799
I4823
sS'hard'
p4800
I4824
sS'beret'
p4801
I4825
sS'foxes'
p4802
I4826
sS'engaging'
p4803
I4827
sS'wiggling'
p4804
I4828
sS'fist'
p4805
I4829
sS'backpacks'
p4806
I4830
sS'thick'
p4807
I4831
sS'flower'
p4808
I4832
sS'pigeon'
p4809
I4833
sS'projected'
p4810
I4834
sS'acting'
p4811
I4835
sS'print'
p4812
I4836
sS'jacketed'
p4813
I4837
sS'foreground'
p4814
I4838
sS'devours'
p4815
I4839
sS'crouched'
p4816
I4840
sS'squished'
p4817
I4841
sS'bulls'
p4818
I4842
sS'difficulty'
p4819
I4843
sS'members'
p4820
I4844
sS'beginning'
p4821
I4845
sS'squishes'
p4822
I4846
sS'faucet'
p4823
I4847
sS'throwers'
p4824
I4848
sS'computers'
p4825
I4849
sS'snowbank'
p4826
I4850
sS'dribbles'
p4827
I4851
sS'embraces'
p4828
I4852
sS'stabs'
p4829
I4853
sS'mistakenly'
p4830
I4854
sS'jogs'
p4831
I4855
sS'instances'
p4832
I4856
sS'slithers'
p4833
I4857
sS'done'
p4834
I4858
sS'embraced'
p4835
I4859
sS'shoal'
p4836
I4860
sS'campground'
p4837
I4861
sS'gripping'
p4838
I7125
sS'cups'
p4839
I4863
sS'razor'
p4840
I4864
sS'bloodied'
p4841
I4865
sS'twenty'
p4842
I4866
sS'jetty'
p4843
I4867
sS'paint'
p4844
I4868
sS'leash'
p4845
I4869
sS'compartment'
p4846
I4870
sS'lease'
p4847
I4871
sS'muscles'
p4848
I4872
sS'drapes'
p4849
I4873
sS'needle'
p4850
I4874
sS'park'
p4851
I4875
sS'draped'
p4852
I4876
sS'dentist'
p4853
I4877
sS'scantily'
p4854
I4878
sS'muscled'
p4855
I4879
sS'doctors'
p4856
I4880
sS'stirs'
p4857
I4881
sS'peaked'
p4858
I4882
sS'b'
I4883
sS'fold'
p4859
I7129
sS'plateaus'
p4860
I4884
sS'youth'
p4861
I4885
sS'hurdling'
p4862
I4886
sS'polishing'
p4863
I4887
sS'swerve'
p4864
I4888
sS'bassinet'
p4865
I4889
sS'ages'
p4866
I4890
sS'awoken'
p4867
I4891
sS'piggybacks'
p4868
I4892
sS'smirking'
p4869
I4893
sS'showers'
p4870
I4894
sS'aged'
p4871
I4895
sS'fading'
p4872
I4896
sS'backseat'
p4873
I4897
sS'mountain'
p4874
I4898
sS'cardigan'
p4875
I4899
sS'built'
p4876
I4900
sS'dancing'
p4877
I4901
sS'pinkie'
p4878
I4902
sS'couch'
p4879
I4903
sS'flares'
p4880
I4904
sS'lifts'
p4881
I4905
sS'sweatshirts'
p4882
I4906
sS'eggs'
p4883
I4907
sS'flute'
p4884
I4908
sS'salmon'
p4885
I4909
sS'took'
p4886
I5830
sS'poke'
p4887
I3244
sS'charm'
p4888
I4912
sS'eskimo'
p4889
I4913
sS'extremely'
p4890
I4914
sS'refrigerator'
p4891
I4915
sS'giggling'
p4892
I4916
sS'chested'
p4893
I4917
sS'drifts'
p4894
I4918
sS'weigh'
p4895
I4919
sS'dodging'
p4896
I4920
sS'fins'
p4897
I4921
sS'hugging'
p4898
I4922
sS'perches'
p4899
I4923
sS'hillside'
p4900
I4924
sS'crocheted'
p4901
I4925
sS'carefully'
p4902
I1718
sS'chock'
p4903
I4927
sS'find'
p4904
I4928
sS'giant'
p4905
I4929
sS'sluggishly'
p4906
I4930
sS'nervous'
p4907
I4931
sS'ruin'
p4908
I4932
sS'unhappy'
p4909
I4933
sS'8'
I4934
sS'express'
p4910
I4935
sS'ferret'
p4911
I4936
sS'batter'
p4912
I4937
sS'silk'
p4913
I4938
sS'sill'
p4914
I4939
sS'spikes'
p4915
I4940
sS'motorcycles'
p4916
I4941
sS'tracksuit'
p4917
I4942
sS'collapsed'
p4918
I4371
sS'remove'
p4919
I4943
sS'coughs'
p4920
I4944
sS'spiked'
p4921
I4945
sS'witches'
p4922
I4946
sS'scruffy'
p4923
I4947
sS'lion'
p4924
I4948
sS'individual'
p4925
I4949
sS'tender'
p4926
I4950
sS'gaily'
p4927
I7138
sS'fans'
p4928
I4952
sS'distraught'
p4929
I4953
sS'cutout'
p4930
I4954
sS'champagne'
p4931
I4955
sS'mailbox'
p4932
I4956
sS'vanishing'
p4933
I4957
sS'pepsi'
p4934
I4958
sS'prams'
p4935
I4960
sS'floats'
p4936
I4961
sS'cubes'
p4937
I4962
sS'folding'
p4938
I4963
sS'reverse'
p4939
I4964
sS'restaurant'
p4940
I4965
sS'tipping'
p4941
I4966
sS'foreign'
p4942
I4967
sS'sparring'
p4943
I4968
sS'afar'
p4944
I4969
sS'cakes'
p4945
I4970
sS'danced'
p4946
I4971
sS'point'
p4947
I4972
sS'newborn'
p4948
I4973
sS'panicking'
p4949
I4974
sS'dances'
p4950
I4975
sS'dancer'
p4951
I4976
sS'unsuccessful'
p4952
I4977
sS'expensive'
p4953
I4978
sS'patiently'
p4954
I4979
sS'platinum'
p4955
I4980
sS'weaving'
p4956
I4981
sS'raise'
p4957
I4982
sS'create'
p4958
I4983
sS'cowers'
p4959
I4984
sS'secret'
p4960
I4985
sS'dropping'
p4961
I4986
sS'peppers'
p4962
I4987
sS'meeting'
p4963
I4988
sS'slips'
p4964
I4989
sS'cyclist'
p4965
I7145
sS'vans'
p4966
I4991
sS'gas'
p4967
I4992
sS'gap'
p4968
I4993
sS'understand'
p4969
I4994
sS'gag'
p4970
I4995
sS'fut'
p4971
I4996
sS'fur'
p4972
I4997
sS'grains'
p4973
I4998
sS'talking'
p4974
I5844
sS'bill'
p4975
I5000
sS'eclipsed'
p4976
I5001
sS'crutch'
p4977
I5002
sS'fun'
p4978
I5003
sS'adjusts'
p4979
I7147
sS'violently'
p4980
I5005
sS'decoration'
p4981
I5006
sS'itself'
p4982
I5007
sS'truncheon'
p4983
I5008
sS'primping'
p4984
I5009
sS'seduce'
p4985
I5010
sS'stilettos'
p4986
I5011
sS'copying'
p4987
I5012
sS'ray'
p4988
I5851
sS'windmill'
p4989
I5014
sS'strips'
p4990
I5015
sS'keys'
p4991
I5016
sS'stripy'
p4992
I5017
sS'leopard'
p4993
I5018
sS'desks'
p4994
I5019
sS'moment'
p4995
I165
sS'stripe'
p4996
I5021
sS'wheelchairs'
p4997
I5022
sS'sandals'
p4998
I5023
sS'lacrosse'
p4999
I5025
sS'sumo'
p5000
I856
sS'beanie'
p5001
I5027
sS'swish'
p5002
I5028
sS'werewolf'
p5003
I5029
sS'flags'
p5004
I5030
sS'nordic'
p5005
I5031
sS'y'
I5032
sS'chemistry'
p5006
I5033
sS'howl'
p5007
I5034
sS'eyeglasses'
p5008
I5035
sS'shape'
p5009
I5036
sS'circling'
p5010
I5037
sS'timber'
p5011
I284
sS'letting'
p5012
I5039
sS'cut'
p5013
I5040
sS'cup'
p5014
I5041
sS'blankets'
p5015
I4534
sS'shouting'
p5016
I5043
sS'cue'
p5017
I5044
sS'deliberately'
p5018
I5045
sS'cub'
p5019
I5046
sS'wags'
p5020
I5047
sS'snap'
p5021
I5048
sS'bridal'
p5022
I5049
sS'excited'
p5023
I5050
sS'ridiculously'
p5024
I5051
sS'big'
p5025
I5052
sS'jerked'
p5026
I5053
sS'bib'
p5027
I5054
sS'bit'
p5028
I5055
sS'salutes'
p5029
I5056
sS'knock'
p5030
I5057
sS'semi'
p5031
I5058
sS'follows'
p5032
I5059
sS'disks'
p5033
I5060
sS'glove'
p5034
I5061
sS'banknotes'
p5035
I5062
sS'bamboo'
p5036
I5063
sS'walrus'
p5037
I5064
sS'humorous'
p5038
I5065
sS'inching'
p5039
I5066
sS'back'
p5040
I5067
sS'martial'
p5041
I5068
sS'ornaments'
p5042
I5069
sS'mirror'
p5043
I5070
sS'candle'
p5044
I5071
sS'minefield'
p5045
I5072
sS'jewelry'
p5046
I5073
sS'pet'
p5047
I5074
sS'pep'
p5048
I5075
sS'pen'
p5049
I5076
sS'sneakers'
p5050
I5077
sS'gallops'
p5051
I5078
sS'nose'
p5052
I5079
sS'cameraman'
p5053
I5080
sS'patient'
p5054
I5081
sS'rapping'
p5055
I5082
sS'continuing'
p5056
I5083
sS'costumes'
p5057
I5084
sS'lounges'
p5058
I5085
sS'stomps'
p5059
I5086
sS'costumed'
p5060
I5087
sS'tripping'
p5061
I5088
sS'goods'
p5062
I5090
sS'graduation'
p5063
I5091
sS'piled'
p5064
I5092
sS'slams'
p5065
I5093
sS'framed'
p5066
I5095
sS'frog'
p5067
I7171
sS'frames'
p5068
I5097
sS'downhill'
p5069
I5098
sS'jockey'
p5070
I5099
sS'grub'
p5071
I5100
sS'batons'
p5072
I5101
sS'homemade'
p5073
I5102
sS'forward'
p5074
I5103
sS'bored'
p5075
I5104
sS'opponent'
p5076
I5105
sS'adjusting'
p5077
I5106
sS'boys'
p5078
I5107
sS'calico'
p5079
I5108
sS'planet'
p5080
I5109
sS"'re"
p5081
I5110
sS'planes'
p5082
I5111
sS'groove'
p5083
I5112
sS'skittish'
p5084
I5113
sS'geese'
p5085
I5114
sS'stripped'
p5086
I801
sS'beckoning'
p5087
I5116
sS'single'
p5088
I5117
sS'curb'
p5089
I5118
sS'necks'
p5090
I5119
sS'underbellies'
p5091
I5120
sS'cafe'
p5092
I5121
sS'stripper'
p5093
I5123
sS'inchworm'
p5094
I5124
sS'pecks'
p5095
I5125
sS'bubblegum'
p5096
I5126
sS'pails'
p5097
I5127
sS'kirk'
p5098
I5128
sS'dimmer'
p5099
I5129
sS'scurrying'
p5100
I5130
sS'mayonnaise'
p5101
I5131
sS'brushing'
p5102
I5132
sS'explaining'
p5103
I5133
sS'cellar'
p5104
I5134
sS'firetruck'
p5105
I5135
sS'lens'
p5106
I5136
sS'fishes'
p5107
I5137
sS'desert'
p5108
I5138
sS'wristband'
p5109
I5139
sS'overlooking'
p5110
I5140
sS'cooker'
p5111
I5141
sS'blinks'
p5112
I5142
sS'admiring'
p5113
I5143
sS'cooked'
p5114
I5144
sS'presenting'
p5115
I5145
sS'amuses'
p5116
I5146
sS'stroller'
p5117
I5147
sS'amplifier'
p5118
I5149
sS'groceries'
p5119
I5150
sS'snowmobile'
p5120
I5151
sS'golfer'
p5121
I5152
sS'mitten'
p5122
I5153
sS'gyrates'
p5123
I5154
sS'peanut'
p5124
I5155
sS'mower'
p5125
I5156
sS'helps'
p5126
I5157
sS'mowed'
p5127
I5158
sS'gravel'
p5128
I5159
sS'inject'
p5129
I5160
sS'sequins'
p5130
I5161
sS'dessert'
p5131
I5162
sS'huddled'
p5132
I5163
sS'putting'
p5133
I5164
sS'splattering'
p5134
I5165
sS'entire'
p5135
I5166
sS'doggy'
p5136
I4563
sS'knight'
p5137
I5168
sS'shock'
p5138
I5169
sS'drenches'
p5139
I4564
sS'lapse'
p5140
I5171
sS'crow'
p5141
I5172
sS'uncomfortably'
p5142
I5173
sS'mural'
p5143
I5174
sS'uncomfortable'
p5144
I5175
sS'retracting'
p5145
I5176
sS'wiggled'
p5146
I5177
sS'giving'
p5147
I5178
sS'pipes'
p5148
I5179
sS'wiggles'
p5149
I5180
sS'clipboard'
p5150
I5181
sS'exercise'
p5151
I5182
sS'3d'
p5152
I5183
sS'body'
p5153
I5184
sS'sharks'
p5154
I5185
sS'exchange'
p5155
I5186
sS'baring'
p5156
I5187
sS'nimble'
p5157
I5188
sS'packing'
p5158
I5189
sS'objects'
p5159
I5190
sS'sink'
p5160
I5191
sS'others'
p5161
I5192
sS'sing'
p5162
I5193
sS'pantomimes'
p5163
I5194
sS'stalks'
p5164
I5196
sS'drank'
p5165
I1727
sS'30'
p5166
I5198
sS'climb'
p5167
I5199
sS'blizzard'
p5168
I5201
sS'private'
p5169
I5202
sS'beanstalk'
p5170
I5203
sS'oval'
p5171
I5122
sS'gateway'
p5172
I5205
sS'lime'
p5173
I5206
sS'humidifier'
p5174
I5207
sS'raps'
p5175
I7192
sS'debbie'
p5176
I5209
sS'butler'
p5177
I5210
sS'themselves'
p5178
I5211
sS'excitedly'
p5179
I4238
sS'trail'
p5180
I5213
sS'train'
p5181
I5214
sS'armadillo'
p5182
I5215
sS'arranging'
p5183
I5216
sS'billed'
p5184
I5217
sS'tearing'
p5185
I5218
sS'fooling'
p5186
I5219
sS'f'
I5220
sS'tunnel'
p5187
I5221
sS'tag'
p5188
I7194
sS'island'
p5189
I4575
sS'closing'
p5190
I5224
sS'fetch'
p5191
I5225
sS'unpacking'
p5192
I5226
sS'snacks'
p5193
I5227
sS'sanding'
p5194
I5228
sS'exclaims'
p5195
I5229
sS'bones'
p5196
I5230
sS'hoardings'
p5197
I5231
sS'hangar'
p5198
I5232
sS'lamb'
p5199
I5233
sS'curving'
p5200
I5234
sS'regains'
p5201
I5235
sS'noises'
p5202
I5236
sS'boxing'
p5203
I1558
sS'grimaces'
p5204
I5238
sS'formations'
p5205
I5239
sS'lamp'
p5206
I5240
sS'forest'
p5207
I5241
sS'revs'
p5208
I5242
sS'nips'
p5209
I5243
sS'onlookers'
p5210
I5244
sS'buildings'
p5211
I5245
sS'railings'
p5212
I5246
sS'waters'
p5213
I5247
sS'collection'
p5214
I5248
sS'terrier'
p5215
I5249
sS'tracksuits'
p5216
I5250
sS'cuddling'
p5217
I5251
sS'drape'
p5218
I5252
sS'chasing'
p5219
I5253
sS'platypus'
p5220
I5254
sS'liner'
p5221
I5255
sS'trembling'
p5222
I5256
sS'minivan'
p5223
I5257
sS'furious'
p5224
I5258
sS'lined'
p5225
I5259
sS'unmade'
p5226
I5260
sS'mustache'
p5227
I5261
sS'symbols'
p5228
I5263
sS'hugged'
p5229
I5264
sS'horns'
p5230
I5265
sS'flattering'
p5231
I5266
sS'kneeing'
p5232
I5267
sS'bunch'
p5233
I5268
sS'bridges'
p5234
I5269
sS'twirls'
p5235
I5270
sS'burning'
p5236
I5271
sS'll'
p5237
I5272
sS'pugs'
p5238
I1724
sS'squatting'
p5239
I5274
sS'dad'
p5240
I5275
sS'tickled'
p5241
I5276
sS'spell'
p5242
I5277
sS'cutting'
p5243
I5278
sS'tickles'
p5244
I5279
sS'hairdryers'
p5245
I5280
sS'day'
p5246
I5281
sS'flail'
p5247
I1779
sS'blindfolded'
p5248
I5283
sS'reloading'
p5249
I5284
sS'slipping'
p5250
I5285
sS'lingerie'
p5251
I5286
sS'tubing'
p5252
I5287
sS'gazing'
p5253
I5288
sS'flair'
p5254
I5289
sS'activate'
p5255
I5290
sS'dreaming'
p5256
I4592
sS'winked'
p5257
I5292
sS'hurdles'
p5258
I7210
sS'slumped'
p5259
I5294
sS'sweatshirt'
p5260
I5295
sS'sexual'
p5261
I5296
sS'popping'
p5262
I5297
sS'hippopotamus'
p5263
I5298
sS'mats'
p5264
I5299
sS'announcer'
p5265
I5300
sS'defend'
p5266
I5301
sS'rev'
p5267
I5302
sS'mate'
p5268
I5303
sS'oriental'
p5269
I5304
sS'flushing'
p5270
I5305
sS'wincing'
p5271
I1883
sS'affirming'
p5272
I5307
sS'approached'
p5273
I5308
sS'approaches'
p5274
I5309
sS'retrieves'
p5275
I5310
sS'retriever'
p5276
I5311
sS'backwards'
p5277
I5312
sS'yard'
p5278
I5313
sS'mortar'
p5279
I5314
sS'recipes'
p5280
I5315
sS'skateboard'
p5281
I5316
sS'yarn'
p5282
I5317
sS'mortal'
p5283
I5318
sS'barriers'
p5284
I5319
sS'unrolling'
p5285
I5320
sS'overshoot'
p5286
I5321
sS'sack'
p5287
I5322
sS'puppet'
p5288
I5323
sS'reached'
p5289
I5324
sS'braces'
p5290
I5325
sS'ancient'
p5291
I5326
sS'sadly'
p5292
I5327
sS'monkey'
p5293
I5328
sS'laps'
p5294
I5329
sS'pots'
p5295
I5330
sS'ripples'
p5296
I5331
sS'messing'
p5297
I5332
sS'nut'
p5298
I5912
sS'gear'
p5299
I5334
sS'bulldog'
p5300
I5335
sS'xylophone'
p5301
I5336
sS'motionless'
p5302
I5337
sS'mantelpiece'
p5303
I5338
sS'blazers'
p5304
I5339
sS'hen'
p5305
I5340
sS'ipad'
p5306
I5341
sS'lightening'
p5307
I5342
sS'glamorous'
p5308
I5343
sS'shampoo'
p5309
I5344
sS'flashed'
p5310
I5345
sS'loves'
p5311
I5346
sS'lover'
p5312
I5347
sS'flashes'
p5313
I5348
sS'nuzzling'
p5314
I5349
sS'wakes'
p5315
I5350
sS'curves'
p5316
I5351
sS'comfortable'
p5317
I5352
sS'patting'
p5318
I5353
sS'comfortably'
p5319
I5354
sS'have'
p5320
I5355
sS'throat'
p5321
I5356
sS'curved'
p5322
I5357
sS'apparently'
p5323
I5358
sS'acceleration'
p5324
I5359
sS'mic'
p5325
I5360
sS'gravity'
p5326
I2201
sS'parks'
p5327
I5362
sS'mix'
p5328
I5363
sS'crawling'
p5329
I7221
sS'mimics'
p5330
I5365
sS'eight'
p5331
I5366
sS'prisoner'
p5332
I2271
sS'stranded'
p5333
I5368
sS'absurd'
p5334
I5369
sS'skinny'
p5335
I5370
sS'planks'
p5336
I5371
sS'selection'
p5337
I2323
sS'kite'
p5338
I5373
sS'absorbing'
p5339
I5374
sS'text'
p5340
I5375
sS'rotating'
p5341
I5376
sS'gasping'
p5342
I5377
sS'sparks'
p5343
I5378
sS'scorpion'
p5344
I5379
sS'mug'
p5345
I5922
sS'controls'
p5346
I5381
sS'scuttling'
p5347
I5382
sS'prancing'
p5348
I5383
sS'emitting'
p5349
I5384
sS'finger'
p5350
I5923
sS'photographs'
p5351
I5386
sS'beat'
p5352
I5387
sS'photography'
p5353
I5388
sS'stripes'
p5354
I5389
sS'bear'
p5355
I5390
sS'beam'
p5356
I5391
sS'bean'
p5357
I5392
sS'beak'
p5358
I5394
sS'striped'
p5359
I5395
sS'areas'
p5360
I5397
sS'organ'
p5361
I5398
sS'ashtray'
p5362
I5399
sS'fixes'
p5363
I5400
sS'kilts'
p5364
I5401
sS'teams'
p5365
I2490
sS'mascara'
p5366
I5403
sS'tightening'
p5367
I5404
sS'fixed'
p5368
I5405
sS'puddle'
p5369
I5406
sS'outfielder'
p5370
I5407
sS'enhanced'
p5371
I5408
sS'racket'
p5372
I5409
sS'tuxedos'
p5373
I5410
sS'exploited'
p5374
I5411
sS'attempting'
p5375
I5412
sS'pattern'
p5376
I5413
sS'purses'
p5377
I5414
sS'hammock'
p5378
I5415
sS'patters'
p5379
I5416
sS'routine'
p5380
I5417
sS'progress'
p5381
I5418
sS'horizontally'
p5382
I5419
sS'suitcase'
p5383
I4615
sS'deliver'
p5384
I5420
sS'seagull'
p5385
I6172
sS'freely'
p5386
I5421
sS'taking'
p5387
I5422
sS'agree'
p5388
I5423
sS'busted'
p5389
I5424
sS'swallow'
p5390
I5425
sS'wear'
p5391
I5930
sS'vent'
p5392
I5427
sS'statues'
p5393
I5428
sS'denim'
p5394
I5430
sS'overcoat'
p5395
I5431
sS'teasing'
p5396
I5432
sS'gong'
p5397
I5433
sS'laugh'
p5398
I5434
sS'bespectacled'
p5399
I5435
sS'pouring'
p5400
I5436
sS'muddy'
p5401
I5437
sS'bumblebee'
p5402
I5438
sS'copies'
p5403
I5439
sS'gaze'
p5404
I5440
sS'teamwork'
p5405
I5441
sS'curtain'
p5406
I5442
sS'scribbling'
p5407
I5443
sS'antlers'
p5408
I5444
sS'perplexed'
p5409
I5445
sS'finishes'
p5410
I5446
sS'cop'
p5411
I2138
sS'airplanes'
p5412
I5448
sS'preforming'
p5413
I5449
sS'al'
p5414
I5450
sS'ridden'
p5415
I5451
sS'tenderly'
p5416
I5452
sS'angles'
p5417
I5453
sS'bull'
p5418
I5454
sS'bulb'
p5419
I5455
sS'homes'
p5420
I5456
sS'plaid'
p5421
I5457
sS'splits'
p5422
I5458
sS'plain'
p5423
I5459
sS'appearance'
p5424
I5460
sS'plait'
p5425
I5461
sS'almost'
p5426
I5462
sS'squid'
p5427
I5463
sS'helped'
p5428
I3213
sS'arrangements'
p5429
I5465
sS'haunches'
p5430
I5466
sS'watched'
p5431
I5467
sS'partner'
p5432
I5468
sS'superheroes'
p5433
I5469
sS'sequinned'
p5434
I7239
sS'whirl'
p5435
I5470
sS'exorcising'
p5436
I5471
sS'anorak'
p5437
I5472
sS'tumbling'
p5438
I5473
sS'tumbles'
p5439
I5474
sS'shuttle'
p5440
I5475
sS'injured'
p5441
I5476
sS'material'
p5442
I7241
sS'binoculars'
p5443
I5478
sS'flew'
p5444
I7242
sS'spitting'
p5445
I5480
sS'tighter'
p5446
I5481
sS'center'
p5447
I5482
sS'sweets'
p5448
I5483
sS'weapon'
p5449
I2971
sS'thought'
p5450
I5485
sS'snorkel'
p5451
I5486
sS'sets'
p5452
I5487
sS'position'
p5453
I5488
sS'con'
p5454
I2145
sS'arising'
p5455
I5490
sS'coaster'
p5456
I5491
sS'barking'
p5457
I5492
sS'proximity'
p5458
I5493
sS'domestic'
p5459
I5494
sS'stored'
p5460
I5495
sS'voltage'
p5461
I5496
sS'seats'
p5462
I5497
sS'protecting'
p5463
I5498
sS'seductively'
p5464
I5499
sS'hypocritically'
p5465
I5500
sS'flashlight'
p5466
I5501
sS'raves'
p5467
I5502
sS'tong'
p5468
I5503
sS'lake'
p5469
I5504
sS'bench'
p5470
I5505
sS'slits'
p5471
I5506
sS'match'
p5472
I3079
sS'raven'
p5473
I5508
sS'unplugging'
p5474
I5509
sS'molding'
p5475
I5510
sS'dryer'
p5476
I5511
sS'flamingo'
p5477
I5512
sS'sofa'
p5478
I3131
sS'journalist'
p5479
I5514
sS'chick'
p5480
I5515
sS'works'
p5481
I5516
sS'soft'
p5482
I5517
sS'heel'
p5483
I3156
sS'crazily'
p5484
I5519
sS'alive'
p5485
I5520
sS'hair'
p5486
I5521
sS'goaltender'
p5487
I5522
sS'stuffs'
p5488
I5523
sS'shrug'
p5489
I103
sS'foosball'
p5490
I5525
sS'students'
p5491
I5526
sS'masked'
p5492
I5527
sS'screwed'
p5493
I5528
sS'speak'
p5494
I5529
sS'snuggle'
p5495
I2613
sS'panes'
p5496
I5531
sS'pepper'
p5497
I5532
sS'noise'
p5498
I3241
sS'buttoned'
p5499
I5534
sS'tucks'
p5500
I5535
sS'host'
p5501
I5536
sS'whacks'
p5502
I5537
sS'panel'
p5503
I5538
sS'gifts'
p5504
I5539
sS'about'
p5505
I5540
sS'actual'
p5506
I5541
sS'boards'
p5507
I5542
sS'smartly'
p5508
I5543
sS'introduces'
p5509
I5544
sS'socked'
p5510
I5545
sS'tailed'
p5511
I5546
sS'tomb'
p5512
I5547
sS'introduced'
p5513
I5548
sS'obliterated'
p5514
I5549
sS'zooms'
p5515
I5550
sS'socks'
p5516
I5551
sS'guard'
p5517
I5552
sS'female'
p5518
I5553
sS'quickly'
p5519
I5956
sS'decorated'
p5520
I5555
sS'knuckles'
p5521
I5556
sS'brides'
p5522
I5557
sS'vegetables'
p5523
I5558
sS'outline'
p5524
I5559
sS'firefighter'
p5525
I5560
sS'rushes'
p5526
I5561
sS'buy'
p5527
I5562
sS'chatting'
p5528
I3400
sS'bus'
p5529
I5564
sS'coke'
p5530
I3406
sS'but'
p5531
I5566
sS'bun'
p5532
I5567
sS'bum'
p5533
I5568
sS'bookshelf'
p5534
I5569
sS'inverted'
p5535
I5570
sS'bug'
p5536
I5571
sS'bud'
p5537
I5572
sS'partially'
p5538
I5573
sS'misty'
p5539
I5574
sS'wish'
p5540
I3450
sS'flip'
p5541
I5576
sS'waddles'
p5542
I5577
sS'squat'
p5543
I5578
sS'skating'
p5544
I5579
sS'rabbits'
p5545
I5580
sS'pin'
p5546
I5581
sS'whisper'
p5547
I5582
sS'circus'
p5548
I5583
sS'topless'
p5549
I3499
sS'pig'
p5550
I5585
sS'pix'
p5551
I3504
sS'shooting'
p5552
I3514
sS'pit'
p5553
I5588
sS'campus'
p5554
I3517
sS'dressed'
p5555
I5590
sS'45'
p5556
I5591
sS'claiming'
p5557
I5592
sS'virtual'
p5558
I5593
sS'sandy'
p5559
I5594
sS'ledge'
p5560
I3552
sS'dresses'
p5561
I5596
sS'dresser'
p5562
I5597
sS'thumping'
p5563
I5598
sS'gangway'
p5564
I5599
sS'stirred'
p5565
I5600
sS'yell'
p5566
I5601
sS'baked'
p5567
I5602
sS'ladybird'
p5568
I5603
sS'assembles'
p5569
I3661
sS'sleek'
p5570
I3667
sS'sleep'
p5571
I5606
sS'hate'
p5572
I5608
sS'poorly'
p5573
I5609
sS'trolley'
p5574
I5610
sS'feeding'
p5575
I5611
sS'clasps'
p5576
I5612
sS'patches'
p5577
I5613
sS'teapot'
p5578
I5614
sS'343'
p5579
I3731
sS'lure'
p5580
I5616
sS'grits'
p5581
I7255
sS'tampons'
p5582
I5618
sS'rise'
p5583
I5619
sS'fishbowl'
p5584
I5620
sS'leggings'
p5585
I3769
sS'jack'
p5586
I5622
sS'confetti'
p5587
I5623
sS'monkeys'
p5588
I5624
sS'encounter'
p5589
I5625
sS'school'
p5590
I5626
sS'motorcyclist'
p5591
I421
sS'attentively'
p5592
I7257
sS'venue'
p5593
I5629
sS'flutters'
p5594
I3817
sS'venus'
p5595
I5631
sS'humps'
p5596
I5632
sS'joggers'
p5597
I5633
sS'enjoy'
p5598
I5634
sS'parted'
p5599
I5635
sS'bicycle'
p5600
I5636
sS'feathery'
p5601
I5637
sS'feathers'
p5602
I5638
sS'direct'
p5603
I5639
sS'frosted'
p5604
I5640
sS'unscrewing'
p5605
I5641
sS'nail'
p5606
I5642
sS'surrounding'
p5607
I5643
sS'fabulous'
p5608
I3854
sS'shining'
p5609
I5645
sS'blue'
p5610
I5646
sS'hide'
p5611
I5647
sS'solemn'
p5612
I5648
sS'revolver'
p5613
I5649
sS'liberty'
p5614
I5650
sS'sung'
p5615
I5651
sS'lampshade'
p5616
I5652
sS'coasters'
p5617
I5653
sS'conduct'
p5618
I5654
sS'supplies'
p5619
I5655
sS'chinking'
p5620
I5656
sS'disney'
p5621
I5657
sS'pats'
p5622
I5658
sS'kicked'
p5623
I5659
sS'stared'
p5624
I5660
sS'ramps'
p5625
I5661
sS'hundreds'
p5626
I5662
sS'studio'
p5627
I5663
sS'undo'
p5628
I5664
sS'path'
p5629
I5665
sS'stares'
p5630
I5666
sS'crossbow'
p5631
I5667
sS'voice'
p5632
I5669
sS'luggage'
p5633
I5670
sS'leaves'
p5634
I5671
sS'changed'
p5635
I4002
sS'jogging'
p5636
I5673
sS'settled'
p5637
I4024
sS'offs'
p5638
I4038
sS'figure'
p5639
I7169
sS'straw'
p5640
I5676
sS'cylinder'
p5641
I5677
sS'feelings'
p5642
I4056
sS'visible'
p5643
I5679
sS'punching'
p5644
I5680
sS'swings'
p5645
I5681
sS'would'
p5646
I5682
sS'hospital'
p5647
I5683
sS'spiky'
p5648
I5684
sS'fainting'
p5649
I5685
sS'refection'
p5650
I4118
sS'saber'
p5651
I5687
sS'nightgowns'
p5652
I5974
sS'billowing'
p5653
I5689
sS'phone'
p5654
I5690
sS'pinching'
p5655
I5692
sS'excellent'
p5656
I5693
sS'pouch'
p5657
I5694
sS'shoot'
p5658
I5695
sS'hideout'
p5659
I5696
sS'ma'
p5660
I4167
sS'brandishing'
p5661
I3967
sS'tissue'
p5662
I5699
sS'mr'
p5663
I5700
sS'my'
p5664
I5701
sS'grenade'
p5665
I5702
sS'shook'
p5666
I4206
sS'decorative'
p5667
I5704
sS'overhears'
p5668
I5705
sS'dolphin'
p5669
I5706
sS'paparazzi'
p5670
I5707
sS'mermaids'
p5671
I5708
sS'woodpecker'
p5672
I4247
sS'looses'
p5673
I5710
sS'end'
p5674
I5711
sS'bunk'
p5675
I5712
sS'sitting'
p5676
I5713
sS'buns'
p5677
I5714
sS'drummer'
p5678
I5715
sS'gate'
p5679
I5716
sS'charging'
p5680
I5717
sS'eyeballs'
p5681
I5718
sS'badly'
p5682
I5719
sS'poker'
p5683
I5720
sS'pokes'
p5684
I5721
sS'mouths'
p5685
I5722
sS'mess'
p5686
I5723
sS'jumping'
p5687
I5724
sS'poked'
p5688
I5725
sS'sparkler'
p5689
I5726
sS'sparkles'
p5690
I5727
sS'burly'
p5691
I5728
sS'parallel'
p5692
I5729
sS'snarling'
p5693
I5730
sS'amid'
p5694
I5731
sS'patent'
p5695
I2727
sS'upside'
p5696
I5733
sS'jungle'
p5697
I5734
sS'enter'
p5698
I5735
sS'corsets'
p5699
I5736
sS'vapor'
p5700
I5737
sS'fillers'
p5701
I5738
sS'hedgehog'
p5702
I4389
sS'flippers'
p5703
I5740
sS'over'
p5704
I5741
sS'fall'
p5705
I4671
sS'uncross'
p5706
I5743
sS'underside'
p5707
I5744
sS'executes'
p5708
I5745
sS'oven'
p5709
I5746
sS'rowdies'
p5710
I5747
sS'glances'
p5711
I5748
sS'forehead'
p5712
I5982
sS'writing'
p5713
I5750
sS'tilts'
p5714
I5751
sS'whips'
p5715
I5752
sS'prevented'
p5716
I5753
sS'monarch'
p5717
I5668
sS'shadows'
p5718
I5755
sS'swaying'
p5719
I5756
sS'regularly'
p5720
I5757
sS'faceful'
p5721
I5758
sS'chuck'
p5722
I5759
sS'explode'
p5723
I5760
sS'filling'
p5724
I994
sS'victory'
p5725
I5762
sS'fitness'
p5726
I4567
sS'signing'
p5727
I5764
sS'hanger'
p5728
I5765
sS'tumbleweed'
p5729
I5766
sS'clinks'
p5730
I5767
sS'cloths'
p5731
I5768
sS'gymnasium'
p5732
I4604
sS'waffle'
p5733
I5770
sS'celebrating'
p5734
I5771
sS'hanged'
p5735
I4618
sS'ghosts'
p5736
I5773
sS'poncho'
p5737
I5774
sS'clothe'
p5738
I5775
sS'pounce'
p5739
I5776
sS'goo'
p5740
I5777
sS'lair'
p5741
I5778
sS'driving'
p5742
I5779
sS'dinosaur'
p5743
I5780
sS'stringed'
p5744
I5781
sS'haired'
p5745
I5782
sS'washed'
p5746
I4656
sS'conga'
p5747
I5784
sS'laid'
p5748
I5785
sS'adjust'
p5749
I5786
sS'got'
p5750
I5787
sS'washer'
p5751
I5788
sS'washes'
p5752
I5789
sS'bald'
p5753
I1755
sS'splashed'
p5754
I5790
sS'carcass'
p5755
I5791
sS'hang'
p5756
I5792
sS'harry'
p5757
I5793
sS'free'
p5758
I5794
sS'formation'
p5759
I5795
sS'evil'
p5760
I196
sS'scoped'
p5761
I5797
sS'frameqaort'
p5762
I5798
sS'wanted'
p5763
I5799
sS'okaying'
p5764
I5800
sS'outfits'
p5765
I5801
sS'filter'
p5766
I5802
sS'heck'
p5767
I5803
sS'soda'
p5768
I5804
sS'onto'
p5769
I5805
sS'grassed'
p5770
I5806
sS'industrial'
p5771
I4789
sS'gazelle'
p5772
I5809
sS'puck'
p5773
I5810
sS'encouraging'
p5774
I4806
sS'hearing'
p5775
I5812
sS'scissors'
p5776
I5813
sS'bandaged'
p5777
I5814
sS'toy'
p5778
I5815
sS'top'
p5779
I5816
sS'licorice'
p5780
I5817
sS'tow'
p5781
I5818
sS'fiction'
p5782
I5819
sS'too'
p5783
I5820
sS'wildly'
p5784
I5821
sS'gowns'
p5785
I5822
sS'fixedly'
p5786
I5823
sS'toe'
p5787
I5824
sS'curtains'
p5788
I5825
sS'ceiling'
p5789
I5826
sS'tool'
p5790
I5827
sS'brushes'
p5791
I5828
sS'serve'
p5792
I5829
sS'pondering'
p5793
I4910
sS'ankle'
p5794
I5831
sS'nudging'
p5795
I5832
sS'brushed'
p5796
I5833
sS'perfectly'
p5797
I5834
sS'reclining'
p5798
I5835
sS'flame'
p5799
I5836
sS'paved'
p5800
I5837
sS'bridge'
p5801
I5838
sS'donkey'
p5802
I5839
sS'fashion'
p5803
I5840
sS'handkerchief'
p5804
I5841
sS'ran'
p5805
I5842
sS'ram'
p5806
I5843
sS'raw'
p5807
I4999
sS'rat'
p5808
I5845
sS'headbands'
p5809
I7276
sS'rap'
p5810
I5847
sS'careening'
p5811
I5848
sS'screws'
p5812
I5849
sS'spade'
p5813
I5850
sS'relatively'
p5814
I5013
sS'nipples'
p5815
I5852
sS'slithering'
p5816
I5853
sS'1964'
p5817
I5854
sS'snow'
p5818
I5855
sS'rodents'
p5819
I5856
sS'laughed'
p5820
I5857
sS'cigars'
p5821
I5858
sS'rides'
p5822
I5859
sS'rider'
p5823
I5860
sS'though'
p5824
I5861
sS'gesticulates'
p5825
I5862
sS'candlestick'
p5826
I5863
sS'coin'
p5827
I5864
sS'unorthodox'
p5828
I5865
sS'parting'
p5829
I5866
sS'glow'
p5830
I5867
sS'peers'
p5831
I5868
sS'treats'
p5832
I5869
sS'flop'
p5833
I5870
sS'flow'
p5834
I5115
sS'freeway'
p5835
I5872
sS'enterprise'
p5836
I5873
sS'swerves'
p5837
I5874
sS'entertaining'
p5838
I5875
sS'policewoman'
p5839
I5876
sS'floe'
p5840
I5877
sS'bait'
p5841
I5878
sS'pope'
p5842
I5879
sS'queen'
p5843
I5880
sS'wedging'
p5844
I5999
sS'crotches'
p5845
I5882
sS'pops'
p5846
I5883
sS'colors'
p5847
I5884
sS'radio'
p5848
I5885
sS'earth'
p5849
I5886
sS'peddle'
p5850
I5887
sS'bail'
p5851
I5888
sS'spits'
p5852
I5889
sS'knuckle'
p5853
I5890
sS'disgust'
p5854
I5212
sS'mixture'
p5855
I5892
sS'sunglasses'
p5856
I5893
sS'asians'
p5857
I5894
sS'watch'
p5858
I5895
sS'fluid'
p5859
I5896
sS'blinking'
p5860
I5897
sS'shutting'
p5861
I5898
sS'wedding'
p5862
I5899
sS'knocks'
p5863
I5900
sS'pouting'
p5864
I5901
sS'tailpipes'
p5865
I5902
sS'rowing'
p5866
I5903
sS'anxiously'
p5867
I5904
sS'licking'
p5868
I5905
sS'plush'
p5869
I5906
sS'twice'
p5870
I5907
sS'shots'
p5871
I5908
sS'ruins'
p5872
I1747
sS'swept'
p5873
I5911
sS'liquor'
p5874
I5333
sS'skeptically'
p5875
I5913
sS'nun'
p5876
I5914
sS'disturbing'
p5877
I5915
sS'noodles'
p5878
I5916
sS'jerseys'
p5879
I5917
sS'gladiator'
p5880
I5918
sS'postbox'
p5881
I5919
sS'feline'
p5882
I5372
sS'mud'
p5883
I5921
sS'startle'
p5884
I5380
sS'discovers'
p5885
I5385
sS'approach'
p5886
I5924
sS'360'
p5887
I5925
sS'rims'
p5888
I5926
sS'confusion'
p5889
I5927
sS'metal'
p5890
I5871
sS'diapers'
p5891
I5928
sS'toothbrush'
p5892
I5929
sS'aquarium'
p5893
I5426
sS'news'
p5894
I5931
sS'mule'
p5895
I5932
sS'drowsy'
p5896
I5933
sS'improve'
p5897
I5934
sS'faced'
p5898
I5935
sS'protect'
p5899
I5936
sS'jelly'
p5900
I5937
sS'participating'
p5901
I5938
sS'players'
p5902
I5939
sS'chandeliers'
p5903
I5940
sS'games'
p5904
I5941
sS'faces'
p5905
I5942
sS'snooker'
p5906
I5943
sS'operating'
p5907
I5944
sS'lenses'
p5908
I5945
sS'betting'
p5909
I5946
sS'towels'
p5910
I5947
sS'trust'
p5911
I5948
sS'hysterically'
p5912
I5950
sS'bathroom'
p5913
I5951
sS'frameqalaced'
p5914
I5952
sS'bikinis'
p5915
I5953
sS'ropes'
p5916
I5954
sS'been'
p5917
I5955
sS'blower'
p5918
I5554
sS'beer'
p5919
I5957
sS'roped'
p5920
I5958
sS'containers'
p5921
I5959
sS'pursing'
p5922
I5960
sS'loft'
p5923
I5961
sS'drugs'
p5924
I5962
sS'pecked'
p5925
I5963
sS'catch'
p5926
I5964
sS'glides'
p5927
I5965
sS'cartwheeling'
p5928
I5607
sS'n'
I5967
sS'dashboard'
p5929
I5968
sS'stopping'
p5930
I5969
sS'cracked'
p5931
I5970
sS'zipping'
p5932
I5891
sS'provocative'
p5933
I5972
sS'handrail'
p5934
I5973
sS'tress'
p5935
I5688
sS'accessories'
p5936
I5975
sS'dazzles'
p5937
I5976
sS'interacts'
p5938
I5977
sS'containing'
p5939
I5978
sS'pyrotechnics'
p5940
I5979
sS'nike'
p5941
I5980
sS'wound'
p5942
I5981
sS'beside'
p5943
I5749
sS'bands'
p5944
I6014
sS'several'
p5945
I5984
sS'satellite'
p5946
I1407
sS'peaks'
p5947
I5986
sS'roiling'
p5948
I407
sS'social'
p5949
I5988
sS'characters'
p5950
I5989
sS'tassel'
p5951
I5990
sS'incredulously'
p5952
I5991
sS'charlie'
p5953
I5992
sS'vacuumed'
p5954
I5993
sS'ocean'
p5955
I5994
sS'mother'
p5956
I5995
sS'hearts'
p5957
I5996
sS'jean'
p5958
I5997
sS'snowman'
p5959
I5998
sS'bugger'
p5960
I5881
sS'toque'
p5961
I6000
sS'laptop'
p5962
I6001
sS'rodent'
p5963
I6002
sS'thumbs'
p5964
I6003
sS'rhythmically'
p5965
I6004
sS'unzips'
p5966
I6005
sS'cherry'
p5967
I725
sS'elf'
p5968
I6007
sS'teenager'
p5969
I6008
sS'trashed'
p5970
I6009
sS'erratically'
p5971
I5971
sS'turquoise'
p5972
I6011
sS'casting'
p5973
I6012
sS'ninjas'
p5974
I6023
sS'advances'
p5975
I5983
sS'breaks'
p5976
I6015
sS'descending'
p5977
I6016
sS'rip'
p5978
I6950
sS'spanner'
p5979
I6017
sS'sanitary'
p5980
I6018
sS'roach'
p5981
I6019
sS'burns'
p5982
I6020
sS'apart'
p5983
I6021
sS'amok'
p5984
I6022
sS'melting'
p5985
I6013
sS'appearing'
p5986
I6024
sS'gift'
p5987
I6025
sS'hunt'
p5988
I6026
sS'zoom'
p5989
I6027
sS'unsuspecting'
p5990
I6028
sS'offices'
p5991
I6029
sS'avatar'
p5992
I4102
sS'hung'
p5993
I6031
sS'gritting'
p5994
I6032
sS'petting'
p5995
I6033
sS'successfully'
p5996
I6034
sS'proudly'
p5997
I6035
sS'chests'
p5998
I6036
sS'accost'
p5999
I6037
sS'clubs'
p6000
I6038
sS'clawed'
p6001
I6039
sS'escape'
p6002
I6040
sS'combat'
p6003
I7302
sS'ice'
p6004
I6042
sS'rhino'
p6005
I6043
sS'everything'
p6006
I6044
sS'icy'
p6007
I6045
sS'christmas'
p6008
I6046
sS'flaps'
p6009
I6030
sS'cord'
p6010
I6048
sS'corn'
p6011
I6049
sS'cork'
p6012
I6050
sS'lamps'
p6013
I6051
sS'dalmatian'
p6014
I6052
sS'cowboy'
p6015
I6053
sS'attacks'
p6016
I6054
sS'choke'
p6017
I6055
sS'surround'
p6018
I6056
sS'dinner'
p6019
I6057
sS'steadily'
p6020
I6058
sS'axle'
p6021
I6059
sS'presence'
p6022
I6060
sS'puzzle'
p6023
I6061
sS'bath'
p6024
I6062
sS'accommodate'
p6025
I6063
sS'bats'
p6026
I6064
sS'trafficked'
p6027
I6065
sS'cubicle'
p6028
I6066
sS'rounds'
p6029
I6067
sS'sneezing'
p6030
I6068
sS'transform'
p6031
I6069
sS'sunlight'
p6032
I6070
sS'class'
p6033
I7307
sS'gig'
p6034
I6072
sS'stuck'
p6035
I6073
sS'striding'
p6036
I6074
sS'fought'
p6037
I6075
sS'head'
p6038
I6076
sS'medium'
p6039
I6077
sS'steers'
p6040
I6078
sS'attempted'
p6041
I6079
sS'heal'
p6042
I6080
sS'removes'
p6043
I6081
sS'wireless'
p6044
I6082
sS'heat'
p6045
I6083
sS'hear'
p6046
I6084
sS'wobbles'
p6047
I6085
sS'removed'
p6048
I6086
sS'sponge'
p6049
I6087
sS'ruined'
p6050
I6088
sS'nerds'
p6051
I6089
sS'trim'
p6052
I6090
sS'brightly'
p6053
I6091
sS'upset'
p6054
I6092
sS'swatter'
p6055
I6093
sS'shines'
p6056
I6094
sS'annoying'
p6057
I6095
sS'check'
p6058
I6096
sS'pipe'
p6059
I7309
sS'outstretched'
p6060
I6098
sS'no'
p6061
I6099
sS'whereas'
p6062
I6100
sS'tip'
p6063
I1280
sS'vanishes'
p6064
I6102
sS'meows'
p6065
I6103
sS'setting'
p6066
I6104
sS'staggering'
p6067
I5949
sS'tie'
p6068
I6106
sS'realize'
p6069
I6107
sS'evergreen'
p6070
I6108
sS'picture'
p6071
I6109
sS'grasps'
p6072
I6110
sS'football'
p6073
I6111
sS'nods'
p6074
I6112
sS'flushed'
p6075
I6113
sS'younger'
p6076
I6114
sS'faster'
p6077
I6115
sS'bullet'
p6078
I6116
sS'sacks'
p6079
I6117
sS'vigorously'
p6080
I6118
sS'yacht'
p6081
I6119
sS'uncovered'
p6082
I6120
sS'serious'
p6083
I6121
sS'backward'
p6084
I6122
sS'stacks'
p6085
I6123
sS'coach'
p6086
I6124
sS'rom'
p6087
I6125
sS'rob'
p6088
I6126
sS'rod'
p6089
I6127
sS'focus'
p6090
I6128
sS'snip'
p6091
I6129
sS'displaying'
p6092
I6130
sS'row'
p6093
I6131
sS'contemplating'
p6094
I6132
sS'environment'
p6095
I6133
sS'charge'
p6096
I6134
sS'discovering'
p6097
I6135
sS'furrows'
p6098
I6136
sS'broadly'
p6099
I6137
sS'keeping'
p6100
I6138
sS'tanks'
p6101
I6139
sS'cook'
p6102
I6140
sS'cool'
p6103
I6141
sS'tortillas'
p6104
I6142
sS'clouds'
p6105
I6143
sS'impressive'
p6106
I6144
sS'policeman'
p6107
I6145
sS'posts'
p6108
I6146
sS'cloudy'
p6109
I6147
sS'starlit'
p6110
I6148
sS'slouching'
p6111
I6149
sS'quick'
p6112
I6150
sS'lever'
p6113
I6151
sS'dries'
p6114
I6152
sS'says'
p6115
I6153
sS'ladling'
p6116
I6155
sS'deflating'
p6117
I6156
sS'dried'
p6118
I6157
sS'comforting'
p6119
I6158
sS'soldiers'
p6120
I6159
sS'fear'
p6121
I7315
sS'drinks'
p6122
I6161
sS'stands'
p6123
I6162
sS'tarmac'
p6124
I6163
sS'goes'
p6125
I6164
sS'hairy'
p6126
I6165
sS'orangutans'
p6127
I6166
sS'hairs'
p6128
I6167
sS'water'
p6129
I6168
sS'entertain'
p6130
I6169
sS'baseball'
p6131
I6170
sS'groups'
p6132
I6171
sS'mauls'
p6133
I3064
sS'beanbag'
p6134
I6173
sS'arc'
p6135
I6882
sS'thirty'
p6136
I6174
sS'expressly'
p6137
I6175
sS'marble'
p6138
I6176
sS'sharpening'
p6139
I6177
sS'weird'
p6140
I6178
sS'lowers'
p6141
I6179
sS'emerge'
p6142
I6180
sS'somersaults'
p6143
I6181
sS'tuxedo'
p6144
I6182
sS'peer'
p6145
I6183
sS'touchdown'
p6146
I6184
sS'swallowed'
p6147
I6185
sS'isles'
p6148
I6186
sS'projector'
p6149
I6187
sS'wrecking'
p6150
I6188
sS'hisses'
p6151
I6684
sS'sports'
p6152
I6189
sS'handles'
p6153
I6190
sS'handler'
p6154
I6191
sS'prey'
p6155
I6192
sS'today'
p6156
I6193
sS'smeared'
p6157
I6194
sS'smudged'
p6158
I6195
sS'conductor'
p6159
I6196
sS'clicking'
p6160
I6197
sS'cashier'
p6161
I6198
sS'chocolate'
p6162
I6199
sS'teases'
p6163
I6200
sS'beers'
p6164
I6201
sS'flapping'
p6165
I6202
sS'cases'
p6166
I6203
sS'studded'
p6167
I7322
sS'judo'
p6168
I6205
sS'sphere'
p6169
I6206
sS'wands'
p6170
I6207
sS'unruly'
p6171
I6208
sS'ferry'
p6172
I6209
sS'meatball'
p6173
I6210
sS'laughter'
p6174
I6211
sS'streak'
p6175
I6212
sS'spun'
p6176
I7326
sS'sandbag'
p6177
I1897
sS'stream'
p6178
I6215
sS'geeks'
p6179
I6216
sS'tinted'
p6180
I6217
sS'dropped'
p6181
I6218
sS'unloads'
p6182
I6219
sS'counting'
p6183
I6220
sS'sailboat'
p6184
I6221
sS'1'
I6222
sS'rubik'
p6185
I1802
sS'speaks'
p6186
I6224
sS'begs'
p6187
I6225
sS'narrowly'
p6188
I6226
sS'ballroom'
p6189
I4422
sS'information'
p6190
I6228
sS'grooving'
p6191
I6229
sS'eighty'
p6192
I6230
sS'crashed'
p6193
I6231
sS'birthday'
p6194
I6232
sS'tipped'
p6195
I6233
sS'floral'
p6196
I6234
sS'sipping'
p6197
I3440
sS'wagging'
p6198
I6235
sS'classroom'
p6199
I6236
sS'branches'
p6200
I6237
sS'liquid'
p6201
I6238
sS'drumsticks'
p6202
I6239
sS'amuse'
p6203
I6240
sS'glancing'
p6204
I6241
sS'acts'
p6205
I6242
sS'fangs'
p6206
I6243
sS'ducklings'
p6207
I6244
sS'motions'
p6208
I6245
sS'blocked'
p6209
I6246
sS'cheerleaders'
p6210
I6247
sS'joysticks'
p6211
I6248
sS'platform'
p6212
I6249
sS'continue'
p6213
I1330
sS'farmer'
p6214
I6251
sS'coordinated'
p6215
I6252
sS'budgerigar'
p6216
I6253
sS'happened'
p6217
I6254
sS'lonely'
p6218
I6255
sS'devastated'
p6219
I6256
sS'underneath'
p6220
I6257
sS'feathered'
p6221
I6258
sS'wagon'
p6222
I6259
sS'showcased'
p6223
I6260
sS'tobacco'
p6224
I6262
sS'clutch'
p6225
I6263
sS'nodding'
p6226
I6264
sS'trunks'
p6227
I6265
sS'populated'
p6228
I6266
sS'hiccups'
p6229
I6267
sS'torch'
p6230
I6268
sS'catching'
p6231
I6269
sS'zebra'
p6232
I6270
sS'sunrise'
p6233
I6271
sS'overflowing'
p6234
I6272
sS'eagle'
p6235
I6273
sS'attended'
p6236
I6274
sS'hula'
p6237
I6275
sS'burps'
p6238
I36
sS'boobs'
p6239
I6277
sS'overground'
p6240
I6278
sS'hulk'
p6241
I6279
sS'aria'
p6242
I6280
sS'skillfully'
p6243
I6281
sS'grab'
p6244
I3452
sS'roosters'
p6245
I6283
sS'flare'
p6246
I6284
sS'motion'
p6247
I6285
sS'turn'
p6248
I6286
sS'butterflies'
p6249
I6287
sS'place'
p6250
I6288
sS'swing'
p6251
I6289
sS'charleston'
p6252
I6290
sS'saucers'
p6253
I7341
sS'creepily'
p6254
I6292
sS'teammates'
p6255
I6293
sS'pelican'
p6256
I6294
sS'vandalizing'
p6257
I6295
sS'clumsy'
p6258
I6296
sS'soaring'
p6259
I6297
sS'fetches'
p6260
I6298
sS'hairdressers'
p6261
I6299
sS'cheerfully'
p6262
I6300
sS'squashed'
p6263
I153
sS'given'
p6264
I6302
sS'sneezes'
p6265
I1817
sS'burying'
p6266
I6303
sS'plastic'
p6267
I6304
sS'returns'
p6268
I6305
sS'white'
p6269
I6306
sS'gives'
p6270
I6307
sS'exploring'
p6271
I6308
sS'hug'
p6272
I6309
sS'releases'
p6273
I6310
sS'terrain'
p6274
I6311
sS'released'
p6275
I228
sS'corning'
p6276
I6313
sS'holder'
p6277
I6314
sS'wide'
p6278
I6315
sS'cards'
p6279
I6316
sS'driveway'
p6280
I6317
sS'and'
p6281
I6318
sS'armored'
p6282
I6319
sS'pro'
p6283
I6320
sS'ant'
p6284
I6321
sS'mates'
p6285
I6322
sS'ans'
p6286
I6323
sS'exchanging'
p6287
I6324
sS'any'
p6288
I6325
sS'marathon'
p6289
I344
sS'superman'
p6290
I6327
sS'silhouette'
p6291
I6328
sS'dining'
p6292
I6329
sS'animation'
p6293
I6330
sS'resembling'
p6294
I6331
sS'tambourine'
p6295
I6332
sS'blunt'
p6296
I6333
sS'surf'
p6297
I6334
sS'hooves'
p6298
I6335
sS'multiple'
p6299
I6336
sS'equestrian'
p6300
I6337
sS'tornado'
p6301
I6338
sS'falls'
p6302
I6339
sS'visitors'
p6303
I2439
sS'pencils'
p6304
I6341
sS'shooter'
p6305
I450
sS'hungry'
p6306
I6343
sS'beaded'
p6307
I6344
sS'readjust'
p6308
I6345
sS'cuddled'
p6309
I6346
sS'shrieking'
p6310
I6347
sS'slope'
p6311
I6348
sS'perch'
p6312
I6349
sS'convoy'
p6313
I6350
sS'applauding'
p6314
I6351
sS'cheap'
p6315
I6352
sS'dandelions'
p6316
I6353
sS'trot'
p6317
I6354
sS'woolen'
p6318
I6355
sS'crime'
p6319
I6356
sS'prays'
p6320
I6357
sS'wood'
p6321
I6358
sS'crimp'
p6322
I6359
sS'wool'
p6323
I6360
sS'lighted'
p6324
I6361
sS'narrows'
p6325
I6362
sS'begging'
p6326
I6363
sS'lighter'
p6327
I6364
sS'dye'
p6328
I6365
sS'hedge'
p6329
I6366
sS'flicks'
p6330
I6367
sS'freaking'
p6331
I6368
sS'reveal'
p6332
I6369
sS'aluminum'
p6333
I6370
sS'naked'
p6334
I6371
sS'jokes'
p6335
I6372
sS'penguins'
p6336
I6373
sS'dough'
p6337
I6374
sS'discussing'
p6338
I6375
sS'microphones'
p6339
I6376
sS'reveals'
p6340
I652
sS'picnic'
p6341
I6378
sS'brim'
p6342
I6379
sS'turntable'
p6343
I6380
sS'ignores'
p6344
I6381
sS'parking'
p6345
I6382
sS'turbine'
p6346
I6383
sS'surfaces'
p6347
I6384
sS'fails'
p6348
I6385
sS'bicyclist'
p6349
I6386
sS'ways'
p6350
I6387
sS'spoons'
p6351
I732
sS'outside'
p6352
I6389
sS'hiss'
p6353
I6390
sS'smokestack'
p6354
I6391
sS'toying'
p6355
I6392
sS'warding'
p6356
I6393
sS'guitar'
p6357
I6394
sS'peering'
p6358
I7101
sS'fiddling'
p6359
I6395
sS'diners'
p6360
I6396
sS'unusually'
p6361
I6397
sS'comb'
p6362
I6398
sS'come'
p6363
I6399
sS'priests'
p6364
I6400
sS'quiet'
p6365
I6401
sS'officer'
p6366
I6047
sS'berry'
p6367
I6402
sS'railway'
p6368
I6403
sS'groundhog'
p6369
I6404
sS'duty'
p6370
I6405
sS'key'
p6371
I5807
sS'color'
p6372
I6407
sS'armchair'
p6373
I6408
sS'pot'
p6374
I6409
sS'period'
p6375
I6410
sS'pop'
p6376
I6411
sS'poo'
p6377
I6412
sS'pole'
p6378
I6413
sS'pom'
p6379
I6414
sS'wrinkly'
p6380
I7080
sS'polo'
p6381
I6415
sS'fireflies'
p6382
I6417
sS'poll'
p6383
I877
sS'stroking'
p6384
I6419
sS'teammate'
p6385
I6420
sS'spotlights'
p6386
I6421
sS'coupe'
p6387
I6422
sS'helicopter'
p6388
I6423
sS'featuring'
p6389
I6424
sS'hardly'
p6390
I6425
sS'ruining'
p6391
I6426
sS'peaking'
p6392
I935
sS'direction'
p6393
I6428
sS'tiger'
p6394
I6429
sS'padlock'
p6395
I6430
sS'dribble'
p6396
I5393
sS'pilot'
p6397
I6432
sS'case'
p6398
I978
sS'shaft'
p6399
I6434
sS'mount'
p6400
I6435
sS'cupping'
p6401
I6436
sS'cash'
p6402
I6437
sS'cast'
p6403
I6438
sS'dorky'
p6404
I6439
sS'electrocuted'
p6405
I6440
sS'slippery'
p6406
I6441
sS'shops'
p6407
I1013
sS'interconnected'
p6408
I6443
sS'slippers'
p6409
I6444
sS'vest'
p6410
I6445
sS'punches'
p6411
I6446
sS'candies'
p6412
I6447
sS'telephone'
p6413
I6448
sS'couples'
p6414
I6449
sS'someone'
p6415
I6450
sS'punched'
p6416
I6451
sS'whimpering'
p6417
I6452
sS'ironic'
p6418
I6453
sS'helmet'
p6419
I6454
sS'locking'
p6420
I1078
sS'siberian'
p6421
I6456
sS'trip'
p6422
I6457
sS'shifts'
p6423
I6458
sS'bows'
p6424
I6459
sS'macaroni'
p6425
I1091
sS'agitated'
p6426
I6461
sS'generated'
p6427
I7083
sS'barefoot'
p6428
I6462
sS'applaud'
p6429
I6463
sS'nest'
p6430
I6464
sS'driver'
p6431
I6465
sS'drives'
p6432
I6466
sS'weed'
p6433
I6467
sS'driven'
p6434
I6468
sS'persons'
p6435
I6469
sS'canister'
p6436
I6470
sS'statue'
p6437
I6471
sS'changing'
p6438
I6472
sS'cartoon'
p6439
I6473
sS'deflates'
p6440
I6474
sS'caressing'
p6441
I6475
sS'magical'
p6442
I1162
sS'without'
p6443
I6477
sS'model'
p6444
I6478
sS'bodies'
p6445
I6479
sS'desolate'
p6446
I6480
sS'when'
p6447
I6101
sS'guided'
p6448
I6482
sS'actions'
p6449
I1208
sS'loosening'
p6450
I6484
sS'kill'
p6451
I6485
sS'polish'
p6452
I6261
sS'satin'
p6453
I6487
sS'kneeling'
p6454
I6488
sS'captured'
p6455
I6489
sS'blow'
p6456
I6490
sS'rose'
p6457
I1240
sS'seems'
p6458
I6492
sS'tin'
p6459
I6493
sS'pallet'
p6460
I6494
sS'lets'
p6461
I6495
sS'outstretches'
p6462
I6496
sS'hing'
p6463
I6497
sS'hind'
p6464
I6498
sS'engulfed'
p6465
I6499
sS'flashing'
p6466
I6500
sS'styles'
p6467
I6501
sS'kills'
p6468
I6502
sS'blowout'
p6469
I6503
sS'papers'
p6470
I6105
sS'fridge'
p6471
I6504
sS'styled'
p6472
I6505
sS'correcting'
p6473
I6506
sS'furniture'
p6474
I6507
sS'standstill'
p6475
I1326
sS'particle'
p6476
I6509
sS'nissan'
p6477
I6510
sS'buddies'
p6478
I6511
sS'towed'
p6479
I1195
sS'oddly'
p6480
I6513
sS'footballs'
p6481
I6514
sS'snort'
p6482
I6515
sS'waiving'
p6483
I6516
sS'tower'
p6484
I6517
sS'snatches'
p6485
I6518
sS'joking'
p6486
I6519
sS'interlock'
p6487
I1367
sS'settles'
p6488
I5672
sS'slice'
p6489
I6522
sS'mood'
p6490
I6523
sS'shirtless'
p6491
I6524
sS'slick'
p6492
I6525
sS'stops'
p6493
I6526
sS'moon'
p6494
I6527
sS'teardrop'
p6495
I6528
sS'buddha'
p6496
I6529
sS'itching'
p6497
I6530
sS'nails'
p6498
I6531
sS'inspect'
p6499
I6532
sS'communicate'
p6500
I6533
sS'terrified'
p6501
I6534
sS'wades'
p6502
I1490
sS'pinstriped'
p6503
I5732
sS'jeep'
p6504
I6536
sS'beavers'
p6505
I1507
sS'shrimp'
p6506
I6538
sS'mutually'
p6507
I6539
sS'stand'
p6508
I6540
sS'ox'
p6509
I6541
sS'or'
p6510
I6542
sS'ladies'
p6511
I6543
sS'instruments'
p6512
I6544
sS'garb'
p6513
I6545
sS'breakwater'
p6514
I6546
sS'everyone'
p6515
I6547
sS'rising'
p6516
I6548
sS'determine'
p6517
I6549
sS'gary'
p6518
I6550
sS'syringe'
p6519
I6551
sS'buds'
p6520
I6552
sS'whales'
p6521
I6553
sS'there'
p6522
I6554
sS'reindeer'
p6523
I7376
sS'quayside'
p6524
I1611
sS'valley'
p6525
I6558
sS'fish'
p6526
I6559
sS'illuminated'
p6527
I1641
sS'kittens'
p6528
I6561
sS'eyeliner'
p6529
I6562
sS'cabinet'
p6530
I6563
sS'applying'
p6531
I6564
sS'grasp'
p6532
I6565
sS'grass'
p6533
I6566
sS'creeping'
p6534
I6567
sS'strongly'
p6535
I6568
sS'toilet'
p6536
I6569
sS'toiler'
p6537
I6570
sS'taste'
p6538
I6571
sS'frighten'
p6539
I6572
sS'tasty'
p6540
I6573
sS'cringes'
p6541
I6574
sS'smirks'
p6542
I677
sS'collared'
p6543
I6575
sS'fiddles'
p6544
I1757
sS'rubbed'
p6545
I6577
sS'swords'
p6546
I6578
sS'rubber'
p6547
I6579
sS'roses'
p6548
I6580
sS'5'
I6581
sS'stumbles'
p6549
I6582
sS'trash'
p6550
I6583
sS'briefly'
p6551
I6584
sS'championship'
p6552
I6585
sS'winking'
p6553
I6586
sS'pillows'
p6554
I6587
sS'separate'
p6555
I6588
sS'symbol'
p6556
I6589
sS'whiskers'
p6557
I6590
sS'cordless'
p6558
I1816
sS'lovers'
p6559
I6592
sS'bullets'
p6560
I6593
sS'fasten'
p6561
I6594
sS'brass'
p6562
I6595
sS'prongs'
p6563
I6596
sS'lipstick'
p6564
I6597
sS'blacks'
p6565
I6598
sS'curve'
p6566
I6599
sS'fuse'
p6567
I6600
sS'curvy'
p6568
I6601
sS'rimmed'
p6569
I6602
sS'apparel'
p6570
I6603
sS'peeks'
p6571
I6604
sS'tanned'
p6572
I6605
sS'ferrari'
p6573
I2571
sS'crumpled'
p6574
I1870
sS'lace'
p6575
I6607
sS'cough'
p6576
I3506
sS'wreath'
p6577
I6609
sS'swerving'
p6578
I6610
sS'ladders'
p6579
I6611
sS'spacecraft'
p6580
I1884
sS'disc'
p6581
I6613
sS'dish'
p6582
I6614
sS'follow'
p6583
I1893
sS'disk'
p6584
I6616
sS'earmuffs'
p6585
I6617
sS'apartment'
p6586
I6618
sS'lining'
p6587
I6619
sS'sparkling'
p6588
I6620
sS'siblings'
p6589
I6621
sS'presentation'
p6590
I6622
sS'activities'
p6591
I6623
sS'woman'
p6592
I6624
sS'song'
p6593
I6625
sS'far'
p6594
I6626
sS'grinds'
p6595
I6627
sS'fat'
p6596
I6628
sS'fan'
p6597
I6629
sS'flails'
p6598
I6630
sS'bubbles'
p6599
I6631
sS'ticker'
p6600
I3328
sS'delivery'
p6601
I1838
sS'leads'
p6602
I6633
sS'prolonged'
p6603
I6634
sS'blankly'
p6604
I2022
sS'saxophone'
p6605
I6636
sS'lesbians'
p6606
I2029
sS'vanilla'
p6607
I7386
sS'flick'
p6608
I6639
sS'cockatoo'
p6609
I6640
sS'rats'
p6610
I6641
sS'ten'
p6611
I6642
sS'tea'
p6612
I6643
sS'tee'
p6613
I6644
sS'rate'
p6614
I6645
sS'design'
p6615
I6646
sS'will'
p6616
I7387
sS'what'
p6617
I6648
sS'gunk'
p6618
I6649
sS'deeply'
p6619
I2094
sS'sum'
p6620
I6651
sS'crust'
p6621
I6652
sS'brief'
p6622
I6653
sS'crush'
p6623
I6654
sS'suv'
p6624
I6655
sS'version'
p6625
I6656
sS'frightens'
p6626
I6657
sS'racing'
p6627
I6658
sS'guns'
p6628
I6659
sS'asiatic'
p6629
I6660
sS'toes'
p6630
I6661
sS'tags'
p6631
I6662
sS'toed'
p6632
I6663
sS'directions'
p6633
I6664
sS'skidded'
p6634
I6665
sS'equations'
p6635
I2153
sS'siamese'
p6636
I6667
sS'allows'
p6637
I6668
sS'cucumbers'
p6638
I6669
sS'miniature'
p6639
I6670
sS'milkshake'
p6640
I6671
sS'camcorder'
p6641
I2194
sS'sticking'
p6642
I6673
sS'suddenly'
p6643
I6674
sS'screens'
p6644
I6675
sS'texts'
p6645
I6676
sS'herring'
p6646
I6677
sS'proceed'
p6647
I6678
sS'donuts'
p6648
I6679
sS'faint'
p6649
I6680
sS'forcefully'
p6650
I6681
sS'piggyback'
p6651
I6682
sS'horses'
p6652
I6683
sS'flat'
p6653
I2295
sS'pausing'
p6654
I6685
sS'flap'
p6655
I6686
sS'grabbing'
p6656
I6687
sS'dribbled'
p6657
I6416
sS'melon'
p6658
I6689
sS'flag'
p6659
I6690
sS'stethoscope'
p6660
I6691
sS'stick'
p6661
I6692
sS'known'
p6662
I6693
sS'glad'
p6663
I6694
sS'wrestled'
p6664
I6695
sS'sleeveless'
p6665
I6696
sS'policemen'
p6666
I6697
sS'wrestler'
p6667
I6698
sS'v'
I6699
sS'gothic'
p6668
I7396
sS'bracelet'
p6669
I6512
sS'blossoming'
p6670
I6701
sS'pony'
p6671
I6702
sS'division'
p6672
I6704
sS'sunscreen'
p6673
I6705
sS'protects'
p6674
I6706
sS'pond'
p6675
I6707
sS'airplane'
p6676
I2421
sS'swung'
p6677
I6709
sS'hiccuping'
p6678
I6710
sS'earpiece'
p6679
I6711
sS'extinguishes'
p6680
I6712
sS'extinguisher'
p6681
I6713
sS'court'
p6682
I6714
sS'goal'
p6683
I2438
sS'unties'
p6684
I6716
sS'khakis'
p6685
I6717
sS'rather'
p6686
I6718
sS'breaking'
p6687
I6719
sS'untied'
p6688
I6720
sS'speeding'
p6689
I6721
sS'explains'
p6690
I6722
sS'goat'
p6691
I6723
sS'sandwich'
p6692
I6724
sS'okay'
p6693
I6725
sS'algebra'
p6694
I6726
sS'reflect'
p6695
I6727
sS'lighting'
p6696
I6728
sS'numb'
p6697
I6729
sS'concentrating'
p6698
I6730
sS'short'
p6699
I6731
sS'animatedly'
p6700
I6732
sS'strutting'
p6701
I6733
sS'footed'
p6702
I6734
sS'shore'
p6703
I6735
sS'shade'
p6704
I6736
sS'maneuver'
p6705
I6737
sS'encased'
p6706
I6738
sS'began'
p6707
I6739
sS'gauges'
p6708
I2582
sS'developed'
p6709
I6741
sS'flowers'
p6710
I2537
sS'disabled'
p6711
I6742
sS'flounce'
p6712
I6743
sS'style'
p6713
I6744
sS'slipped'
p6714
I6745
sS'glide'
p6715
I6746
sS'pray'
p6716
I6747
sS'mattress'
p6717
I6748
sS'strange'
p6718
I6749
sS'soccer'
p6719
I6750
sS'might'
p6720
I6751
sS'somebody'
p6721
I6752
sS'sucking'
p6722
I6753
sS'hunter'
p6723
I6754
sS'clippers'
p6724
I6755
sS'hunted'
p6725
I6756
sS'hairdryer'
p6726
I6757
sS'bigger'
p6727
I6758
sS'instructions'
p6728
I2684
sS'cubicles'
p6729
I6760
sS'accommodates'
p6730
I6761
sS'stroked'
p6731
I6762
sS'tilted'
p6732
I6763
sS'pirates'
p6733
I6764
sS'weight'
p6734
I6765
sS'fixture'
p6735
I6766
sS'loops'
p6736
I2762
sS'inflated'
p6737
I6768
sS'braided'
p6738
I6769
sS'alcohol'
p6739
I6770
sS'dugout'
p6740
I6771
sS'puckering'
p6741
I6772
sS'hill'
p6742
I6773
sS'caucasian'
p6743
I6774
sS'hailing'
p6744
I6775
sS'combed'
p6745
I6776
sS'experimenting'
p6746
I6777
sS'cookie'
p6747
I6778
sS'teach'
p6748
I6779
sS'sidewalk'
p6749
I6780
sS'bushes'
p6750
I3762
sS'thread'
p6751
I6782
sS'seahorse'
p6752
I6783
sS'circuit'
p6753
I6784
sS'snowboarding'
p6754
I6785
sS'fallen'
p6755
I6786
sS'throws'
p6756
I6787
sS'feed'
p6757
I6788
sS'feel'
p6758
I6789
sS'urinal'
p6759
I6790
sS'fancy'
p6760
I6791
sS'hamsters'
p6761
I109
sS'feet'
p6762
I6793
sS'fierce'
p6763
I6794
sS'sailor'
p6764
I6795
sS'blank'
p6765
I6796
sS'bland'
p6766
I6797
sS'slower'
p6767
I6798
sS'speedometer'
p6768
I6799
sS'passes'
p6769
I6800
sS'story'
p6770
I6801
sS'temperature'
p6771
I6802
sS'script'
p6772
I6803
sS'automobile'
p6773
I2009
sS'interviews'
p6774
I2946
sS'rails'
p6775
I2949
sS'collar'
p6776
I7412
sS'passed'
p6777
I2959
sS'syrup'
p6778
I6809
sS'store'
p6779
I6810
sS'wonderment'
p6780
I6811
sS'hotel'
p6781
I6813
sS'rifle'
p6782
I6814
sS'explodes'
p6783
I6815
sS'surfboard'
p6784
I6816
sS'king'
p6785
I6817
sS'kind'
p6786
I6818
sS'vial'
p6787
I6819
sS'double'
p6788
I6820
sS'aims'
p6789
I6821
sS'stall'
p6790
I6822
sS'outdoors'
p6791
I6823
sS'dispenser'
p6792
I6824
sS'tongues'
p6793
I6825
sS'cleaner'
p6794
I6826
sS'uniforms'
p6795
I6827
sS'suspicious'
p6796
I6828
sS'alike'
p6797
I3081
sS'cleaned'
p6798
I6830
sS'squints'
p6799
I6831
sS'rugs'
p6800
I6832
sS'wipers'
p6801
I6833
sS'freshener'
p6802
I6834
sS'cropped'
p6803
I6835
sS'sandwiches'
p6804
I6836
sS'irritated'
p6805
I6837
sS'puffing'
p6806
I6838
sS'added'
p6807
I6839
sS'electric'
p6808
I6840
sS'reach'
p6809
I6841
sS'react'
p6810
I6842
sS'cigarette'
p6811
I6843
sS'nothing'
p6812
I6844
sS'pouncing'
p6813
I1327
sS'patterned'
p6814
I6846
sS'dissolves'
p6815
I6847
sS'windows'
p6816
I6848
sS'traditional'
p6817
I3183
sS'part'
p6818
I6850
sS'amphibian'
p6819
I6851
sS'lying'
p6820
I6852
sS'doorstop'
p6821
I3210
sS'mimes'
p6822
I6854
sS'stoned'
p6823
I6855
sS'howls'
p6824
I6856
sS'stubble'
p6825
I6857
sS'simulating'
p6826
I6858
sS'endlessly'
p6827
I6859
sS'camel'
p6828
I7421
sS'penalty'
p6829
I6861
sS'discuss'
p6830
I7433
sS'hip'
p6831
I6862
sS'shepherd'
p6832
I1620
sS'his'
p6833
I6864
sS'hit'
p6834
I3300
sS'hid'
p6835
I6866
sS'hie'
p6836
I6867
sS'tarantula'
p6837
I6868
sS'beards'
p6838
I6869
sS'him'
p6839
I6870
sS'nibbles'
p6840
I6871
sS'wheeling'
p6841
I3357
sS'cringe'
p6842
I6873
sS'knickers'
p6843
I6874
sS'ballerinas'
p6844
I6875
sS'bars'
p6845
I6876
sS'stump'
p6846
I3367
sS'dump'
p6847
I6878
sS'tarps'
p6848
I6879
sS'choreographed'
p6849
I6880
sS'pvc'
p6850
I6881
sS'defense'
p6851
I3479
sS'bare'
p6852
I3390
sS'are'
p6853
I6884
sS'unsure'
p6854
I6885
sS'bark'
p6855
I6886
sS'arm'
p6856
I6887
sS'sportswear'
p6857
I6888
sS'barn'
p6858
I6889
sS'crunching'
p6859
I6890
sS'recording'
p6860
I6891
sS'learns'
p6861
I6892
sS'gravestones'
p6862
I6893
sS'distinctive'
p6863
I6894
sS'slapped'
p6864
I6895
sS'ups'
p6865
I3673
sS'various'
p6866
I6896
sS'creating'
p6867
I6897
sS'attention'
p6868
I6898
sS'outfit'
p6869
I6899
sS'opposition'
p6870
I6900
sS'betrayed'
p6871
I6901
sS'lap'
p6872
I1966
sS'blazer'
p6873
I6902
sS'blazes'
p6874
I6903
sS'hesitant'
p6875
I3505
sS'roman'
p6876
I3516
sS'witch'
p6877
I6906
sS'sauntering'
p6878
I6907
sS'finds'
p6879
I6908
sS'sheathe'
p6880
I6909
sS'sloth'
p6881
I6910
sS'flies'
p6882
I6911
sS'guts'
p6883
I7431
sS'clashing'
p6884
I6912
sS'sweet'
p6885
I6913
sS'sweep'
p6886
I6914
sS'revving'
p6887
I3563
sS'crisps'
p6888
I3570
sS'goats'
p6889
I6917
sS'startling'
p6890
I2638
sS'suspenders'
p6891
I6919
sS'dun'
p6892
I6920
sS'all'
p6893
I6921
sS'hoops'
p6894
I6922
sS'overlook'
p6895
I6923
sS'strategy'
p6896
I3596
sS'whom'
p6897
I6925
sS'brick'
p6898
I6926
sS'attractive'
p6899
I7435
sS'affectionate'
p6900
I6927
sS'siting'
p6901
I6928
sS'referee'
p6902
I6929
sS'flight'
p6903
I6930
sS'sending'
p6904
I6931
sS'transferring'
p6905
I6932
sS'rocking'
p6906
I6933
sS'instructor'
p6907
I6934
sS'toga'
p6908
I6935
sS'toppling'
p6909
I6936
sS'shove'
p6910
I6937
sS'guarding'
p6911
I6938
sS'frozen'
p6912
I6939
sS'footballer'
p6913
I6940
sS'parachutes'
p6914
I6941
sS'barricade'
p6915
I6942
sS'homework'
p6916
I6943
sS'handbrake'
p6917
I6944
sS'welding'
p6918
I6945
sS'identical'
p6919
I7440
sS'strapless'
p6920
I6947
sS'riv'
p6921
I6948
sS'demon'
p6922
I6949
sS'leans'
p6923
I859
sS'obstacle'
p6924
I6951
sS'nightstand'
p6925
I6952
sS'lodged'
p6926
I6953
sS'rig'
p6927
I6954
sS'rid'
p6928
I6955
sS'rib'
p6929
I6956
sS'wriggles'
p6930
I6957
sS'chauffeur'
p6931
I6958
sS'lengthy'
p6932
I6959
sS'shirt'
p6933
I6960
sS'parading'
p6934
I6961
sS'propping'
p6935
I6962
sS'shire'
p6936
I6963
sS'widely'
p6937
I6964
sS'peoples'
p6938
I6965
sS'higher'
p6939
I6966
sS'arrives'
p6940
I6967
sS'cartridge'
p6941
I6968
sS'paths'
p6942
I6969
sS'fastens'
p6943
I6812
sS'negotiate'
p6944
I6971
sS'cement'
p6945
I6972
sS'flown'
p6946
I6973
sS'moving'
p6947
I6974
sS'uneasily'
p6948
I6975
sS'deflects'
p6949
I6976
sS'lower'
p6950
I6977
sS'noodle'
p6951
I6978
sS'spaceman'
p6952
I6979
sS'cheek'
p6953
I6980
sS'bounces'
p6954
I3862
sS'cheer'
p6955
I6982
sS'edge'
p6956
I6983
sS'machinery'
p6957
I6984
sS'bounced'
p6958
I6985
sS'stating'
p6959
I6986
sS'carport'
p6960
I6987
sS'pigeons'
p6961
I6988
sS'catchers'
p6962
I7446
sS'questions'
p6963
I6991
sS'tables'
p6964
I6992
sS'intersection'
p6965
I2815
sS'tablet'
p6966
I6994
sS'workers'
p6967
I6995
sS'tormented'
p6968
I6996
sS'acrobatics'
p6969
I6997
sS'customers'
p6970
I6998
sS'doorbell'
p6971
I6999
sS'manatee'
p6972
I7000
sS'entangled'
p6973
I7001
sS'glittery'
p6974
I7002
sS'rotate'
p6975
I7003
sS'shaped'
p6976
I7005
sS'confront'
p6977
I7006
sS'separately'
p6978
I7007
sS'collect'
p6979
I7008
sS'nipple'
p6980
I7009
sS'sprinklers'
p6981
I7010
sS'jumpsuits'
p6982
I7011
sS'piglet'
p6983
I7012
sS'eluding'
p6984
I7013
sS'streaming'
p6985
I7014
sS'litter'
p6986
I7015
sS'grenades'
p6987
I4117
sS'saucer'
p6988
I7017
sS'gradually'
p6989
I7018
sS'jumpy'
p6990
I7019
sS'jumps'
p6991
I7020
sS'perpendicular'
p6992
I7021
sS'zombie'
p6993
I7022
sS'aloft'
p6994
I7023
sS'upraised'
p6995
I7024
sS'cannons'
p6996
I7025
sS'tryst'
p6997
I7026
sS'intense'
p6998
I7027
sS'sporty'
p6999
I7028
sS'completing'
p7000
I7029
sS'firing'
p7001
I7030
sS'range'
p7002
I7031
sS'greets'
p7003
I7032
sS'dialog'
p7004
I7033
sS'fluttering'
p7005
I7034
sS'undoing'
p7006
I7035
sS'blouses'
p7007
I7036
sS'mustaches'
p7008
I7037
sS'curtsy'
p7009
I7038
sS'strumming'
p7010
I7039
sS'couches'
p7011
I6759
sS'impressed'
p7012
I7040
sS'rows'
p7013
I7041
sS'sequence'
p7014
I7457
sS'lone'
p7015
I4329
sS'long'
p7016
I4332
sS'baggy'
p7017
I7045
sS'peeler'
p7018
I7046
sS'mimicry'
p7019
I7047
sS'mountains'
p7020
I7048
sS'forlornly'
p7021
I7049
sS'cloth'
p7022
I7050
sS'upright'
p7023
I7051
sS'crane'
p7024
I7052
sS'raising'
p7025
I7053
sS'penguin'
p7026
I7054
sS'caller'
p7027
I7055
sS'fries'
p7028
I7056
sS'stalking'
p7029
I7057
sS'cartwheel'
p7030
I7058
sS'fried'
p7031
I7059
sS'called'
p7032
I7060
sS'modeled'
p7033
I7061
sS'soars'
p7034
I7063
sS'bicep'
p7035
I7064
sS'rally'
p7036
I7065
sS'rainbow'
p7037
I7066
sS'rainy'
p7038
I7067
sS'lemon'
p7039
I7068
sS'peach'
p7040
I7069
sS'rains'
p7041
I7070
sS'swats'
p7042
I7071
sS'peace'
p7043
I7072
sS'backs'
p7044
I7073
sS'grouped'
p7045
I7074
sS'parlor'
p7046
I7075
sS'nice'
p7047
I7076
sS'hammerhead'
p7048
I7077
sS'vaulting'
p7049
I7078
sS'mustard'
p7050
I7079
sS'trowing'
p7051
I4559
sS'breasts'
p7052
I7081
sS'helping'
p7053
I7082
sS'insect'
p7054
I4577
sS'allowing'
p7055
I7084
sS'posters'
p7056
I7085
sS'vaseline'
p7057
I7086
sS'attacking'
p7058
I7087
sS'waxing'
p7059
I7088
sS'weights'
p7060
I7089
sS'broad'
p7061
I7090
sS'joining'
p7062
I7091
sS'scroll'
p7063
I7092
sS'once'
p7064
I4652
sS'wrestle'
p7065
I7094
sS'hooks'
p7066
I7095
sS'alien'
p7067
I7096
sS'windy'
p7068
I7097
sS'gang'
p7069
I7098
sS'dumbbell'
p7070
I7099
sS'magnifying'
p7071
I7100
sS'kimonos'
p7072
I4719
sS'leap'
p7073
I7467
sS'squeezing'
p7074
I7104
sS'stable'
p7075
I7105
sS'fences'
p7076
I7106
sS'fencer'
p7077
I4749
sS'sniper'
p7078
I7108
sS'rag'
p7079
I7109
sS'mewing'
p7080
I7110
sS'breathing'
p7081
I7111
sS'ladle'
p7082
I7112
sS'spool'
p7083
I4775
sS'spoon'
p7084
I7114
sS'graphic'
p7085
I7115
sS'seaway'
p7086
I7116
sS'noose'
p7087
I7469
sS'sheds'
p7088
I7118
sS'drinking'
p7089
I7119
sS'tutu'
p7090
I7120
sS'housecoat'
p7091
I7121
sS'notes'
p7092
I7122
sS'snails'
p7093
I7123
sS'smaller'
p7094
I7124
sS'plows'
p7095
I4862
sS'flashlights'
p7096
I7126
sS'folds'
p7097
I7127
sS'wrestling'
p7098
I7128
sS'perched'
p7099
I4926
sS'traveling'
p7100
I7130
sS'reunion'
p7101
I7131
sS'undergarments'
p7102
I7132
sS'checkers'
p7103
I7133
sS'blobs'
p7104
I7134
sS'sables'
p7105
I7135
sS'waiting'
p7106
I7136
sS'attire'
p7107
I7137
sS'cozy'
p7108
I4951
sS'degree'
p7109
I7139
sS'kangaroo'
p7110
I7140
sS'pushing'
p7111
I7141
sS'indicator'
p7112
I7142
sS'swirled'
p7113
I7143
sS'sexy'
p7114
I7144
sS'settling'
p7115
I4990
sS'distressed'
p7116
I7146
sS'larger'
p7117
I5004
sS'shades'
p7118
I7148
sS'leaving'
p7119
I7149
sS'engine'
p7120
I6427
sS'headless'
p7121
I7150
sS'orangutan'
p7122
I7151
sS'armpit'
p7123
I7152
sS'snobby'
p7124
I7153
sS'pajama'
p7125
I7154
sS'shovel'
p7126
I7155
sS'slinging'
p7127
I7004
sS'app'
p7128
I7157
sS'shoved'
p7129
I7158
sS'dropper'
p7130
I6214
sS'droops'
p7131
I7160
sS'motor'
p7132
I7161
sS'duck'
p7133
I5910
sS'apply'
p7134
I7163
sS'walruses'
p7135
I7164
sS'shoves'
p7136
I7165
sS'ape'
p7137
I7166
sS'fed'
p7138
I4263
sS'from'
p7139
I7168
sS'usb'
p7140
I5089
sS'iced'
p7141
I7170
sS'rackets'
p7142
I5096
sS'few'
p7143
I7172
sS'examination'
p7144
I7173
sS'weeping'
p7145
I7174
sS'eagles'
p7146
I7175
sS'sort'
p7147
I7176
sS'porch'
p7148
I7177
sS'musician'
p7149
I7178
sS'parrots'
p7150
I7179
sS'rabbit'
p7151
I7180
sS'women'
p7152
I7181
sS'annoy'
p7153
I7182
sS'heard'
p7154
I7113
sS'slaps'
p7155
I7184
sS'stroke'
p7156
I7185
sS'anywhere'
p7157
I7186
sS'posing'
p7158
I7187
sS'biscuit'
p7159
I7483
sS'proof'
p7160
I5200
sS'tap'
p7161
I7190
sS'thirsty'
p7162
I7191
sS'spying'
p7163
I5208
sS'dripping'
p7164
I7193
sS'carrot'
p7165
I5222
sS'something'
p7166
I7195
sS'tab'
p7167
I7196
sS'recklessly'
p7168
I7197
sS'tan'
p7169
I7198
sS'sip'
p7170
I7199
sS'sit'
p7171
I7200
sS'bungee'
p7172
I7201
sS'six'
p7173
I5262
sS'struggles'
p7174
I7203
sS'tickling'
p7175
I7204
sS'slamming'
p7176
I7205
sS'instead'
p7177
I7206
sS'toddler'
p7178
I7207
sS'panic'
p7179
I7208
sS'typewriter'
p7180
I7209
sS'puppets'
p7181
I5293
sS'cupboard'
p7182
I7211
sS'immersed'
p7183
I7212
sS'masks'
p7184
I7213
sS'tack'
p7185
I7214
sS'wrist'
p7186
I7215
sS'convulsing'
p7187
I7216
sS'sculptures'
p7188
I7217
sS'light'
p7189
I7218
sS'interrupted'
p7190
I7219
sS'scrubs'
p7191
I7220
sS'takeaway'
p7192
I5364
sS'necklace'
p7193
I7222
sS'martini'
p7194
I7223
sS'stamped'
p7195
I7224
sS'whilst'
p7196
I7225
sS'looks'
p7197
I7226
sS'badges'
p7198
I7227
sS'write'
p7199
I1866
sS'frightening'
p7200
I7229
sS'glee'
p7201
I7230
sS'ships'
p7202
I7231
sS'restrain'
p7203
I7232
sS'turban'
p7204
I600
sS'orange'
p7205
I7234
sS'covered'
p7206
I7235
sS'holiday'
p7207
I7236
sS'flex'
p7208
I7237
sS'crash'
p7209
I7238
sS'fourth'
p7210
I6223
sS'flour'
p7211
I7240
sS'practice'
p7212
I5477
sS'oranges'
p7213
I5479
sS'decapitate'
p7214
I7243
sS'easel'
p7215
I7244
sS'pirouetting'
p7216
I6486
sS'drummers'
p7217
I7245
sS'trap'
p7218
I7246
sS'cocoon'
p7219
I7247
sS'bills'
p7220
I7248
sS'tray'
p7221
I7249
sS'cry'
p7222
I7250
sS'related'
p7223
I7251
sS'snorkeling'
p7224
I7252
sS'out'
p7225
I7253
sS'eights'
p7226
I6154
sS'performs'
p7227
I5617
sS'hollering'
p7228
I7256
sS'supports'
p7229
I5628
sS'burrowing'
p7230
I7258
sS'pours'
p7231
I7259
sS'pendant'
p7232
I7260
sS'dumpster'
p7233
I7261
sS'van'
p7234
I7500
sS'overtake'
p7235
I5691
sS'conversation'
p7236
I7264
sS'biting'
p7237
I7265
sS'bouquet'
p7238
I7266
sS'bonnet'
p7239
I7267
sS'proposing'
p7240
I7268
sS'steamy'
p7241
I7269
sS'kidding'
p7242
I7504
sS'umbrellas'
p7243
I7271
sS'unknown'
p7244
I7272
sS'retreats'
p7245
I7273
sS'their'
p7246
I7274
sS'motorcar'
p7247
I7275
sS'shell'
p7248
I5846
sS'consoling'
p7249
I7277
sS'shelf'
p7250
I7278
sS'shallow'
p7251
I7279
sS'dreadlocks'
p7252
I7280
sS'slides'
p7253
I7281
sS'reflecting'
p7254
I7282
sS'reverses'
p7255
I7283
sS'remember'
p7256
I7284
sS'succeeded'
p7257
I7285
sS'behinds'
p7258
I7286
sS'sculpture'
p7259
I7287
sS'faints'
p7260
I7288
sS'hairstyle'
p7261
I7289
sS'teenagers'
p7262
I7290
sS'alerted'
p7263
I7291
sS'racetrack'
p7264
I7292
sS'intersecting'
p7265
I7293
sS'clove'
p7266
I7294
sS'afraid'
p7267
I7295
sS'angle'
p7268
I7296
sS'pupils'
p7269
I7297
sS'rearranges'
p7270
I7298
sS'which'
p7271
I7299
sS'divers'
p7272
I7300
sS'vegetation'
p7273
I7301
sS'clash'
p7274
I6041
sS'knees'
p7275
I7303
sS'who'
p7276
I7304
sS'cracking'
p7277
I7305
sS'alarmed'
p7278
I7306
sS'peignoir'
p7279
I6071
sS'clasp'
p7280
I7308
sS'looked'
p7281
I6097
sS'strawberries'
p7282
I7310
sS'cloaked'
p7283
I7311
sS'swarming'
p7284
I7312
sS'balding'
p7285
I7313
sS'stove'
p7286
I7314
sS'chicken'
p7287
I6160
sS'darkest'
p7288
I7316
sS'pleased'
p7289
I7317
sS'filmed'
p7290
I7318
sS'clutching'
p7291
I7319
sS'combs'
p7292
I7320
sS'surroundings'
p7293
I7321
sS'piano'
p7294
I6204
sS'thousands'
p7295
I7323
sS'threateningly'
p7296
I7325
sS'vigor'
p7297
I6213
sS'cube'
p7298
I7327
sS'skims'
p7299
I7328
sS'watching'
p7300
I7329
sS'flirting'
p7301
I7330
sS'ones'
p7302
I7331
sS'cubs'
p7303
I7332
sS'words'
p7304
I7333
sS'bronco'
p7305
I7334
sS'chips'
p7306
I7335
sS'yowls'
p7307
I7336
sS'bellies'
p7308
I7337
sS'married'
p7309
I7338
sS'cleavage'
p7310
I7339
sS'futuristic'
p7311
I7340
sS'view'
p7312
I6291
sS'unison'
p7313
I7342
sS'shedding'
p7314
I7343
sS'signed'
p7315
I7344
sS'frameqaorters'
p7316
I7345
sS'closer'
p7317
I7346
sS'closes'
p7318
I7347
sS'braid'
p7319
I7348
sS'gliders'
p7320
I7349
sS'closet'
p7321
I7350
sS'cruel'
p7322
I7351
sS'favor'
p7323
I7352
sS'identification'
p7324
I7353
sS'closed'
p7325
I7354
sS'wetting'
p7326
I7355
sS'torpedo'
p7327
I7356
sS'frustrated'
p7328
I7357
sS'pants'
p7329
I7358
sS'opening'
p7330
I7359
sS'joy'
p7331
I7360
sS'beverages'
p7332
I7361
sS'embarrassment'
p7333
I7362
sS'renault'
p7334
I7363
sS'aircraft'
p7335
I7364
sS'tactical'
p7336
I7365
sS'canopy'
p7337
I7366
sS'safely'
p7338
I7367
sS'grounds'
p7339
I7368
sS'splaying'
p7340
I7369
sS'wall'
p7341
I7370
sS'shoving'
p7342
I7371
sS'walk'
p7343
I7372
sS'table'
p7344
I7373
sS'motorbike'
p7345
I7374
sS'hindu'
p7346
I7375
sS'cowboys'
p7347
I6521
sS'arbitrator'
p7348
I6555
sS'offers'
p7349
I6250
sS'mike'
p7350
I7377
sS'painted'
p7351
I7378
sS'interrupts'
p7352
I7379
sS'thrusting'
p7353
I7380
sS'overturn'
p7354
I7381
sS'present'
p7355
I7382
sS'eyelashes'
p7356
I7383
sS'corset'
p7357
I7384
sS'fearful'
p7358
I7385
sS'align'
p7359
I6638
sS'cursor'
p7360
I6647
sS'hovering'
p7361
I3427
sS'fingertip'
p7362
I7389
sS'wild'
p7363
I7390
sS'wile'
p7364
I7391
sS'layer'
p7365
I7392
sS'ringing'
p7366
I7393
sS'rooster'
p7367
I7394
sS'draining'
p7368
I7395
sS'audiences'
p7369
I6700
sS'dual'
p7370
I6703
sS'emotively'
p7371
I7398
sS'steeling'
p7372
I7399
sS'glistens'
p7373
I7400
sS'unzipping'
p7374
I7401
sS'vintage'
p7375
I7402
sS'headlight'
p7376
I7403
sS'cross'
p7377
I7404
sS'member'
p7378
I7405
sS'inch'
p7379
I7406
sS'gets'
p7380
I7407
sS'difficult'
p7381
I7408
sS'cellphones'
p7382
I7409
sS'swiped'
p7383
I5698
sS'student'
p7384
I7410
sS'whale'
p7385
I7411
sS'lobby'
p7386
I6807
sS'gutter'
p7387
I7413
sS'banging'
p7388
I7414
sS'fighting'
p7389
I7415
sS'scissor'
p7390
I7416
sS'twirl'
p7391
I7417
sS'bandanna'
p7392
I7418
sS'bending'
p7393
I7419
sS'rocket'
p7394
I7420
sS'heavily'
p7395
I6860
sS'pickings'
p7396
I7528
sS'cries'
p7397
I7423
sS'tussles'
p7398
I7424
sS'fishing'
p7399
I7425
sS'rocked'
p7400
I7426
sS'happiness'
p7401
I7427
sS'elaborating'
p7402
I7428
sS'console'
p7403
I7429
sS'panther'
p7404
I7430
sS'bell'
p7405
I7062
sS'sky'
p7406
I7432
sS'roars'
p7407
I7532
sS'pframeqaping'
p7408
I7324
sS'book'
p7409
I7533
sS'galloping'
p7410
I2475
sS'sparking'
p7411
I7436
sS'jars'
p7412
I7437
sS'ski'
p7413
I7438
sS'enact'
p7414
I7439
sS'boom'
p7415
I7534
sS'knob'
p7416
I6946
sS'escorting'
p7417
I7441
sS'masquerade'
p7418
I7442
sS'interrogation'
p7419
I7443
sS'know'
p7420
I7444
sS'facial'
p7421
I7445
sS'raincoats'
p7422
I6989
sS'press'
p7423
I7447
sS'doughnut'
p7424
I7448
sS'name'
p7425
I7449
sS'miami'
p7426
I7450
sS'loses'
p7427
I7451
sS'corners'
p7428
I7452
sS'starred'
p7429
I7453
sS'wonders'
p7430
I7454
sS'because'
p7431
I7455
sS'retractable'
p7432
I7456
sS'tumble'
p7433
I7042
sS'scared'
p7434
I7458
sS'searching'
p7435
I7459
sS'elks'
p7436
I7460
sS'twirling'
p7437
I7461
sS'gave'
p7438
I6010
sS'whiteboards'
p7439
I7462
sS'scares'
p7440
I7463
sS'leaf'
p7441
I7464
sS'lead'
p7442
I7465
sS'lean'
p7443
I7466
sS'floss'
p7444
I7102
sS'campfire'
p7445
I7103
sS'earrings'
p7446
I7117
sS'leader'
p7447
I7470
sS'ripped'
p7448
I7471
sS'murderer'
p7449
I7472
sS'dangling'
p7450
I7473
sS'mitt'
p7451
I7474
sS'pasta'
p7452
I7475
sS'paste'
p7453
I7476
sS'throne'
p7454
I7477
sS'pike'
p7455
I7478
sS'rare'
p7456
I7479
sS'carried'
p7457
I7480
sS'getting'
p7458
I7481
sS'column'
p7459
I7482
sS'spilled'
p7460
I7188
sS'carries'
p7461
I2109
sS'carrier'
p7462
I7485
sS'sweat'
p7463
I7486
sS'backstage'
p7464
I7487
sS'emperor'
p7465
I7488
sS'devouring'
p7466
I7489
sS'owl'
p7467
I7490
sS'bugle'
p7468
I7491
sS'own'
p7469
I7492
sS'gymnastic'
p7470
I7493
sS'headphone'
p7471
I7494
sS'pajamas'
p7472
I7495
sS'weather'
p7473
I7496
sS'promise'
p7474
I7497
sS'brush'
p7475
I7498
sS'uncontrollably'
p7476
I7499
sS'squishing'
p7477
I7262
sS'transfer'
p7478
I7501
sS'spiral'
p7479
I7502
sS'groomed'
p7480
I7503
sS'smoothing'
p7481
I7270
sS'busts'
p7482
I7505
sS'pouts'
p7483
I7506
sS'powdered'
p7484
I7507
sS'cliff'
p7485
I7541
sS'unwrap'
p7486
I7509
sS'sweatband'
p7487
I7510
sS'squeeze'
p7488
I7511
sS'goose'
p7489
I7512
sS'made'
p7490
I7513
sS'tomcat'
p7491
I7514
sS'nightgown'
p7492
I7515
sS'karts'
p7493
I7516
sS'record'
p7494
I7517
sS'below'
p7495
I7518
sS'cake'
p7496
I7519
sS'demonstrate'
p7497
I7520
sS'stirring'
p7498
I7521
sS'unfolding'
p7499
I7522
sS'maroon'
p7500
I7523
sS'spanks'
p7501
I7524
sS'trotting'
p7502
I7525
sS'trailing'
p7503
I7526
sS'limb'
p7504
I5204
sS'guitarist'
p7505
I7527
sS'boot'
p7506
I7422
sS'cave'
p7507
I7529
sS'monitors'
p7508
I7530
sS'smears'
p7509
I7531
sS'poms'
p7510
I2533
sS'other'
p7511
I7434
sS'es'
p7512
I3882
sS'branch'
p7513
I7535
sS'incredibly'
p7514
I7536
sS'junk'
p7515
I7537
sS'kinds'
p7516
I7538
sS'shredded'
p7517
I7539
sS'preform'
p7518
I7540
sS'upwards'
p7519
I7508
sS'dominoes'
p7520
I7542
sS'awake'
p7521
I7543
sS'laundromat'
p7522
I7544
sS'expands'
p7523
I7545
s.