(dp1
S'hats'
p2
I2
sS'yellow'
p3
I3
sS'woods'
p4
I4
sS'asian'
p5
I5
sS'hanging'
p6
I6
sS'shamble'
p7
I7
sS'untie'
p8
I8
sS'electricity'
p9
I9
sS'tickle'
p10
I10
sS'swat'
p11
I11
sS'unroll'
p12
I12
sS'bike'
p13
I13
sS'booties'
p14
I14
sS'under'
p15
I15
sS'sway'
p16
I16
sS'worth'
p17
I17
sS'fists'
p18
I18
sS'swivel'
p19
I19
sS'dispense'
p20
I20
sS'blanket'
p21
I21
sS'rise'
p22
I22
sS'smack'
p23
I23
sS'jack'
p24
I24
sS'harms'
p25
I25
sS'disturb'
p26
I27
sS'parrot'
p27
I28
sS'wooden'
p28
I29
sS'pinch'
p29
I30
sS'samurai'
p30
I31
sS'crotch'
p31
I32
sS'ups'
p32
I33
sS'clothes'
p33
I34
sS'chew'
p34
I35
sS'force'
p35
I36
sS'bacon'
p36
I37
sS'direct'
p37
I38
sS'pulse'
p38
I39
sS'horn'
p39
I40
sS'nail'
p40
I41
sS'second'
p41
I42
sS'street'
p42
I43
sS'panda'
p43
I44
sS'blue'
p44
I45
sS'hide'
p45
I46
sS'fingers'
p46
I47
sS'lights'
p47
I48
sS'above'
p48
I49
sS'cars'
p49
I832
sS'new'
p50
I51
sS'net'
p51
I52
sS'crunch'
p52
I53
sS'crouch'
p53
I54
sS'chins'
p54
I55
sS'pancakes'
p55
I56
sS'men'
p56
I57
sS'here'
p57
I58
sS'deposition'
p58
I59
sS'active'
p59
I60
sS'cubical'
p60
I61
sS'kids'
p61
I62
sS'luggage'
p62
I63
sS'items'
p63
I64
sS'leaves'
p64
I65
sS'gymnast'
p65
I1254
sS'smoke'
p66
I67
sS'eyebrows'
p67
I68
sS'hunch'
p68
I69
sS'straw'
p69
I71
sS'cons'
p70
I72
sS'punching'
p71
I73
sS'glance'
p72
I74
sS'bra'
p73
I75
sS'opponents'
p74
I76
sS'swings'
p75
I525
sS'fingernails'
p76
I78
sS'sweater'
p77
I79
sS'coins'
p78
I80
sS'arms'
p79
I81
sS'insult'
p80
I82
sS'music'
p81
I83
sS'chinchilla'
p82
I84
sS'strike'
p83
I85
sS'type'
p84
I86
sS'blueberry'
p85
I87
sS'breathe'
p86
I88
sS'holy'
p87
I89
sS'expose'
p88
I90
sS'training'
p89
I91
sS'award'
p90
I92
sS'lunge'
p91
I93
sS'glass'
p92
I94
sS'adult'
p93
I95
sS'breaths'
p94
I96
sS'hole'
p95
I97
sS'hold'
p96
I98
sS'blindfold'
p97
I99
sS'shoot'
p98
I100
sS'peekaboo'
p99
I101
sS'bunnies'
p100
I102
sS'room'
p101
I103
sS'blade'
p102
I104
sS'eclipse'
p103
I105
sS'worm'
p104
I106
sS'roof'
p105
I107
sS'locker'
p106
I108
sS'cuddle'
p107
I109
sS'elbow'
p108
I110
sS'exhale'
p109
I111
sS'plunger'
p110
I112
sS'transition'
p111
I113
sS'foodie'
p112
I114
sS'wand'
p113
I115
sS'give'
p114
I116
sS'nozzle'
p115
I117
sS'dolphin'
p116
I118
sS'dragons'
p117
I120
sS'madonna'
p118
I121
sS'brest'
p119
I122
sS'end'
p120
I123
sS'pogo'
p121
I124
sS'thing'
p122
I125
sS'travel'
p123
I126
sS'braids'
p124
I127
sS'machine'
p125
I128
sS'how'
p126
I129
sS'hot'
p127
I130
sS'drummer'
p128
I131
sS'hop'
p129
I132
sS'cheetah'
p130
I133
sS'chase'
p131
I1675
sS'beach'
p132
I134
sS'pizza'
p133
I135
sS'pokes'
p134
I136
sS'mess'
p135
I137
sS'ladder'
p136
I138
sS'after'
p137
I139
sS'jumping'
p138
I140
sS'lay'
p139
I141
sS'sparkler'
p140
I858
sS'lap'
p141
I143
sS'attempt'
p142
I144
sS'third'
p143
I145
sS'pulsate'
p144
I146
sS'wink'
p145
I148
sS'green'
p146
I149
sS'enter'
p147
I150
sS'wing'
p148
I151
sS'squint'
p149
I925
sS'hedgehog'
p150
I153
sS'flippers'
p151
I154
sS'popsicle'
p152
I155
sS'pelican'
p153
I156
sS'over'
p154
I157
sS'fall'
p155
I1267
sS'teen'
p156
I572
sS'oven'
p157
I159
sS'keyboard'
p158
I160
sS'windshield'
p159
I161
sS'before'
p160
I162
sS'somewhere'
p161
I164
sS'fix'
p162
I165
sS','
I166
sS'carve'
p163
I167
sS'fin'
p164
I168
sS'split'
p165
I169
sS'coffee'
p166
I170
sS'collide'
p167
I171
sS'break'
p168
I172
sS'band'
p169
I173
sS'bang'
p170
I174
sS'giraffe'
p171
I175
sS'velcro'
p172
I176
sS'interrupt'
p173
I177
sS'disburse'
p174
I163
sS'silver'
p175
I179
sS'bread'
p176
I180
sS'meat'
p177
I181
sS'potatoes'
p178
I182
sS'rocks'
p179
I183
sS'explode'
p180
I184
sS'filling'
p181
I185
sS'victory'
p182
I186
sS'arrow'
p183
I187
sS'each'
p184
I188
sS'puppet'
p185
I2080
sS'side'
p186
I190
sS'bone'
p187
I191
sS'lifted'
p188
I192
sS'hanger'
p189
I193
sS'snakes'
p190
I194
sS'spider'
p191
I195
sS'sled'
p192
I196
sS'lifter'
p193
I197
sS'juggling'
p194
I198
sS'navy'
p195
I199
sS'ring'
p196
I200
sS'whip'
p197
I201
sS'clothe'
p198
I202
sS'pounce'
p199
I203
sS'itch'
p200
I1682
sS'driving'
p201
I205
sS'haired'
p202
I206
sS'forty'
p203
I207
sS'forth'
p204
I208
sS'sliding'
p205
I209
sS'peddles'
p206
I862
sS'turning'
p207
I211
sS'waddle'
p208
I212
sS'fave'
p209
I213
sS'grapes'
p210
I214
sS'putts'
p211
I215
sS'hand'
p212
I216
sS'knit'
p213
I217
sS'lollipop'
p214
I218
sS'ate'
p215
I219
sS'soda'
p216
I220
sS'moving'
p217
I1689
sS'onto'
p218
I222
sS'shopper'
p219
I223
sS'hoop'
p220
I224
sS'puck'
p221
I225
sS'veggie'
p222
I226
sS'hoot'
p223
I227
sS'wash'
p224
I228
sS'spinning'
p225
I229
sS'downside'
p226
I230
sS'another'
p227
I231
sS'bicycle'
p228
I232
sS'hoof'
p229
I234
sS'hood'
p230
I235
sS'centrifuge'
p231
I236
sS'basketball'
p232
I237
sS'top'
p233
I238
sS'girls'
p234
I240
sS'twisted'
p235
I241
sS'vibrate'
p236
I242
sS'master'
p237
I243
sS'fumble'
p238
I244
sS'inflate'
p239
I245
sS'legs'
p240
I246
sS'dogs'
p241
I247
sS'toe'
p242
I248
sS'kiwi'
p243
I249
sS'ceiling'
p244
I250
sS'emblem'
p245
I251
sS'feathers'
p246
I252
sS'tool'
p247
I253
sS'brushes'
p248
I254
sS'serve'
p249
I255
sS'prosthetic'
p250
I1544
sS'cereal'
p251
I257
sS'crawl'
p252
I258
sS'chef'
p253
I767
sS'icicle'
p254
I260
sS'tree'
p255
I261
sS'seated'
p256
I262
sS'shower'
p257
I263
sS'flame'
p258
I264
sS'mermaid'
p259
I871
sS'iron'
p260
I266
sS'bridge'
p261
I267
sS'donkey'
p262
I268
sS'ran'
p263
I269
sS'pretend'
p264
I1872
sS'paddles'
p265
I270
sS'rat'
p266
I271
sS'seed'
p267
I1666
sS'nipples'
p268
I273
sS'escalator'
p269
I274
sS'snow'
p270
I275
sS'snot'
p271
I276
sS'chest'
p272
I277
sS'chuckle'
p273
I1288
sS'doors'
p274
I279
sS'snowflake'
p275
I280
sS'circles'
p276
I281
sS'wrists'
p277
I283
sS'bruce'
p278
I284
sS'object'
p279
I285
sS'phonograph'
p280
I286
sS'mouth'
p281
I287
sS'letter'
p282
I288
sS'exercises'
p283
I289
sS'coin'
p284
I290
sS'jean'
p285
I291
sS'singer'
p286
I293
sS'flop'
p287
I294
sS'flow'
p288
I295
sS'dog'
p289
I296
sS'crowd'
p290
I552
sS'points'
p291
I298
sS'deeply'
p292
I1293
sS'parakeet'
p293
I1815
sS'scream'
p294
I300
sS'dot'
p295
I301
sS'yank'
p296
I302
sS'bomb'
p297
I303
sS'lyrics'
p298
I304
sS'random'
p299
I1062
sS'skitter'
p300
I306
sS'colors'
p301
I307
sS'radio'
p302
I308
sS'peddle'
p303
I309
sS'toast'
p304
I310
sS'flowers'
p305
I1112
sS'bust'
p306
I312
sS'sugar'
p307
I313
sS'cougar'
p308
I314
sS'knuckle'
p309
I315
sS'touched'
p310
I316
sS'folder'
p311
I317
sS'rice'
p312
I318
sS'wearing'
p313
I319
sS'do'
p314
I320
sS'tiles'
p315
I321
sS'sunglasses'
p316
I322
sS'colorful'
p317
I323
sS'watch'
p318
I324
sS'foremost'
p319
I325
sS'pocket'
p320
I326
sS'watermelon'
p321
I327
sS'wedding'
p322
I328
sS'pawed'
p323
I329
sS'bat'
p324
I330
sS'bar'
p325
I331
sS'tights'
p326
I332
sS'boarder'
p327
I333
sS'patch'
p328
I334
sS'bag'
p329
I335
sS'eyelids'
p330
I336
sS'discs'
p331
I337
sS'shots'
p332
I338
sS'release'
p333
I339
sS'steam'
p334
I340
sS'ears'
p335
I341
sS'habit'
p336
I342
sS'liquor'
p337
I343
sS'nun'
p338
I345
sS'bed'
p339
I2103
sS'noodles'
p340
I347
sS'hammer'
p341
I348
sS'hairbrush'
p342
I349
sS'away'
p343
I350
sS'rings'
p344
I351
sS'mud'
p345
I352
sS'mug'
p346
I353
sS'score'
p347
I354
sS'finger'
p348
I355
sS'shaver'
p349
I356
sS'approach'
p350
I357
sS'pirate'
p351
I358
sS'360'
p352
I359
sS'wears'
p353
I360
sS'extend'
p354
I361
sS'handful'
p355
I362
sS'veil'
p356
I2416
sS'toothbrush'
p357
I363
sS'cut'
p358
I1713
sS'ramps'
p359
I365
sS'unfold'
p360
I366
sS'wheelbarrow'
p361
I367
sS'roller'
p362
I368
sS'cop'
p363
I369
sS'veer'
p364
I370
sS'eyeball'
p365
I371
sS'jelly'
p366
I372
sS'against'
p367
I373
sS'bodysuit'
p368
I374
sS'players'
p369
I375
sS'cob'
p370
I376
sS'faces'
p371
I377
sS'#START#'
p372
I0
sS'and'
p373
I886
sS'widen'
p374
I379
sS'spear'
p375
I380
sS'appeared'
p376
I381
sS'had'
p377
I382
sS'cobble'
p378
I383
sS'2nd'
p379
I384
sS'springy'
p380
I385
sS'towels'
p381
I386
sS'blonde'
p382
I387
sS'heals'
p383
I388
sS'hitler'
p384
I389
sS'headlights'
p385
I390
sS'bathroom'
p386
I391
sS'clip'
p387
I2110
sS'ropes'
p388
I393
sS'three'
p389
I395
sS'beer'
p390
I396
sS'trigger'
p391
I397
sS'basin'
p392
I398
sS'tallest'
p393
I399
sS'teenager'
p394
I400
sS'spit'
p395
I401
sS'droplets'
p396
I402
sS'worker'
p397
I403
sS'lift'
p398
I404
sS'hoist'
p399
I405
sS'child'
p400
I406
sS'catch'
p401
I407
sS'spin'
p402
I408
sS'tank'
p403
I409
sS'shrink'
p404
I410
sS'air'
p405
I411
sS'near'
p406
I736
sS'thrash'
p407
I413
sS'balance'
p408
I414
sS'armband'
p409
I415
sS'cane'
p410
I416
sS'is'
p411
I417
sS'it'
p412
I418
sS'player'
p413
I419
sS'tissue'
p414
I420
sS'cans'
p415
I421
sS'in'
p416
I422
sS'violin'
p417
I423
sS"girls'"
p418
I424
sS'mouse'
p419
I425
sS'id'
p420
I426
sS'if'
p421
I427
sS'growl'
p422
I428
sS'bottles'
p423
I429
sS'nike'
p424
I147
sS'perform'
p425
I431
sS'things'
p426
I432
sS'make'
p427
I433
sS'forehead'
p428
I434
sS'belly'
p429
I435
sS'babies'
p430
I436
sS'vegetable'
p431
I437
sS'plates'
p432
I438
sS'bunny'
p433
I439
sS'wheel'
p434
I440
sS'outstretch'
p435
I441
sS'moose'
p436
I442
sS'rail'
p437
I443
sS'rain'
p438
I444
sS'kit'
p439
I445
sS'squat'
p440
I899
sS'characters'
p441
I447
sS'unicorn'
p442
I448
sS'nip'
p443
I449
sS'nit'
p444
I450
sS'kid'
p445
I451
sS'duster'
p446
I1952
sS'drip'
p447
I452
sS'contact'
p448
I453
sS'tombstone'
p449
I454
sS'mother'
p450
I455
sS'the'
p451
I456
sS'musical'
p452
I457
sS'left'
p453
I458
sS'athletic'
p454
I459
sS'photo'
p455
I460
sS'laptop'
p456
I461
sS'moonwalk'
p457
I462
sS'rodent'
p458
I463
sS'fighters'
p459
I464
sS'thumbs'
p460
I465
sS'human'
p461
I466
sS'yes'
p462
I467
sS'brandish'
p463
I468
sS'note'
p464
I905
sS'nudge'
p465
I470
sS'han'
p466
I471
sS'character'
p467
I472
sS'shout'
p468
I473
sS'spread'
p469
I474
sS'board'
p470
I475
sS'contestant'
p471
I476
sS'match'
p472
I2297
sS'hat'
p473
I477
sS'credit'
p474
I430
sS'boxes'
p475
I479
sS'boxer'
p476
I480
sS'background'
p477
I481
sS'cape'
p478
I482
sS'shadow'
p479
I483
sS'apart'
p480
I484
sS'shoulder'
p481
I485
sS'cooler'
p482
I486
sS'performing'
p483
I487
sS'zoom'
p484
I488
sS'unsuspecting'
p485
I489
sS'pavement'
p486
I490
sS'steps'
p487
I491
sS'officer'
p488
I492
sS'zombies'
p489
I493
sS'surf'
p490
I494
sS'right'
p491
I495
sS'old'
p492
I496
sS'deal'
p493
I497
sS'people'
p494
I498
sS'staff'
p495
I2146
sS'crown'
p496
I499
sS'elderly'
p497
I500
sS'sponge'
p498
I501
sS'hassle'
p499
I502
sS'flatten'
p500
I503
sS'escape'
p501
I504
sS'dear'
p502
I505
sS'creep'
p503
I506
sS'for'
p504
I507
sS'bottom'
p505
I508
sS'purple'
p506
I509
sS'fox'
p507
I510
sS'skateboarded'
p508
I511
sS'microwave'
p509
I512
sS'filming'
p510
I513
sS'treadmill'
p511
I514
sS'skateboarder'
p512
I515
sS'drink'
p513
I2262
sS'cord'
p514
I516
sS'peek'
p515
I517
sS'shaker'
p516
I518
sS'shakes'
p517
I519
sS'bold'
p518
I520
sS'peel'
p519
I521
sS'lefts'
p520
I522
sS'corn'
p521
I523
sS'trampoline'
p522
I673
sS'lamps'
p523
I526
sS'bolt'
p524
I527
sS'keeper'
p525
I704
sS'post'
p526
I529
sS'plug'
p527
I716
sS'slither'
p528
I531
sS'cowboy'
p529
I533
sS'meow'
p530
I534
sS'ribs'
p531
I535
sS'o'
I537
sS'magazine'
p532
I538
sS'twitch'
p533
I539
sS'octopus'
p534
I540
sS'sob'
p535
I541
sS'sheets'
p536
I542
sS'float'
p537
I543
sS'down'
p538
I544
sS'lies'
p539
I803
sS'clomp'
p540
I546
sS'bats'
p541
I547
sS'wrap'
p542
I548
sS'petting'
p543
I549
sS'stumble'
p544
I550
sS'wan'
p545
I551
sS'yawn'
p546
I1769
sS'fabric'
p547
I841
sS'wag'
p548
I553
sS'flying'
p549
I856
sS'fight'
p550
I555
sS'way'
p551
I556
sS'pipe'
p552
I2132
sS'call'
p553
I557
sS'was'
p554
I558
sS'war'
p555
I559
sS'fork'
p556
I560
sS'head'
p557
I561
sS'pirouette'
p558
I900
sS'fireworks'
p559
I563
sS"objects'"
p560
I564
sS'hear'
p561
I565
sS'otter'
p562
I566
sS'inside'
p563
I567
sS'attached'
p564
I568
sS'crystal'
p565
I569
sS'trim'
p566
I571
sS'zeroes'
p567
I816
sS'sidekick'
p568
I573
sS'sticks'
p569
I574
sS'forearm'
p570
I575
sS'toss'
p571
I576
sS'sidestep'
p572
I577
sS'ship'
p573
I578
sS'mold'
p574
I579
sS'trip'
p575
I580
sS'shit'
p576
I581
sS'flap'
p577
I1337
sS'crutches'
p578
I583
sS'saber'
p579
I584
sS'dotted'
p580
I585
sS'floor'
p581
I1063
sS'glacier'
p582
I587
sS'stake'
p583
I588
sS'tip'
p584
I589
sS'actor'
p585
I590
sS'zany'
p586
I591
sS'holding'
p587
I592
sS'papers'
p588
I593
sS'tie'
p589
I594
sS'smell'
p590
I595
sS'roll'
p591
I596
sS'picture'
p592
I597
sS"'s"
p593
I598
sS'sling'
p594
I1129
sS'football'
p595
I600
sS'fell'
p596
I601
sS'stoke'
p597
I602
sS'longer'
p598
I603
sS'bullet'
p599
I604
sS'phone'
p600
I605
sS'together'
p601
I606
sS'jacket'
p602
I607
sS'gorilla'
p603
I1213
sS'gyrate'
p604
I609
sS'time'
p605
I1222
sS'push'
p606
I611
sS'fasten'
p607
I612
sS'backward'
p608
I613
sS'coach'
p609
I614
sS'chain'
p610
I615
sS'dance'
p611
I616
sS'skip'
p612
I617
sS'skis'
p613
I618
sS'rod'
p614
I619
sS'switches'
p615
I620
sS'crocodile'
p616
I621
sS'shimmy'
p617
I622
sS'ice'
p618
I623
sS'skin'
p619
I624
sS'trashcan'
p620
I625
sS'chair'
p621
I626
sS'milk'
p622
I627
sS'row'
p623
I628
sS'hump'
p624
I629
sS'flash'
p625
I630
sS'crates'
p626
I632
sS'charge'
p627
I633
sS'melon'
p628
I634
sS'hammers'
p629
I635
sS'brown'
p630
I636
sS'string'
p631
I637
sS'jerk'
p632
I638
sS'kitten'
p633
I639
sS'cook'
p634
I640
sS'cyan'
p635
I641
sS'airing'
p636
I642
sS'blast'
p637
I643
sS'brows'
p638
I644
sS'tear'
p639
I645
sS'turns'
p640
I646
sS'dig'
p641
I647
sS'posts'
p642
I648
sS'gun'
p643
I649
sS'gum'
p644
I650
sS'item'
p645
I651
sS'grimace'
p646
I652
sS'teal'
p647
I653
sS'team'
p648
I654
sS'movie'
p649
I2134
sS'guy'
p650
I655
sS'dip'
p651
I656
sS'round'
p652
I657
sS'shave'
p653
I658
sS'upper'
p654
I659
sS'drier'
p655
I660
sS'sigh'
p656
I661
sS'sign'
p657
I662
sS'eating'
p658
I1425
sS'drinks'
p659
I664
sS'headset'
p660
I665
sS'appear'
p661
I666
sS'convulse'
p662
I667
sS'uniform'
p663
I668
sS'wriggle'
p664
I669
sS'goer'
p665
I670
sS'ground'
p666
I933
sS'badge'
p667
I672
sS'pose'
p668
I524
sS'banister'
p669
I674
sS'wail'
p670
I675
sS'camel'
p671
I2284
sS'hairs'
p672
I676
sS'makeup'
p673
I677
sS'french'
p674
I678
sS'rug'
p675
I1762
sS'water'
p676
I680
sS'slow'
p677
I681
sS'baseball'
p678
I682
sS'frosting'
p679
I683
sS'hoops'
p680
I684
sS'change'
p681
I685
sS'box'
p682
I686
sS'buck'
p683
I687
sS'shove'
p684
I688
sS'bop'
p685
I689
sS'shift'
p686
I690
sS'muscleman'
p687
I691
sS'bow'
p688
I692
sS'bangs'
p689
I693
sS'jaw'
p690
I2151
sS'raccoon'
p691
I694
sS'boa'
p692
I695
sS'bob'
p693
I696
sS'pillow'
p694
I697
sS'massage'
p695
I698
sS'bog'
p696
I699
sS'teenage'
p697
I700
sS'tweak'
p698
I701
sS'jolt'
p699
I702
sS'kayak'
p700
I703
sS'peer'
p701
I528
sS'snowboard'
p702
I705
sS'stings'
p703
I706
sS'fake'
p704
I707
sS'hamburger'
p705
I1355
sS'forefront'
p706
I709
sS'dangle'
p707
I710
sS'dude'
p708
I711
sS'handles'
p709
I712
sS'somersault'
p710
I713
sS'sharpen'
p711
I714
sS'swagger'
p712
I715
sS'trophy'
p713
I530
sS'conductor'
p714
I717
sS'club'
p715
I718
sS'chocolate'
p716
I719
sS'flapping'
p717
I720
sS'cases'
p718
I721
sS'mascot'
p719
I722
sS'fly'
p720
I723
sS'skaters'
p721
I724
sS'car'
p722
I725
sS'cap'
p723
I726
sS'cat'
p724
I727
sS'soup'
p725
I728
sS'can'
p726
I729
sS'making'
p727
I730
sS'bites'
p728
I731
sS'heart'
p729
I732
sS'performer'
p730
I733
sS'stream'
p731
I734
sS'chip'
p732
I735
sS'parachute'
p733
I737
sS'drawer'
p734
I1022
sS'stroke'
p735
I739
sS'chin'
p736
I740
sS'clothing'
p737
I741
sS'pong'
p738
I1360
sS'pink'
p739
I743
sS'tilt'
p740
I745
sS'ping'
p741
I746
sS'lounge'
p742
I747
sS'rubin'
p743
I748
sS'sword'
p744
I749
sS'elephant'
p745
I750
sS'pins'
p746
I751
sS'product'
p747
I752
sS'mat'
p748
I753
sS'cocktail'
p749
I754
sS'dive'
p750
I755
sS'tipped'
p751
I756
sS'mad'
p752
I757
sS'suck'
p753
I758
sS'guys'
p754
I759
sS'lifting'
p755
I760
sS'man'
p756
I761
sS'branches'
p757
I762
sS'neck'
p758
I239
sS'liquid'
p759
I764
sS'beam'
p760
I2167
sS'drumsticks'
p761
I766
sS'carts'
p762
I608
sS'switch'
p763
I768
sS'truck'
p764
I769
sS'african'
p765
I770
sS'basket'
p766
I771
sS'tall'
p767
I772
sS'gesture'
p768
I773
sS'shield'
p769
I536
sS'pointed'
p770
I776
sS'flips'
p771
I777
sS'shake'
p772
I779
sS'pointer'
p773
I780
sS'birds'
p774
I781
sS'dreading'
p775
I782
sS'jig'
p776
I783
sS'tending'
p777
I784
sS'group'
p778
I785
sS'thumb'
p779
I786
sS'curly'
p780
I787
sS'cheerleaders'
p781
I788
sS'curls'
p782
I789
sS'window'
p783
I790
sS'waggle'
p784
I791
sS'tiara'
p785
I792
sS'fling'
p786
I793
sS'nod'
p787
I794
sS'rake'
p788
I795
sS'touching'
p789
I796
sS'tails'
p790
I797
sS'half'
p791
I798
sS'not'
p792
I799
sS'hall'
p793
I800
sS'runners'
p794
I801
sS'execute'
p795
I802
sS'fumes'
p796
I545
sS'servant'
p797
I804
sS'scooters'
p798
I805
sS'drop'
p799
I806
sS'arrows'
p800
I807
sS'rock'
p801
I808
sS'quarter'
p802
I809
sS'turtle'
p803
I810
sS'square'
p804
I811
sS'eyelid'
p805
I812
sS'goose'
p806
I814
sS'skydiver'
p807
I815
sS'girl'
p808
I817
sS'bonehead'
p809
I818
sS'canvas'
p810
I819
sS'container'
p811
I820
sS'stitch'
p812
I821
sS'space'
p813
I822
sS'undulate'
p814
I823
sS'looking'
p815
I824
sS'nipper'
p816
I825
sS'priest'
p817
I956
sS'receiving'
p818
I827
sS'shows'
p819
I828
sS'eagle'
p820
I829
sS'hula'
p821
I830
sS'monster'
p822
I831
sS'sideways'
p823
I50
sS'boobs'
p824
I833
sS'cart'
p825
I834
sS'mime'
p826
I835
sS'vinyl'
p827
I836
sS'hobble'
p828
I837
sS'headband'
p829
I77
sS'orb'
p830
I839
sS'card'
p831
I840
sS'underwear'
p832
I842
sS'carnival'
p833
I843
sS'backside'
p834
I844
sS'flare'
p835
I845
sS'headphones'
p836
I847
sS'motion'
p837
I848
sS'turn'
p838
I849
sS'place'
p839
I850
sS'footwear'
p840
I1322
sS'swing'
p841
I852
sS'view'
p842
I2178
sS'teammates'
p843
I853
sS'first'
p844
I854
sS'cheese'
p845
I855
sS'tennis'
p846
I554
sS'one'
p847
I857
sS'carry'
p848
I859
sS'message'
p849
I860
sS'open'
p850
I861
sS'sheep'
p851
I210
sS'little'
p852
I863
sS'sheet'
p853
I864
sS'bite'
p854
I865
sS'plastic'
p855
I233
sS'2'
I867
sS'stuffed'
p856
I868
sS'white'
p857
I869
sS'puddle'
p858
I2180
sS'friend'
p859
I265
sS'gives'
p860
I872
sS'anus'
p861
I873
sS'eyes'
p862
I874
sS'hug'
p863
I875
sS'that'
p864
I876
sS'butt'
p865
I877
sS'peck'
p866
I878
sS'wide'
p867
I879
sS'television'
p868
I880
sS'12'
p869
I881
sS'knives'
p870
I882
sS'cymbals'
p871
I883
sS'cards'
p872
I884
sS'tractor'
p873
I885
sS'wrigley'
p874
I378
sS'coconut'
p875
I887
sS'lick'
p876
I888
sS'angel'
p877
I889
sS'parking'
p878
I890
sS'turned'
p879
I891
sS'slap'
p880
I892
sS'say'
p881
I893
sS'slam'
p882
I894
sS'pastry'
p883
I895
sS'saw'
p884
I896
sS'any'
p885
I897
sS'sat'
p886
I898
sS'hooded'
p887
I446
sS'form'
p888
I562
sS'cigarettes'
p889
I901
sS'knead'
p890
I902
sS'aside'
p891
I903
sS'shocked'
p892
I904
sS'snout'
p893
I469
sS'equipment'
p894
I906
sS'lion'
p895
I2102
sS'take'
p896
I907
sS'upside'
p897
I908
sS'tambourine'
p898
I909
sS'butterfly'
p899
I910
sS'printer'
p900
I911
sS'track'
p901
I912
sS'compress'
p902
I913
sS'zigzag'
p903
I914
sS'printed'
p904
I915
sS'sunglass'
p905
I916
sS'knee'
p906
I917
sS'pages'
p907
I918
sS'dragonfly'
p908
I919
sS'boys'
p909
I1792
sS'napkin'
p910
I921
sS'drive'
p911
I922
sS'tooth'
p912
I923
sS'aerosol'
p913
I924
sS'wind'
p914
I152
sS'wine'
p915
I926
sS'slope'
p916
I927
sS'walking'
p917
I928
sS'show'
p918
I929
sS'bright'
p919
I930
sS'shoe'
p920
I931
sS'corner'
p921
I932
sS'ladle'
p922
I1855
sS'trot'
p923
I671
sS'snack'
p924
I934
sS'stair'
p925
I935
sS'title'
p926
I936
sS'3'
I970
sS'gulp'
p927
I938
sS'tears'
p928
I939
sS'wood'
p929
I940
sS'black'
p930
I941
sS'hockey'
p931
I942
sS'robe'
p932
I944
sS'pumpkin'
p933
I945
sS'hippo'
p934
I946
sS'get'
p935
I948
sS'stomp'
p936
I949
sS'nearly'
p937
I950
sS'lighter'
p938
I951
sS'candles'
p939
I2107
sS'gem'
p940
I952
sS'artist'
p941
I953
sS'leather'
p942
I954
sS'naked'
p943
I955
sS'penguins'
p944
I826
sS'bombs'
p945
I957
sS'dough'
p946
I1400
sS'pants'
p947
I2191
sS'burst'
p948
I960
sS'seat'
p949
I961
sS'seal'
p950
I962
sS'pebble'
p951
I963
sS'sport'
p952
I964
sS'smiling'
p953
I1403
sS'sideburns'
p954
I966
sS'boy'
p955
I1651
sS'ornament'
p956
I967
sS'goers'
p957
I968
sS'teacup'
p958
I969
sS'outside'
p959
I937
sS'between'
p960
I971
sS'across'
p961
I972
sS'orchestrate'
p962
I973
sS'screen'
p963
I974
sS'pluck'
p964
I975
sS'guitar'
p965
I976
sS'jets'
p966
I977
sS'tub'
p967
I978
sS'comb'
p968
I979
sS'come'
p969
I980
sS'tug'
p970
I981
sS'mans'
p971
I982
sS'rugby'
p972
I983
sS'tuck'
p973
I984
sS'many'
p974
I985
sS'hours'
p975
I986
sS'cub'
p976
I1718
sS'contract'
p977
I987
sS'inward'
p978
I1410
sS'wheels'
p979
I989
sS'expression'
p980
I990
sS'backpack'
p981
I991
sS'comes'
p982
I992
sS'passenger'
p983
I993
sS'color'
p984
I994
sS'pot'
p985
I995
sS'jeans'
p986
I996
sS'pop'
p987
I1103
sS'singers'
p988
I998
sS'pole'
p989
I999
sS'stretched'
p990
I1000
sS'poll'
p991
I1001
sS'pigtails'
p992
I1140
sS'boat'
p993
I1003
sS'turkey'
p994
I1004
sS'teammate'
p995
I1006
sS'lioness'
p996
I1007
sS'teddy'
p997
I1008
sS'stretch'
p998
I1009
sS'wobble'
p999
I1010
sS'undershirt'
p1000
I1011
sS'mark'
p1001
I1012
sS'breath'
p1002
I1013
sS'dictator'
p1003
I1014
sS'helicopter'
p1004
I1015
sS'cords'
p1005
I1016
sS'direction'
p1006
I1017
sS'shopping'
p1007
I1018
sS'gray'
p1008
I2172
sS'fours'
p1009
I1020
sS'squash'
p1010
I1021
sS'tiger'
p1011
I1233
sS'language'
p1012
I1023
sS'dribble'
p1013
I1024
sS'straighten'
p1014
I1282
sS'trick'
p1015
I1026
sS'newspaper'
p1016
I1027
sS'cock'
p1017
I1028
sS'vest'
p1018
I1029
sS'punches'
p1019
I1030
sS'purse'
p1020
I1031
sS'telephone'
p1021
I1032
sS'sleeping'
p1022
I1033
sS'middle'
p1023
I1034
sS'embrace'
p1024
I1035
sS'heels'
p1025
I1036
sS'somebody'
p1026
I1416
sS'helmet'
p1027
I1038
sS'pat'
p1028
I1039
sS'paw'
p1029
I1040
sS'bowl'
p1030
I1041
sS'same'
p1031
I1042
sS'figurine'
p1032
I1043
sS'macaroni'
p1033
I813
sS'otto'
p1034
I1045
sS'pan'
p1035
I1046
sS'nuzzle'
p1036
I1047
sS'exhaust'
p1037
I1048
sS'closest'
p1038
I1049
sS'applaud'
p1039
I1050
sS'assist'
p1040
I1051
sS'driver'
p1041
I1052
sS'weed'
p1042
I1053
sS'cymbal'
p1043
I1054
sS'persons'
p1044
I1055
sS'running'
p1045
I1056
sS'fruit'
p1046
I1057
sS'statue'
p1047
I1058
sS'cartoon'
p1048
I1059
sS'hummingbird'
p1049
I1060
sS'spotted'
p1050
I2179
sS'burrito'
p1051
I1061
sS'no'
p1052
I586
sS'spoonful'
p1053
I1064
sS'without'
p1054
I1065
sS'bottle'
p1055
I1066
sS'spark'
p1056
I1002
sS'model'
p1057
I1068
sS'bodies'
p1058
I1069
sS'lysol'
p1059
I1070
sS'choreography'
p1060
I1071
sS'being'
p1061
I1072
sS'money'
p1062
I1073
sS'dancers'
p1063
I1074
sS'actress'
p1064
I1075
sS'kill'
p1065
I1076
sS'touch'
p1066
I1077
sS'blow'
p1067
I1078
sS'death'
p1068
I1079
sS'snowboarder'
p1069
I1080
sS'bowie'
p1070
I1081
sS'rose'
p1071
I1082
sS'pups'
p1072
I1083
sS'remember'
p1073
I1084
sS'pallet'
p1074
I1085
sS'instrument'
p1075
I1086
sS'gail'
p1076
I2373
sS'4'
I1087
sS'hind'
p1077
I1088
sS'actors'
p1078
I1814
sS'pill'
p1079
I1090
sS'skier'
p1080
I1669
sS'swim'
p1081
I1092
sS'grit'
p1082
I1093
sS'around'
p1083
I1094
sS'read'
p1084
I1095
sS'mop'
p1085
I1096
sS'fridge'
p1086
I1097
sS'dart'
p1087
I1098
sS'dark'
p1088
I1099
sS'chainsaw'
p1089
I1100
sS'snarl'
p1090
I1101
sS'traffic'
p1091
I1102
sS'spank'
p1092
I997
sS'mom'
p1093
I1104
sS'vacuum'
p1094
I1105
sS'using'
p1095
I1106
sS'lady'
p1096
I1107
sS'grin'
p1097
I1108
sS'furniture'
p1098
I1109
sS'clam'
p1099
I1110
sS'towel'
p1100
I1111
sS'bracelet'
p1101
I1113
sS'lightning'
p1102
I1114
sS'facing'
p1103
I1115
sS'audience'
p1104
I1116
sS'nose'
p1105
I1117
sS'claw'
p1106
I1119
sS'downward'
p1107
I1120
sS'clap'
p1108
I1121
sS'twelve'
p1109
I1122
sS'fives'
p1110
I1123
sS'doll'
p1111
I1124
sS'ascend'
p1112
I1125
sS'erase'
p1113
I1126
sS'diving'
p1114
I1127
sS'slice'
p1115
I1128
sS'palms'
p1116
I599
sS'unlocked'
p1117
I1130
sS'tube'
p1118
I744
sS'jiggle'
p1119
I1132
sS'moon'
p1120
I1133
sS'exit'
p1121
I1134
sS'forks'
p1122
I1135
sS'knife'
p1123
I1136
sS'power'
p1124
I1137
sS'nails'
p1125
I1138
sS'breasts'
p1126
I1820
sS'drums'
p1127
I1141
sS'assemble'
p1128
I1142
sS'throw'
p1129
I1143
sS'on'
p1130
I1145
sS'stone'
p1131
I1146
sS'package'
p1132
I1147
sS'of'
p1133
I1148
sS'fishtail'
p1134
I1149
sS'drag'
p1135
I1822
sS'chop'
p1136
I1151
sS'wolf'
p1137
I1152
sS'stand'
p1138
I1153
sS'wold'
p1139
I1154
sS'act'
p1140
I1155
sS'or'
p1141
I1156
sS'road'
p1142
I1157
sS'marshmallow'
p1143
I1158
sS'instruments'
p1144
I1159
sS'image'
p1145
I1160
sS'earring'
p1146
I1161
sS'strip'
p1147
I1162
sS'syringe'
p1148
I1163
sS'pivot'
p1149
I1164
sS'stare'
p1150
I1165
sS'log'
p1151
I1166
sS'her'
p1152
I1167
sS'area'
p1153
I1168
sS'whales'
p1154
I1169
sS'there'
p1155
I1170
sS'cats'
p1156
I1171
sS'low'
p1157
I1172
sS'stars'
p1158
I1173
sS'hen'
p1159
I1174
sS'bubble'
p1160
I1175
sS'kittens'
p1161
I1176
sS'pitcher'
p1162
I1177
sS'eyeliner'
p1163
I1178
sS'cabinet'
p1164
I1179
sS'posterior'
p1165
I1180
sS'recoil'
p1166
I1181
sS'cycle'
p1167
I1182
sS'walkway'
p1168
I1183
sS'downstairs'
p1169
I1184
sS'pull'
p1170
I1185
sS'shirtless'
p1171
I1131
sS'pule'
p1172
I1186
sS'bucket'
p1173
I1187
sS'tiptoe'
p1174
I1188
sS'strawberry'
p1175
I1189
sS'grasp'
p1176
I1190
sS'jackhammer'
p1177
I1191
sS'grass'
p1178
I1192
sS'torso'
p1179
I1193
sS'toilet'
p1180
I1194
sS'gong'
p1181
I1195
sS'fright'
p1182
I1196
sS'taste'
p1183
I1197
sS'frighten'
p1184
I1198
sS'coconuts'
p1185
I1412
sS'deer'
p1186
I1199
sS'shoulders'
p1187
I2224
sS'deep'
p1188
I1201
sS'an'
p1189
I1202
sS'as'
p1190
I1203
sS'at'
p1191
I1204
sS'nero'
p1192
I1205
sS'walks'
p1193
I1206
sS'ax'
p1194
I1207
sS'moves'
p1195
I1208
sS'tremble'
p1196
I1209
sS'film'
p1197
I1210
sS'fill'
p1198
I1211
sS'yoga'
p1199
I1212
sS'swords'
p1200
I1215
sS'rubber'
p1201
I1216
sS'field'
p1202
I1217
sS'astronaut'
p1203
I1218
sS'trash'
p1204
I1219
sS'polar'
p1205
I1220
sS'symbol'
p1206
I1221
sS'teeth'
p1207
I610
sS'drift'
p1208
I1223
sS'walker'
p1209
I1835
sS'bullets'
p1210
I1224
sS'peak'
p1211
I1225
sS'torches'
p1212
I1227
sS'revolve'
p1213
I1228
sS'sneeze'
p1214
I1229
sS'awkwardly'
p1215
I1230
sS'pool'
p1216
I1231
sS'building'
p1217
I1232
sS'remote'
p1218
I1234
sS'groom'
p1219
I1235
sS'mask'
p1220
I1236
sS'smooch'
p1221
I1237
sS'hello'
p1222
I1838
sS'burros'
p1223
I1239
sS'strings'
p1224
I1240
sS'retch'
p1225
I1241
sS'all'
p1226
I1242
sS'skeleton'
p1227
I1243
sS'pointing'
p1228
I1244
sS'seals'
p1229
I1245
sS'disc'
p1230
I1246
sS'bulb'
p1231
I2228
sS'dish'
p1232
I1248
sS'follow'
p1233
I1249
sS'disk'
p1234
I1250
sS'children'
p1235
I1251
sS'carpet'
p1236
I1252
sS'apartment'
p1237
I1253
sS'tv'
p1238
I66
sS'spirit'
p1239
I1255
sS'to'
p1240
I1256
sS'tail'
p1241
I1257
sS'smile'
p1242
I1258
sS'puffs'
p1243
I1259
sS'woman'
p1244
I1260
sS'sitting'
p1245
I1261
sS'very'
p1246
I1067
sS'fat'
p1247
I1263
sS'baton'
p1248
I1264
sS'rogue'
p1249
I1265
sS'fan'
p1250
I1266
sS'clench'
p1251
I158
sS'laser'
p1252
I2233
sS'bubbles'
p1253
I1268
sS'celebrity'
p1254
I1269
sS'laying'
p1255
I1270
sS'large'
p1256
I1271
sS'dinosaur'
p1257
I1272
sS'sand'
p1258
I1273
sS'adjust'
p1259
I1274
sS'small'
p1260
I1275
sS'sank'
p1261
I1276
sS'flick'
p1262
I1277
sS'cockatoo'
p1263
I1278
sS'fence'
p1264
I1279
sS'tea'
p1265
I1280
sS'tee'
p1266
I1281
sS'cash'
p1267
I1025
sS'past'
p1268
I1283
sS'burger'
p1269
I1284
sS'pass'
p1270
I1286
sS'hairspray'
p1271
I1287
sS'ribbon'
p1272
I278
sS'dial'
p1273
I1289
sS'dumbbell'
p1274
I1844
sS'tussle'
p1275
I1291
sS'clock'
p1276
I1292
sS'sun'
p1277
I299
sS'stool'
p1278
I1294
sS'lurch'
p1279
I1295
sS'<EOS>'
p1280
I1296
sS'skid'
p1281
I1297
sS'abs'
p1282
I1298
sS'run'
p1283
I1759
sS'racing'
p1284
I1299
sS'guns'
p1285
I1300
sS'movement'
p1286
I1301
sS'toes'
p1287
I1302
sS'ruffle'
p1288
I1303
sS'surfer'
p1289
I1304
sS'puddles'
p1290
I1305
sS'ranger'
p1291
I1306
sS'beacon'
p1292
I1307
sS'trunk'
p1293
I1308
sS'colored'
p1294
I1309
sS'stretching'
p1295
I1310
sS'scurry'
p1296
I1311
sS'soldier'
p1297
I1312
sS'hamster'
p1298
I1313
sS'pick'
p1299
I1314
sS'action'
p1300
I1315
sS'narrow'
p1301
I1316
sS'sticking'
p1302
I1318
sS'shuffle'
p1303
I1319
sS'screens'
p1304
I1321
sS'stopper'
p1305
I1423
sS'toys'
p1306
I1323
sS'extinction'
p1307
I1324
sS'eye'
p1308
I1325
sS'takes'
p1309
I1326
sS'attackers'
p1310
I1847
sS'wield'
p1311
I1327
sS'two'
p1312
I1328
sS'splash'
p1313
I1330
sS'wiper'
p1314
I1331
sS'wipes'
p1315
I1332
sS'horses'
p1316
I1333
sS'flat'
p1317
I1334
sS'diamond'
p1318
I1335
sS'door'
p1319
I1336
sS'knows'
p1320
I582
sS'chucks'
p1321
I1338
sS'chimpanzee'
p1322
I1339
sS'flag'
p1323
I1340
sS'stick'
p1324
I1341
sS'suite'
p1325
I1850
sS'browned'
p1326
I1343
sS'suction'
p1327
I1344
sS'mounted'
p1328
I1345
sS'squish'
p1329
I1346
sS'sleeveless'
p1330
I1347
sS'guards'
p1331
I1348
sS'nine'
p1332
I1349
sS'wrestler'
p1333
I1350
sS'v'
I1351
sS'grope'
p1334
I1352
sS'male'
p1335
I1353
sS'shark'
p1336
I1354
sS'pony'
p1337
I708
sS'pushes'
p1338
I1356
sS'gallop'
p1339
I1357
sS'joints'
p1340
I1358
sS'sphere'
p1341
I1359
sS'unzip'
p1342
I1853
sS'airplane'
p1343
I742
sS'mn'
p1344
I1361
sS'dress'
p1345
I1362
sS'extinguisher'
p1346
I1363
sS'goal'
p1347
I1364
sS'khakis'
p1348
I1365
sS'comfort'
p1349
I774
sS'pcountare'
p1350
I1367
sS'headbands'
p1351
I2091
sS'stir'
p1352
I1368
sS'goat'
p1353
I1369
sS'creature'
p1354
I1370
sS'plant'
p1355
I1371
sS'sandwich'
p1356
I1372
sS'rude'
p1357
I1373
sS'tattoo'
p1358
I1989
sS'plane'
p1359
I1375
sS'lighting'
p1360
I1376
sS'waves'
p1361
I1377
sS'gasp'
p1362
I1378
sS'horizontal'
p1363
I1379
sS'flutter'
p1364
I866
sS'a'
I1381
sS'short'
p1365
I1382
sS'coat'
p1366
I1383
sS'doctor'
p1367
I1384
sS'pucker'
p1368
I1385
sS'stash'
p1369
I1386
sS'dragon'
p1370
I1387
sS'shore'
p1371
I1388
sS'tentacles'
p1372
I1389
sS'chopsticks'
p1373
I1390
sS'pleasure'
p1374
I1391
sS'playing'
p1375
I1392
sS'chicks'
p1376
I1393
sS'infant'
p1377
I1394
sS'help'
p1378
I1395
sS'burn'
p1379
I1396
sS'pant'
p1380
I1397
sS'slouch'
p1381
I1398
sS'paper'
p1382
I1399
sS'through'
p1383
I958
sS'lasers'
p1384
I1401
sS'lederhosen'
p1385
I1402
sS'turbine'
p1386
I965
sS'its'
p1387
I1404
sS'25'
p1388
I1405
sS'style'
p1389
I1406
sS'rapidly'
p1390
I1407
sS'glide'
p1391
I1408
sS'overhead'
p1392
I1409
sS'pcs'
p1393
I988
sS'wipe'
p1394
I1862
sS'harmless'
p1395
I1411
sS'pad'
p1396
I1044
sS'soccer'
p1397
I1413
sS'sauce'
p1398
I1414
sS'someone'
p1399
I1415
sS'return'
p1400
I1037
sS'food'
p1401
I1417
sS'males'
p1402
I1418
sS'snowball'
p1403
I1419
sS'foot'
p1404
I1420
sS'ninja'
p1405
I1421
sS'sucked'
p1406
I1422
sS'huddle'
p1407
I778
sS'pregnant'
p1408
I1424
sS'swimsuit'
p1409
I1426
sS'slicked'
p1410
I1427
sS'knight'
p1411
I1866
sS'biscuits'
p1412
I1428
sS'button'
p1413
I1867
sS'weight'
p1414
I1430
sS'house'
p1415
I1431
sS'fish'
p1416
I1432
sS'hard'
p1417
I1433
sS'beret'
p1418
I1434
sS'connect'
p1419
I1435
sS'fist'
p1420
I1436
sS'scissors'
p1421
I1437
sS'harp'
p1422
I1438
sS'flower'
p1423
I1440
sS'lipstick'
p1424
I1441
sS'surrounded'
p1425
I1442
sS'pigeon'
p1426
I1443
sS'hill'
p1427
I1444
sS'7'
I1445
sS'print'
p1428
I1446
sS'hangers'
p1429
I1447
sS'salute'
p1430
I1448
sS'dunk'
p1431
I1449
sS'foreground'
p1432
I1450
sS'steering'
p1433
I2066
sS'unidentifiable'
p1434
I1285
sS'bass'
p1435
I1452
sS'dirt'
p1436
I1453
sS'pug'
p1437
I1454
sS'toy'
p1438
I1455
sS'cookie'
p1439
I1456
sS'murmur'
p1440
I1457
sS'put'
p1441
I1458
sS'beginning'
p1442
I1459
sS'generate'
p1443
I1329
sS'thrown'
p1444
I1461
sS'owners'
p1445
I1462
sS'launch'
p1446
I1463
sS'american'
p1447
I1464
sS'canister'
p1448
I1465
sS'heartbeat'
p1449
I1466
sS'fallen'
p1450
I1467
sS'feed'
p1451
I1468
sS'feel'
p1452
I1469
sS'number'
p1453
I1470
sS'feet'
p1454
I1471
sS'elevator'
p1455
I1474
sS'blank'
p1456
I1475
sS'cups'
p1457
I1476
sS'miss'
p1458
I1477
sS'horse'
p1459
I1478
sS'heads'
p1460
I1479
sS'guest'
p1461
I1480
sS'jet'
p1462
I1481
sS'swipe'
p1463
I1482
sS'rails'
p1464
I1483
sS'collar'
p1465
I2267
sS'paint'
p1466
I1485
sS'leash'
p1467
I1486
sS'storm'
p1468
I1487
sS'fingernail'
p1469
I1488
sS'weave'
p1470
I1489
sS'syrup'
p1471
I1490
sS'banana'
p1472
I1491
sS'muscles'
p1473
I1493
sS'passed'
p1474
I1494
sS'pump'
p1475
I1495
sS'exploded'
p1476
I1496
sS'needle'
p1477
I1497
sS'interviewee'
p1478
I1498
sS'interviewed'
p1479
I1499
sS'part'
p1480
I1500
sS'fidget'
p1481
I1554
sS'rifle'
p1482
I1502
sS'steaks'
p1483
I1503
sS'stairs'
p1484
I1504
sS'stirs'
p1485
I1505
sS'oscillate'
p1486
I1569
sS'leotard'
p1487
I1507
sS'john'
p1488
I1508
sS'throttle'
p1489
I1509
sS'performers'
p1490
I1510
sS'grey'
p1491
I1511
sS'youth'
p1492
I1512
sS'bride'
p1493
I1513
sS'stalk'
p1494
I1514
sS'toward'
p1495
I1515
sS'mickey'
p1496
I1439
sS'swerve'
p1497
I1517
sS'chipmunk'
p1498
I1519
sS'juice'
p1499
I1520
sS'caress'
p1500
I1521
sS'graffiti'
p1501
I1522
sS'blond'
p1502
I1523
sS'wipers'
p1503
I1524
sS'lid'
p1504
I1525
sS'mountain'
p1505
I1526
sS'koala'
p1506
I1527
sS'dancing'
p1507
I1528
sS'self'
p1508
I1529
sS'flaming'
p1509
I1530
sS'couch'
p1510
I1531
sS'jostle'
p1511
I1532
sS'lip'
p1512
I1533
sS'breaststroke'
p1513
I1534
sS'wormed'
p1514
I1535
sS'gym'
p1515
I1536
sS'play'
p1516
I1537
sS'towards'
p1517
I1538
sS'electric'
p1518
I1539
sS'singles'
p1519
I1540
sS'quote'
p1520
I1541
sS'eggs'
p1521
I1542
sS'reach'
p1522
I1543
sS'react'
p1523
I1545
sS'most'
p1524
I1005
sS'upchucks'
p1525
I1547
sS'nothing'
p1526
I1548
sS'bug'
p1527
I2376
sS'windows'
p1528
I1549
sS'cover'
p1529
I1550
sS'clean'
p1530
I1551
sS'interlocked'
p1531
I2281
sS'hips'
p1532
I1553
sS'stones'
p1533
I1555
sS'bending'
p1534
I2282
sS'golf'
p1535
I1557
sS'gold'
p1536
I1558
sS'fins'
p1537
I1559
sS'flicker'
p1538
I1560
sS'hugging'
p1539
I1561
sS'barbell'
p1540
I1562
sS'violinists'
p1541
I1563
sS'stubble'
p1542
I1564
sS'scooter'
p1543
I1565
sS'writer'
p1544
I1566
sS'condom'
p1545
I1567
sS'circle'
p1546
I1568
sS'porcupine'
p1547
I1570
sS'his'
p1548
I1571
sS'hit'
p1549
I1572
sS'express'
p1550
I1573
sS'trees'
p1551
I1574
sS'strut'
p1552
I1575
sS'ferret'
p1553
I1576
sS'owls'
p1554
I1577
sS'batter'
p1555
I1578
sS'breast'
p1556
I1579
sS'strum'
p1557
I1580
sS'silk'
p1558
I1581
sS'banner'
p1559
I1582
sS'him'
p1560
I1583
sS'huff'
p1561
I1584
sS'fluff'
p1562
I1585
sS'catcher'
p1563
I1586
sS'motorcycles'
p1564
I1587
sS'sleeve'
p1565
I1588
sS'cry'
p1566
I1590
sS'remove'
p1567
I1591
sS'perfume'
p1568
I1592
sS'gloves'
p1569
I1593
sS'plank'
p1570
I1380
sS'rear'
p1571
I1594
sS'bars'
p1572
I1595
sS'set'
p1573
I1596
sS'dump'
p1574
I1597
sS'throwing'
p1575
I1598
sS'nibble'
p1576
I1599
sS'see'
p1577
I1600
sS'bare'
p1578
I1601
sS'are'
p1579
I1602
sS'explosion'
p1580
I947
sS'bark'
p1581
I1604
sS'outward'
p1582
I1605
sS'sportswear'
p1583
I1606
sS'knees'
p1584
I1607
sS'guinea'
p1585
I1609
sS'slapped'
p1586
I1610
sS'fans'
p1587
I1611
sS'silly'
p1588
I1612
sS'champagne'
p1589
I1613
sS'clerk'
p1590
I1614
sS'kneel'
p1591
I1615
sS'spray'
p1592
I1616
sS'invisible'
p1593
I1617
sS'interpertively'
p1594
I1618
sS'both'
p1595
I1619
sS'cubes'
p1596
I1620
sS'last'
p1597
I1621
sS'buzz'
p1598
I1622
sS'oars'
p1599
I1906
sS'load'
p1600
I1625
sS'tongues'
p1601
I1516
sS'pendulum'
p1602
I1627
sS'point'
p1603
I1628
sS'battery'
p1604
I1629
sS'forklift'
p1605
I1630
sS'lbs'
p1606
I26
sS'dancer'
p1607
I1632
sS'weasel'
p1608
I1633
sS'bench'
p1609
I2291
sS'mumble'
p1610
I1634
sS'along'
p1611
I1635
sS'belt'
p1612
I1636
sS'catwalk'
p1613
I1637
sS'suspenders'
p1614
I1638
sS'devil'
p1615
I1639
sS'raise'
p1616
I1640
sS'create'
p1617
I1641
sS'hitting'
p1618
I1643
sS'peppers'
p1619
I1644
sS'brick'
p1620
I1645
sS'empty'
p1621
I1646
sS'humping'
p1622
I1647
sS'referee'
p1623
I1648
sS'flight'
p1624
I1649
sS'squirrel'
p1625
I1650
sS'pedals'
p1626
I1214
sS'fire'
p1627
I1652
sS'crack'
p1628
I2294
sS'gas'
p1629
I1654
sS'sleeves'
p1630
I1655
sS'gag'
p1631
I1656
sS'chatter'
p1632
I1657
sS'fur'
p1633
I1658
sS'look'
p1634
I1659
sS'ski'
p1635
I1660
sS'bill'
p1636
I1661
sS'crutch'
p1637
I1662
sS'rope'
p1638
I1663
sS'pace'
p1639
I1664
sS'while'
p1640
I1320
sS'barricade'
p1641
I1667
sS'smart'
p1642
I2295
sS'vaults'
p1643
I70
sS'pound'
p1644
I1671
sS'twiddle'
p1645
I1672
sS'demon'
p1646
I1673
sS'itself'
p1647
I1674
sS'frown'
p1648
I119
sS'shirt'
p1649
I1676
sS'choking'
p1650
I1677
sS'shorter'
p1651
I1678
sS'firearms'
p1652
I1679
sS'peoples'
p1653
I1680
sS'gestures'
p1654
I2264
sS'hallway'
p1655
I1681
sS'snail'
p1656
I204
sS'ballerina'
p1657
I1683
sS'keys'
p1658
I1684
sS'teeter'
p1659
I1685
sS'cigar'
p1660
I1686
sS'leopard'
p1661
I1687
sS'cement'
p1662
I1688
sS'cucumber'
p1663
I221
sS'stripe'
p1664
I1690
sS'stack'
p1665
I1691
sS'canned'
p1666
I1692
sS'beanie'
p1667
I256
sS'swish'
p1668
I1694
sS'cheek'
p1669
I1695
sS'lanes'
p1670
I1696
sS'center'
p1671
I2270
sS'grind'
p1672
I1697
sS'person'
p1673
I1698
sS'cheer'
p1674
I1699
sS'dryer'
p1675
I2300
sS'flags'
p1676
I1701
sS'grip'
p1677
I1670
sS'howl'
p1678
I1702
sS'bandage'
p1679
I1703
sS'chord'
p1680
I1704
sS'propeller'
p1681
I2304
sS'shape'
p1682
I1706
sS'circling'
p1683
I1707
sS'behind'
p1684
I1708
sS'spiky'
p1685
I1709
sS'prince'
p1686
I1710
sS'jumpsuit'
p1687
I1711
sS'tables'
p1688
I1712
sS'loading'
p1689
I364
sS'tablet'
p1690
I1714
sS'cup'
p1691
I1715
sS'alternate'
p1692
I1716
sS'cue'
p1693
I1717
sS'dare'
p1694
I570
sS'crying'
p1695
I1719
sS'tuxedo'
p1696
I1720
sS'snap'
p1697
I1721
sS'sparklers'
p1698
I1922
sS'bills'
p1699
I2335
sS'march'
p1700
I1723
sS'big'
p1701
I1724
sS'skateboards'
p1702
I631
sS'sharpener'
p1703
I1726
sS'tweaks'
p1704
I1727
sS'game'
p1705
I1728
sS'wings'
p1706
I1729
sS'counttile'
p1707
I1730
sS'knock'
p1708
I1731
sS'rotate'
p1709
I1732
sS'shaped'
p1710
I1733
sS'signal'
p1711
I1734
sS'glove'
p1712
I1735
sS'rider'
p1713
I1736
sS'spins'
p1714
I1737
sS'cones'
p1715
I1738
sS'spring'
p1716
I1739
sS'some'
p1717
I1740
sS'back'
p1718
I1741
sS'bounce'
p1719
I1742
sS'lips'
p1720
I1743
sS'palm'
p1721
I1744
sS'clown'
p1722
I2311
sS'mirror'
p1723
I1746
sS'candle'
p1724
I1747
sS'sprint'
p1725
I1748
sS'jewelry'
p1726
I1749
sS'pet'
p1727
I1750
sS'singing'
p1728
I1926
sS'hairband'
p1729
I1752
sS'pen'
p1730
I1753
sS'sneakers'
p1731
I1754
sS'prod'
p1732
I1755
sS'temple'
p1733
I1756
sS'laughing'
p1734
I292
sS'be'
p1735
I1758
sS'patient'
p1736
I663
sS'rapping'
p1737
I1760
sS'rub'
p1738
I1761
sS'costumes'
p1739
I679
sS'zombie'
p1740
I1763
sS'step'
p1741
I1764
sS'santa'
p1742
I1765
sS'cannons'
p1743
I1766
sS'raspberry'
p1744
I1767
sS'by'
p1745
I1768
sS'cigarette'
p1746
I1546
sS'god'
p1747
I1770
sS'beans'
p1748
I1771
sS'block'
p1749
I1773
sS'garbage'
p1750
I1774
sS'into'
p1751
I1775
sS'rollerblade'
p1752
I1776
sS'pepperoni'
p1753
I851
sS'curtsy'
p1754
I1777
sS'rolls'
p1755
I1778
sS'crazily'
p1756
I2317
sS'sashay'
p1757
I1779
sS'scrunch'
p1758
I1780
sS'sock'
p1759
I1781
sS'long'
p1760
I1782
sS'custom'
p1761
I1783
sS'subdue'
p1762
I2218
sS'suit'
p1763
I1784
sS'forward'
p1764
I1785
sS'opponent'
p1765
I1786
sS'himself'
p1766
I1787
sS'hawaiian'
p1767
I1788
sS'poster'
p1768
I1790
sS'slump'
p1769
I1791
sS'cloth'
p1770
I920
sS'crank'
p1771
I1793
sS'line'
p1772
I1794
sS'reel'
p1773
I1795
sS'raising'
p1774
I1796
sS'penguin'
p1775
I1797
sS'fries'
p1776
I1798
sS'up'
p1777
I1799
sS'chomp'
p1778
I1876
sS'mobile'
p1779
I1800
sS'cartwheel'
p1780
I1801
sS'highlight'
p1781
I1802
sS'duckling'
p1782
I1803
sS'metal'
p1783
I1804
sS'spoonfuls'
p1784
I1805
sS'curb'
p1785
I1806
sS'necks'
p1786
I1807
sS'bicep'
p1787
I1808
sS'curl'
p1788
I1809
sS'work'
p1789
I1810
sS'lemon'
p1790
I1811
sS'peace'
p1791
I1812
sS'scrape'
p1792
I1813
sS'electrical'
p1793
I1089
sS'hoopla'
p1794
I1091
sS'swirl'
p1795
I1816
sS'draw'
p1796
I1817
sS'scrub'
p1797
I1818
sS'gloss'
p1798
I1819
sS'robots'
p1799
I1139
sS'lens'
p1800
I1821
sS'insect'
p1801
I1150
sS'squirm'
p1802
I1823
sS'wrinkle'
p1803
I1824
sS'sides'
p1804
I1825
sS'wristband'
p1805
I1826
sS'pottery'
p1806
I1827
sS'furthest'
p1807
I1828
sS'lane'
p1808
I1829
sS'land'
p1809
I1830
sS'e'
I1831
sS'blinks'
p1810
I1832
sS'weights'
p1811
I1833
sS'lying'
p1812
I1834
sS'far'
p1813
I1262
sS'berries'
p1814
I1836
sS'buffalo'
p1815
I1837
sS'scroll'
p1816
I1238
sS'scratch'
p1817
I1839
sS'nuns'
p1818
I1840
sS'alien'
p1819
I1841
sS'baby'
p1820
I1948
sS'go'
p1821
I1843
sS'golfer'
p1822
I1290
sS'young'
p1823
I1845
sS'send'
p1824
I1846
sS'lower'
p1825
I1693
sS'does'
p1826
I1848
sS'outwards'
p1827
I1849
sS'breach'
p1828
I1342
sS'include'
p1829
I1851
sS'rag'
p1830
I1852
sS'queen'
p1831
I305
sS'ukulele'
p1832
I1854
sS'toenail'
p1833
I1366
sS'kitty'
p1834
I1856
sS'wave'
p1835
I1857
sS'spool'
p1836
I1858
sS'spoon'
p1837
I1859
sS'llama'
p1838
I1860
sS'drinking'
p1839
I1861
sS'squirt'
p1840
I1789
sS'arrange'
p1841
I1863
sS'entire'
p1842
I1864
sS'magic'
p1843
I1865
sS'descend'
p1844
I1118
sS'notes'
p1845
I1429
sS'shock'
p1846
I1868
sS'try'
p1847
I1869
sS'race'
p1848
I1870
sS'ride'
p1849
I1954
sS'smaller'
p1850
I1473
sS'booty'
p1851
I1873
sS'squirrels'
p1852
I1874
sS'scientist'
p1853
I1875
sS'boots'
p1854
I1501
sS'jump'
p1855
I1877
sS'fold'
p1856
I1878
sS'video'
p1857
I1879
sS'booth'
p1858
I1880
sS'picked'
p1859
I1881
sS'protrude'
p1860
I1882
sS'pajamas'
p1861
I1883
sS'click'
p1862
I1884
sS'index'
p1863
I1885
sS'poke'
p1864
I1886
sS'plays'
p1865
I1887
sS'giving'
p1866
I1888
sS'vampire'
p1867
I1889
sS'paddle'
p1868
I1890
sS'cell'
p1869
I1891
sS'wiggles'
p1870
I1892
sS'poles'
p1871
I1893
sS'anther'
p1872
I1894
sS't'
I1757
sS'relocate'
p1873
I1895
sS'bird'
p1874
I1896
sS'exercise'
p1875
I1897
sS'body'
p1876
I1898
sS'degree'
p1877
I1899
sS'leg'
p1878
I1900
sS'lei'
p1879
I1901
sS'kangaroo'
p1880
I1902
sS'punch'
p1881
I1903
sS'objects'
p1882
I1904
sS'let'
p1883
I1623
sS'sink'
p1884
I1624
sS'pancake'
p1885
I1907
sS'others'
p1886
I1908
sS'sing'
p1887
I1909
sS'rosary'
p1888
I1910
sS'receive'
p1889
I1911
sS'adjusts'
p1890
I1912
sS'shades'
p1891
I1913
sS'later'
p1892
I1914
sS'orangutan'
p1893
I1915
sS'armpit'
p1894
I1916
sS'popcorn'
p1895
I1917
sS'climb'
p1896
I1918
sS'wig'
p1897
I1919
sS'shovel'
p1898
I1920
sS'apple'
p1899
I1921
sS'limp'
p1900
I1722
sS'duck'
p1901
I1923
sS'beckon'
p1902
I1924
sS'apply'
p1903
I1925
sS'tools'
p1904
I1751
sS'manipulate'
p1905
I1927
sS'ape'
p1906
I1928
sS'standing'
p1907
I1929
sS'use'
p1908
I1930
sS'from'
p1909
I1931
sS'figure'
p1910
I1932
sS'frog'
p1911
I1933
sS'next'
p1912
I1934
sS'eleven'
p1913
I1935
sS'camera'
p1914
I1936
sS'crab'
p1915
I1937
sS'vehicle'
p1916
I1938
sS'themselves'
p1917
I1939
sS'cheeks'
p1918
I1940
sS'pencil'
p1919
I1941
sS'giggle'
p1920
I1942
sS'musician'
p1921
I1943
sS'antennae'
p1922
I1944
sS'missile'
p1923
I1945
sS'train'
p1924
I1946
sS'rabbit'
p1925
I1947
sS'antennas'
p1926
I1842
sS'women'
p1927
I1949
sS'balls'
p1928
I1950
sS'animals'
p1929
I1951
sS'heard'
p1930
I738
sS'pout'
p1931
I1953
sS'athlete'
p1932
I1871
sS'tease'
p1933
I1955
sS'pour'
p1934
I1956
sS'carrot'
p1935
I1966
sS'drops'
p1936
I1958
sS'bend'
p1937
I1967
sS'hip'
p1938
I1960
sS'tap'
p1939
I1961
sS'bent'
p1940
I1962
sS'snacks'
p1941
I1963
sS'pelvic'
p1942
I1964
sS'balloons'
p1943
I2296
sS'lizard'
p1944
I412
sS'high'
p1945
I1965
sS'tag'
p1946
I1957
sS'something'
p1947
I1959
sS'slip'
p1948
I1968
sS'pelvis'
p1949
I1969
sS'rods'
p1950
I1970
sS'paws'
p1951
I1971
sS'skirt'
p1952
I1972
sS'tan'
p1953
I1973
sS'lamb'
p1954
I1974
sS'sip'
p1955
I1975
sS'sit'
p1956
I1976
sS'onions'
p1957
I1977
sS'boxing'
p1958
I1978
sS'lamp'
p1959
I1979
sS'seeds'
p1960
I2339
sS'animal'
p1961
I1981
sS'elliptical'
p1962
I1982
sS'toddler'
p1963
I1983
sS'typewriter'
p1964
I1984
sS'hurdles'
p1965
I1985
sS'blocks'
p1966
I1986
sS'stop'
p1967
I1987
sS'them'
p1968
I1905
sS'tied'
p1969
I1988
sS'wrist'
p1970
I1990
sS'prance'
p1971
I1991
sS'maracas'
p1972
I1992
sS'cabbage'
p1973
I1993
sS'chasing'
p1974
I1994
sS'bind'
p1975
I311
sS'counter'
p1976
I1996
sS'lines'
p1977
I1997
sS'robot'
p1978
I1998
sS'scoop'
p1979
I1999
sS'scoot'
p1980
I2000
sS'buttered'
p1981
I1589
sS'necklace'
p1982
I2002
sS'quotations'
p1983
I2003
sS'mustache'
p1984
I2004
sS'fastest'
p1985
I2005
sS'ignite'
p1986
I2006
sS'holds'
p1987
I2007
sS'thigh'
p1988
I2008
sS'move'
p1989
I2009
sS'symbols'
p1990
I2010
sS'spatula'
p1991
I2011
sS'hugged'
p1992
I2012
sS'looks'
p1993
I478
sS'underwater'
p1994
I2014
sS'outer'
p1995
I2015
sS'burning'
p1996
I2016
sS'broom'
p1997
I2017
sS'noses'
p1998
I2100
sS'squatting'
p1999
I2018
sS'gymnasts'
p2000
I2019
sS'orange'
p2001
I2020
sS'covered'
p2002
I2021
sS'dad'
p2003
I2022
sS'flex'
p2004
I2023
sS'crash'
p2005
I2024
sS'skater'
p2006
I2025
sS'dab'
p2007
I2026
sS'practice'
p2008
I1608
sS'runs'
p2009
I2028
sS'oranges'
p2010
I2029
sS'dock'
p2011
I2030
sS'cutting'
p2012
I2031
sS'snake'
p2013
I2032
sS'kiss'
p2014
I2033
sS'hands'
p2015
I2034
sS'front'
p2016
I2035
sS'cage'
p2017
I2036
sS'flail'
p2018
I2037
sS'slide'
p2019
I2038
sS'trap'
p2020
I2039
sS'circular'
p2021
I2040
sS'shaking'
p2022
I2041
sS'glasses'
p2023
I2042
sS'skate'
p2024
I2043
sS'ankles'
p2025
I2044
sS'tabby'
p2026
I2045
sS'bump'
p2027
I2046
sS'globe'
p2028
I2047
sS'buildings'
p2029
I2048
sS'sportsman'
p2030
I2049
sS'books'
p2031
I2050
sS'thirteen'
p2032
I2051
sS'measure'
p2033
I2052
sS'cupboard'
p2034
I2053
sS'sweatshirt'
p2035
I2054
sS'goalkeeper'
p2036
I2055
sS'out'
p2037
I2056
sS'mats'
p2038
I2057
sS'announcer'
p2039
I2058
sS'rev'
p2040
I2059
sS'mate'
p2041
I2060
sS'wick'
p2042
I2061
sS'red'
p2043
I2062
sS'umbrella'
p2044
I2063
sS'completely'
p2045
I2064
sS'thrust'
p2046
I2065
sS'princess'
p2047
I282
sS'backwards'
p2048
I2067
sS'yard'
p2049
I2068
sS'spill'
p2050
I2069
sS'shells'
p2051
I2070
sS'skateboard'
p2052
I2071
sS'headbutt'
p2053
I2072
sS'yarn'
p2054
I2073
sS'times'
p2055
I2074
sS'stride'
p2056
I2075
sS'cradle'
p2057
I2326
sS'scarf'
p2058
I2076
sS'bouquet'
p2059
I2077
sS'taco'
p2060
I2078
sS'scene'
p2061
I2079
sS'hurdle'
p2062
I189
sS'owner'
p2063
I2081
sS'management'
p2064
I2082
sS'monkey'
p2065
I2083
sS'data'
p2066
I2084
sS'their'
p2067
I2085
sS'attack'
p2068
I2086
sS'ankle'
p2069
I2087
sS'rigs'
p2070
I2088
sS'nut'
p2071
I2089
sS'beard'
p2072
I2090
sS'shell'
p2073
I272
sS'stomach'
p2074
I2092
sS'shorts'
p2075
I2093
sS'xylophone'
p2076
I2094
sS'motorcycle'
p2077
I2095
sS'feint'
p2078
I2096
sS'fuzzy'
p2079
I2098
sS'UNK'
p2080
I1
sS'herself'
p2081
I2099
sS'waist'
p2082
I763
sS'buttocks'
p2083
I2101
sS'splayed'
p2084
I344
sS'flashed'
p2085
I346
sS'bee'
p2086
I2104
sS'firework'
p2087
I2105
sS'moonwalks'
p2088
I2106
sS'light'
p2089
I1995
sS'sculpture'
p2090
I2108
sS'steer'
p2091
I2109
sS'lightly'
p2092
I392
sS'carrots'
p2093
I2111
sS'teenagers'
p2094
I2112
sS'sidewalk'
p2095
I1460
sS'have'
p2096
I2113
sS'close'
p2097
I1603
sS'throat'
p2098
I2115
sS'screw'
p2099
I2116
sS'microphone'
p2100
I2117
sS'angle'
p2101
I2118
sS'sprinkler'
p2102
I2119
sS'mic'
p2103
I2120
sS'arm'
p2104
I2121
sS'mix'
p2105
I2122
sS'which'
p2106
I2123
sS'soap'
p2107
I2124
sS'blades'
p2108
I2125
sS'who'
p2109
I2126
sS'rearrange'
p2110
I2127
sS'whirl'
p2111
I2251
sS'device'
p2112
I2128
sS'class'
p2113
I2129
sS'beets'
p2114
I2130
sS'face'
p2115
I2131
sS'looked'
p2116
I142
sS'talk'
p2117
I2133
sS'mechanical'
p2118
I1226
sS'painting'
p2119
I2135
sS'scrap'
p2120
I2136
sS'squeegee'
p2121
I2137
sS'kite'
p2122
I2138
sS'gentleman'
p2123
I2139
sS'bum'
p2124
I2140
sS'crate'
p2125
I2141
sS'bring'
p2126
I2142
sS'biker'
p2127
I2143
sS'bikes'
p2128
I2144
sS'chicken'
p2129
I2145
sS'shoes'
p2130
I775
sS'taps'
p2131
I2147
sS'squeeze'
p2132
I2375
sS'tire'
p2133
I2149
sS'sparks'
p2134
I2150
sS'with'
p2135
I1019
sS'combs'
p2136
I2152
sS'jar'
p2137
I2153
sS'should'
p2138
I2154
sS'buttons'
p2139
I2155
sS'tape'
p2140
I2156
sS'riding'
p2141
I2157
sS'piano'
p2142
I2158
sS'flinch'
p2143
I297
sS'dodge'
p2144
I2160
sS'cube'
p2145
I2161
sS'handle'
p2146
I2162
sS'\\?'
p2147
I2163
sS'beat'
p2148
I2164
sS'stripes'
p2149
I2165
sS'bear'
p2150
I2166
sS'wiggle'
p2151
I765
sS'words'
p2152
I2168
sS'beak'
p2153
I2169
sS'striped'
p2154
I2170
sS'chips'
p2155
I2171
sS'smash'
p2156
I394
sS'rapper'
p2157
I2173
sS'eyebrow'
p2158
I2174
sS'stuff'
p2159
I2175
sS'mascara'
p2160
I2176
sS'grab'
p2161
I2177
sS'costume'
p2162
I2013
sS'buzzer'
p2163
I846
sS'frame'
p2164
I870
sS'computer'
p2165
I2181
sS'powder'
p2166
I2182
sS'violet'
p2167
I2183
sS'racket'
p2168
I2184
sS'wire'
p2169
I2185
sS'placed'
p2170
I2385
sS'hammock'
p2171
I2187
sS'unravel'
p2172
I2188
sS'juggle'
p2173
I2189
sS'pistol'
p2174
I2190
sS'tent'
p2175
I959
sS'bleed'
p2176
I2192
sS'joy'
p2177
I2193
sS'butts'
p2178
I2194
sS'strides'
p2179
I2195
sS"someones'"
p2180
I2196
sS'key'
p2181
I2197
sS'jog'
p2182
I2198
sS'police'
p2183
I2199
sS'jon'
p2184
I2200
sS'monitor'
p2185
I2201
sS'drum'
p2186
I2202
sS'sniff'
p2187
I2203
sS'tires'
p2188
I259
sS'ramp'
p2189
I2204
sS'aircraft'
p2190
I2205
sS'unbutton'
p2191
I2206
sS'puff'
p2192
I2207
sS'swallow'
p2193
I2208
sS'fry'
p2194
I2209
sS'jersey'
p2195
I2210
sS'wear'
p2196
I2211
sS'wall'
p2197
I2212
sS'denim'
p2198
I2213
sS'bikini'
p2199
I1665
sS'walk'
p2200
I2214
sS'laugh'
p2201
I2215
sS'table'
p2202
I2216
sS'blink'
p2203
I178
sS'inhale'
p2204
I2217
sS'motorbike'
p2205
I1144
sS'swimmer'
p2206
I2219
sS'polka'
p2207
I2220
sS'treat'
p2208
I2221
sS'whisper'
p2209
I2394
sS'curtain'
p2210
I2222
sS'feather'
p2211
I2223
sS'mike'
p2212
I1200
sS'controller'
p2213
I2225
sS'mannequin'
p2214
I2226
sS'bull'
p2215
I2227
sS'smoking'
p2216
I1247
sS'reeves'
p2217
I2229
sS'present'
p2218
I2230
sS'eyelashes'
p2219
I2231
sS'plaid'
p2220
I2232
sS'couple'
p2221
I1725
sS'cow'
p2222
I2234
sS'runway'
p2223
I2235
sS'cough'
p2224
I838
sS'wild'
p2225
I2236
sS'pictures'
p2226
I2237
sS'bathtub'
p2227
I2238
sS'groin'
p2228
I2239
sS'suckle'
p2229
I2240
sS'file'
p2230
I2241
sS'tickled'
p2231
I2242
sS'demo'
p2232
I2243
sS'squid'
p2233
I2244
sS'surface'
p2234
I2245
sS'rooster'
p2235
I2246
sS'swinging'
p2236
I2247
sS'gunship'
p2237
I2248
sS'partner'
p2238
I2249
sS'sits'
p2239
I2250
sS'capture'
p2240
I1374
sS'skateboarders'
p2241
I2252
sS'balloon'
p2242
I2253
sS'cross'
p2243
I2254
sS'parts'
p2244
I2255
sS'inch'
p2245
I2256
sS'party'
p2246
I2257
sS'cream'
p2247
I2258
sS'elbows'
p2248
I2259
sS'ball'
p2249
I2260
sS'slightly'
p2250
I2261
sS'bald'
p2251
I1451
sS'diploma'
p2252
I2263
sS'dust'
p2253
I1472
sS'pedal'
p2254
I2265
sS'whale'
p2255
I2266
sS'broccoli'
p2256
I1484
sS'numbered'
p2257
I2268
sS'off'
p2258
I2269
sS'surfboard'
p2259
I1506
sS'weapon'
p2260
I2271
sS'obstacles'
p2261
I2272
sS'fighting'
p2262
I2273
sS'scissor'
p2263
I2274
sS'1'
I2275
sS'countetitively'
p2264
I2276
sS'twirl'
p2265
I2277
sS'position'
p2266
I2278
sS'muscle'
p2267
I2279
sS'drawing'
p2268
I2280
sS'bandanna'
p2269
I1552
sS'rocker'
p2270
I1556
sS'bananas'
p2271
I2283
sS'sloth'
p2272
I1626
sS'rest'
p2273
I2285
sS'lettuce'
p2274
I2286
sS'broomstick'
p2275
I2287
sS'coyotes'
p2276
I2001
sS'tight'
p2277
I2288
sS'bell'
p2278
I2289
sS'sky'
p2279
I2290
sS'ketchup'
p2280
I1492
sS'add'
p2281
I2292
sS'book'
p2282
I2406
sS'wet'
p2283
I1653
sS'footballer'
p2284
I1317
sS'kick'
p2285
I1668
sS'knob'
p2286
I2298
sS'branch'
p2287
I2408
sS'sweep'
p2288
I1631
sS'solider'
p2289
I1700
sS'five'
p2290
I2301
sS'know'
p2291
I2302
sS'desk'
p2292
I2303
sS'press'
p2293
I1705
sS'insert'
p2294
I2305
sS'puppy'
p2295
I2306
sS'like'
p2296
I2307
sS'onion'
p2297
I2308
sS'chairs'
p2298
I2309
sS'sofa'
p2299
I2310
sS'candy'
p2300
I1745
sS'chick'
p2301
I2312
sS'soft'
p2302
I2313
sS'page'
p2303
I2314
sS'heel'
p2304
I2315
sS'glare'
p2305
I2316
sS'school'
p2306
I943
sS'tumble'
p2307
I2318
sS'hair'
p2308
I2319
sS'trucker'
p2309
I2320
sS'ballot'
p2310
I2321
sS'shrug'
p2311
I2322
sS'leaf'
p2312
I2323
sS'lean'
p2313
I2324
sS'leap'
p2314
I2325
sS'pcount'
p2315
I1772
sS'masked'
p2316
I2327
sS'earrings'
p2317
I2328
sS'speak'
p2318
I2329
sS'hose'
p2319
I2330
sS'bowling'
p2320
I2331
sS'host'
p2321
I2332
sS'pasta'
p2322
I2333
sS'stage'
p2323
I2334
sS'drumming'
p2324
I2114
sS'getting'
p2325
I2336
sS'tray'
p2326
I2337
sS'surge'
p2327
I2338
sS'carrier'
p2328
I1980
sS'beige'
p2329
I2340
sS'puppies'
p2330
I2341
sS'tongue'
p2331
I2342
sS'upward'
p2332
I2343
sS'swimming'
p2333
I2344
sS'owl'
p2334
I2345
sS'own'
p2335
I2346
sS'gymnastic'
p2336
I2347
sS'skates'
p2337
I2027
sS'socks'
p2338
I2348
sS'guard'
p2339
I2349
sS'en'
p2340
I2350
sS'brush'
p2341
I2351
sS'female'
p2342
I2352
sS'brass'
p2343
I2353
sS'knuckles'
p2344
I2354
sS'van'
p2345
I2355
sS'gerbil'
p2346
I2356
sS'transfer'
p2347
I2357
sS'vegetables'
p2348
I2358
sS'spots'
p2349
I2359
sS'doing'
p2350
I2360
sS'obstacle'
p2351
I2361
sS'drumstick'
p2352
I2362
sS'gut'
p2353
I2363
sS'toothpaste'
p2354
I2364
sS'backhand'
p2355
I2365
sS'bobble'
p2356
I2366
sS'unwrap'
p2357
I2367
sS'bus'
p2358
I2368
sS'but'
p2359
I2369
sS'hi'
p2360
I2370
sS'bun'
p2361
I2371
sS'gain'
p2362
I2372
sS'larger'
p2363
I2097
sS'backstop'
p2364
I2374
sS'ear'
p2365
I2148
sS'eat'
p2366
I532
sS'bud'
p2367
I2377
sS'he'
p2368
I2378
sS'count'
p2369
I2379
sS'genitals'
p2370
I2380
sS'wise'
p2371
I2381
sS'tab'
p2372
I2382
sS'smooth'
p2373
I2383
sS'flip'
p2374
I2384
sS'record'
p2375
I2186
sS'below'
p2376
I2386
sS'cello'
p2377
I2387
sS'cake'
p2378
I2388
sS'piece'
p2379
I2389
sS'stirring'
p2380
I2390
sS'skating'
p2381
I2391
sS'rabbits'
p2382
I2392
sS'pin'
p2383
I2393
sS'curve'
p2384
I1642
sS'circus'
p2385
I2395
sS'kisses'
p2386
I2396
sS'pie'
p2387
I2397
sS'pig'
p2388
I2398
sS'twist'
p2389
I2399
sS'ink'
p2390
I2400
sS'kissed'
p2391
I2401
sS'dressed'
p2392
I2402
sS'guitarist'
p2393
I2403
sS'boot'
p2394
I2404
sS'smears'
p2395
I2405
sS'other'
p2396
I2293
sS'oar'
p2397
I2407
sS'ledge'
p2398
I2299
sS'ponytail'
p2399
I2409
sS'frisbee'
p2400
I2410
sS'star'
p2401
I2411
sS'plate'
p2402
I2412
sS'june'
p2403
I2413
sS'bundle'
p2404
I2414
sS'stab'
p2405
I2415
sS'friends'
p2406
I1518
sS'smirk'
p2407
I2417
sS'jab'
p2408
I2159
sS'armor'
p2409
I2418
sS'write'
p2410
I2419
sS'pupil'
p2411
I2420
sS'dominoes'
p2412
I2421
sS'yell'
p2413
I2422
s.