(dp1
S'fawn'
p2
I2
sS'somethiing'
p3
I3
sS'croutches'
p4
I4
sS'hats'
p5
I29
sS'yellow'
p6
I6
sS'four'
p7
I7
sS'protest'
p8
I8
sS'woods'
p9
I9
sS'sleep'
p10
I10
sS'asian'
p11
I11
sS'railing'
p12
I12
sS'captain'
p13
I13
sS'horizontally'
p14
I3463
sS'fingle'
p15
I1299
sS'looking'
p16
I1424
sS'pointing'
p17
I2148
sS'railslide'
p18
I16
sS'swab'
p19
I17
sS'swan'
p20
I18
sS'eyehole'
p21
I19
sS'tickle'
p22
I21
sS'swat'
p23
I22
sS'unroll'
p24
I23
sS'bike'
p25
I24
sS'certain'
p26
I3850
sS'swap'
p27
I25
sS'daze'
p28
I26
sS'under'
p29
I27
sS'sway'
p30
I28
sS'fists'
p31
I30
sS'swivel'
p32
I31
sS'stright'
p33
I32
sS'aroun'
p34
I33
sS'dispense'
p35
I34
sS'blanket'
p36
I35
sS'rise'
p37
I36
sS'vase'
p38
I38
sS'helmet'
p39
I1813
sS'smack'
p40
I39
sS'suspenseful'
p41
I40
sS'kick'
p42
I3985
sS'confetti'
p43
I41
sS'screaming'
p44
I275
sS'rowards'
p45
I44
sS'uncomfortable'
p46
I3239
sS'look'
p47
I2829
sS'disturb'
p48
I45
sS'whisk'
p49
I46
sS'motorcyclist'
p50
I47
sS'wooden'
p51
I48
sS'pinch'
p52
I49
sS'debris'
p53
I2153
sS'crotch'
p54
I51
sS'ups'
p55
I53
sS'clothes'
p56
I54
sS'enjoy'
p57
I55
sS'chew'
p58
I56
sS'bicycle'
p59
I57
sS'tired'
p60
I58
sS'awake'
p61
I2823
sS'bacon'
p62
I60
sS'horn'
p63
I61
sS'nail'
p64
I62
sS'bannister'
p65
I63
sS'second'
p66
I64
sS'street'
p67
I65
sS'levitate'
p68
I67
sS'expressive'
p69
I68
sS'panda'
p70
I69
sS'blue'
p71
I70
sS'rope'
p72
I2837
sS'hide'
p73
I71
sS'wreck'
p74
I72
sS'solemn'
p75
I73
sS'thong'
p76
I1436
sS'fingers'
p77
I75
sS'lampshade'
p78
I76
sS'lights'
p79
I77
sS'aother'
p80
I78
sS'mischievous'
p81
I79
sS'above'
p82
I80
sS'toll'
p83
I546
sS'new'
p84
I82
sS'net'
p85
I83
sS'upward'
p86
I4074
sS'seeks'
p87
I84
sS'fowarad'
p88
I3336
sS'crunch'
p89
I86
sS'kicked'
p90
I87
sS'crouch'
p91
I88
sS'smeone'
p92
I89
sS'reporter'
p93
I90
sS'pancakes'
p94
I91
sS'pumpkin'
p95
I1640
sS'men'
p96
I92
sS'disposable'
p97
I93
sS'dustpan'
p98
I94
sS'vapors'
p99
I95
sS'fun'
p100
I2844
sS'studio'
p101
I96
sS'active'
p102
I97
sS'path'
p103
I98
sS'crossbow'
p104
I99
sS'dry'
p105
I100
sS'substance'
p106
I101
sS'daughter'
p107
I102
sS'luggage'
p108
I103
sS'items'
p109
I104
sS'study'
p110
I105
sS'changed'
p111
I106
sS'completely'
p112
I3549
sS'bunked'
p113
I108
sS'credit'
p114
I742
sS'smoke'
p115
I110
sS'military'
p116
I111
sS'pack'
p117
I2850
sS'changes'
p118
I112
sS'intrigue'
p119
I113
sS'eyebrows'
p120
I114
sS'blowtorch'
p121
I115
sS'hunch'
p122
I116
sS'straw'
p123
I117
sS'wring'
p124
I3742
sS'cand'
p125
I118
sS'strap'
p126
I119
sS'brought'
p127
I120
sS'visible'
p128
I121
sS'pound'
p129
I2852
sS'sledder'
p130
I123
sS'stern'
p131
I124
sS'forwad'
p132
I125
sS'glance'
p133
I126
sS'cocaine'
p134
I127
sS'bra'
p135
I128
sS'opponents'
p136
I129
sS'raide'
p137
I130
sS'criminals'
p138
I890
sS'plop'
p139
I132
sS'fingernails'
p140
I133
sS'alligator'
p141
I134
sS'sweater'
p142
I136
sS'gloss'
p143
I137
sS'exhort'
p144
I138
sS'arms'
p145
I139
sS'insult'
p146
I140
sS'suit'
p147
I3060
sS'music'
p148
I947
sS'calm'
p149
I142
sS'spike'
p150
I1084
sS'strike'
p151
I144
sS'type'
p152
I145
sS'sticker'
p153
I146
sS'breathe'
p154
I147
sS'phonr'
p155
I148
sS'relax'
p156
I149
sS'award'
p157
I1037
sS'hurt'
p158
I151
sS'lunge'
p159
I152
sS'phone'
p160
I153
sS'overtake'
p161
I3557
sS'adult'
p162
I155
sS'breaths'
p163
I156
sS'muss'
p164
I158
sS'yard'
p165
I3558
sS'hole'
p166
I160
sS'hold'
p167
I161
sS'pouch'
p168
I162
sS'blindfold'
p169
I163
sS'shoot'
p170
I164
sS'peekaboo'
p171
I165
sS'join'
p172
I1111
sS'room'
p173
I167
sS'onstage'
p174
I168
sS'work'
p175
I1141
sS'somber'
p176
I170
sS'explotion'
p177
I171
sS'roof'
p178
I172
sS'straddle'
p179
I173
sS'backside'
p180
I3761
sS'locker'
p181
I175
sS'cuddle'
p182
I1159
sS'eyemask'
p183
I177
sS'shelve'
p184
I178
sS'elbow'
p185
I179
sS'exhale'
p186
I180
sS'untampered'
p187
I181
sS'my'
p188
I182
sS'grenade'
p189
I183
sS'cans'
p190
I184
sS'loosen'
p191
I185
sS'headphones'
p192
I1458
sS'foodie'
p193
I187
sS'wand'
p194
I188
sS'give'
p195
I189
sS'skateboard'
p196
I3561
sS'dolphin'
p197
I190
sS'laughs'
p198
I191
sS'aroud'
p199
I192
sS'motocycle'
p200
I193
sS'suffocated'
p201
I194
sS'powerline'
p202
I2863
sS'foods'
p203
I196
sS'indifferent'
p204
I1283
sS'garbage'
p205
I4137
sS'end'
p206
I199
sS'pogo'
p207
I200
sS'agony'
p208
I201
sS'travel'
p209
I202
sS'sitting'
p210
I2174
sS'off'
p211
I3935
sS'machine'
p212
I204
sS'how'
p213
I983
sS'hot'
p214
I206
sS'drummer'
p215
I207
sS'hop'
p216
I208
sS'answer'
p217
I209
sS'disappoint'
p218
I210
sS'hi'
p219
I4118
sS'chase'
p220
I2867
sS'beach'
p221
I211
sS'rightwards'
p222
I212
sS'pizza'
p223
I213
sS'badly'
p224
I214
sS'unlighted'
p225
I215
sS'mouths'
p226
I216
sS'mess'
p227
I217
sS'ladder'
p228
I218
sS'after'
p229
I219
sS'despondent'
p230
I221
sS'dinosaurs'
p231
I223
sS'wrong'
p232
I224
sS'jumping'
p233
I225
sS'poked'
p234
I226
sS'lay'
p235
I227
sS'curiosity'
p236
I228
sS'sparkler'
p237
I229
sS'president'
p238
I230
sS'arch'
p239
I232
sS'parallel'
p240
I233
sS'waterside'
p241
I2784
sS'attempt'
p242
I235
sS'third'
p243
I236
sS'spout'
p244
I237
sS'vegetables'
p245
I4097
sS'greet'
p246
I238
sS'cigaretter'
p247
I239
sS'wink'
p248
I240
sS'maintain'
p249
I241
sS'green'
p250
I242
sS'scarf'
p251
I3572
sS'goodbye'
p252
I244
sS'ambulance'
p253
I245
sS'smooke'
p254
I246
sS'operate'
p255
I247
sS'wing'
p256
I248
sS'wind'
p257
I249
sS'wine'
p258
I250
sS'cymbols'
p259
I251
sS'banger'
p260
I815
sS'bull'
p261
I3866
sS'deform'
p262
I253
sS'office'
p263
I254
sS'deck'
p264
I255
sS'pothole'
p265
I256
sS'defenders'
p266
I257
sS'over'
p267
I258
sS'fall'
p268
I2182
sS'uncross'
p269
I260
sS'handcuff'
p270
I262
sS'ghastly'
p271
I263
sS'keyboard'
p272
I264
sS'strangle'
p273
I265
sS'windshield'
p274
I266
sS'before'
p275
I268
sS'beside'
p276
I269
sS'difference'
p277
I2185
sS'fit'
p278
I272
sS'somewhere'
p279
I274
sS'fireplace'
p280
I43
sS'fix'
p281
I276
sS'avocado'
p282
I277
sS','
I278
sS'levatate'
p283
I279
sS'strand'
p284
I2186
sS'fade'
p285
I281
sS'zag'
p286
I1475
sS'carve'
p287
I283
sS'hidden'
p288
I284
sS'fin'
p289
I285
sS'overcome'
p290
I286
sS'split'
p291
I287
sS'then'
p292
I288
sS'them'
p293
I289
sS'corridor'
p294
I2876
sS'workout'
p295
I292
sS'collide'
p296
I293
sS'offroad'
p297
I294
sS'break'
p298
I295
sS'band'
p299
I296
sS'bang'
p300
I297
sS'giraffe'
p301
I298
sS'sack'
p302
I3578
sS'they'
p303
I300
sS'interrupt'
p304
I301
sS'one'
p305
I1478
sS'silver'
p306
I303
sS'bank'
p307
I1895
sS'bread'
p308
I305
sS'embarrassed'
p309
I3579
sS'erotically'
p310
I307
sS'meat'
p311
I308
sS'defecate'
p312
I309
sS'l'
I310
sS'explode'
p313
I311
sS'faraway'
p314
I312
sS'turtleman'
p315
I313
sS'victory'
p316
I314
sS'arrow'
p317
I315
sS'each'
p318
I316
sS'hurdle'
p319
I3580
sS'went'
p320
I318
sS'bong'
p321
I319
sS'side'
p322
I320
sS'bone'
p323
I321
sS'mean'
p324
I322
sS'wheel'
p325
I755
sS'calmly'
p326
I324
sS'telescope'
p327
I2017
sS'list'
p328
I2189
sS'train'
p329
I3340
sS'spider'
p330
I327
sS'sled'
p331
I328
sS'waffle'
p332
I329
sS'navy'
p333
I330
sS'message'
p334
I1483
sS'whip'
p335
I332
sS'clothe'
p336
I333
sS'pounce'
p337
I334
sS'blankly'
p338
I2190
sS'rv'
p339
I336
sS'itch'
p340
I2884
sS'driving'
p341
I338
sS'oprah'
p342
I339
sS'haired'
p343
I340
sS'cameras'
p344
I341
sS'sparkly'
p345
I342
sS'content'
p346
I343
sS'adjust'
p347
I2193
sS'surprise'
p348
I345
sS'washer'
p349
I346
sS'forth'
p350
I347
sS'sliding'
p351
I348
sS'splashed'
p352
I350
sS'turning'
p353
I351
sS'barrier'
p354
I352
sS'resume'
p355
I353
sS'hang'
p356
I354
sS'waddle'
p357
I355
sS'friends'
p358
I4187
sS'free'
p359
I356
sS'offstage'
p360
I4139
sS'spill'
p361
I3560
sS'carried'
p362
I4062
sS'rain'
p363
I358
sS'hoodie'
p364
I359
sS'rice'
p365
I3349
sS'hand'
p366
I762
sS'lollipop'
p367
I361
sS'devishly'
p368
I362
sS'fret'
p369
I363
sS'drench'
p370
I364
sS'aisle'
p371
I365
sS'starts'
p372
I366
sS'chiar'
p373
I367
sS'atm'
p374
I368
sS'shush'
p375
I369
sS'atv'
p376
I370
sS'licked'
p377
I371
sS'disturbed'
p378
I372
sS'dentures'
p379
I373
sS'soda'
p380
I374
sS'onto'
p381
I375
sS'bite'
p382
I1494
sS'flick'
p383
I2198
sS'wasp'
p384
I379
sS'hoop'
p385
I380
sS'goggle'
p386
I976
sS'handsprings'
p387
I383
sS'wash'
p388
I384
sS'spinning'
p389
I385
sS'another'
p390
I386
sS'unsnap'
p391
I387
sS'comforter'
p392
I388
sS'force'
p393
I389
sS'ditch'
p394
I390
sS'electronic'
p395
I391
sS'hood'
p396
I392
sS'bitten'
p397
I393
sS'he'
p398
I4126
sS'toy'
p399
I394
sS'lolypop'
p400
I395
sS'hydrant'
p401
I396
sS'potty'
p402
I3002
sS'top'
p403
I399
sS'girls'
p404
I401
sS'elevator'
p405
I402
sS'stack'
p406
I2898
sS'master'
p407
I2556
sS'fumble'
p408
I404
sS'wildly'
p409
I405
sS'critter'
p410
I406
sS'legs'
p411
I407
sS'dogs'
p412
I408
sS'soup'
p413
I3248
sS'listen'
p414
I409
sS'totter'
p415
I410
sS'ceiling'
p416
I411
sS'solemnly'
p417
I412
sS'collapse'
p418
I413
sS'telekinetic'
p419
I414
sS'happily'
p420
I415
sS'tool'
p421
I416
sS'serve'
p422
I417
sS'prosthetic'
p423
I2638
sS'noodle'
p424
I3513
sS'stoic'
p425
I421
sS'cereal'
p426
I422
sS'wardrobe'
p427
I423
sS'crawl'
p428
I424
sS'stocking'
p429
I425
sS'character'
p430
I426
sS'distance'
p431
I427
sS'dissapears'
p432
I429
sS'drum'
p433
I3809
sS'handcuffs'
p434
I430
sS'tree'
p435
I431
sS'seated'
p436
I432
sS'project'
p437
I434
sS'idle'
p438
I435
sS'silly'
p439
I436
sS'friend'
p440
I1506
sS'tackled'
p441
I439
sS'prankster'
p442
I440
sS'bridge'
p443
I441
sS'donkey'
p444
I442
sS'handkerchief'
p445
I443
sS'seep'
p446
I444
sS'runner'
p447
I445
sS'ram'
p448
I446
sS'mind'
p449
I447
sS'return'
p450
I2429
sS'raw'
p451
I448
sS'rat'
p452
I449
sS'seed'
p453
I450
sS'pompoms'
p454
I451
sS'manner'
p455
I66
sS'rap'
p456
I453
sS'stomach'
p457
I3609
sS'sholders'
p458
I2721
sS'grind'
p459
I2908
sS'contents'
p460
I457
sS'ray'
p461
I458
sS'ponder'
p462
I460
sS'escalator'
p463
I461
sS'concrete'
p464
I2909
sS'bleachers'
p465
I463
sS'soaked'
p466
I464
sS'snow'
p467
I465
sS'chest'
p468
I466
sS'bunkbed'
p469
I468
sS'chuckle'
p470
I2213
sS'doors'
p471
I470
sS'sleeper'
p472
I471
sS'panties'
p473
I472
sS'rides'
p474
I473
sS'rider'
p475
I474
sS'circles'
p476
I475
sS'blouse'
p477
I476
sS'wrists'
p478
I477
sS'thrilled'
p479
I478
sS'object'
p480
I479
sS'phonograph'
p481
I480
sS'what'
p482
I2215
sS'vaporizer'
p483
I2453
sS'mouth'
p484
I483
sS'letter'
p485
I484
sS'coin'
p486
I485
sS'jean'
p487
I486
sS'glow'
p488
I487
sS'dummy'
p489
I488
sS'singer'
p490
I489
sS'don'
p491
I490
sS'pointe'
p492
I491
sS'nostrils'
p493
I492
sS'partition'
p494
I493
sS'metal'
p495
I494
sS'dog'
p496
I495
sS'crowd'
p497
I854
sS'dorcas'
p498
I496
sS'competitors'
p499
I497
sS'points'
p500
I498
sS'deeply'
p501
I2219
sS'pointy'
p502
I500
sS'scotch'
p503
I502
sS'scream'
p504
I503
sS'dot'
p505
I504
sS'yank'
p506
I505
sS'saying'
p507
I506
sS'bomb'
p508
I507
sS'subtly'
p509
I508
sS'insects'
p510
I510
sS'stool'
p511
I2221
sS'queen'
p512
I512
sS'serenely'
p513
I514
sS'chandelier'
p514
I972
sS'radio'
p515
I516
sS'continuosly'
p516
I517
sS'subtle'
p517
I518
sS'peddle'
p518
I519
sS'maskface'
p519
I3995
sS'toast'
p520
I522
sS'stoop'
p521
I2225
sS'touches'
p522
I524
sS'flowers'
p523
I525
sS'menu'
p524
I526
sS'bust'
p525
I527
sS'sugar'
p526
I528
sS'bush'
p527
I529
sS'knuckle'
p528
I531
sS'touched'
p529
I532
sS'disgust'
p530
I533
sS'plash'
p531
I534
sS'folder'
p532
I536
sS'boyfriend'
p533
I1519
sS'goalie'
p534
I538
sS'rectangle'
p535
I539
sS'wearing'
p536
I540
sS'do'
p537
I541
sS'mixture'
p538
I542
sS'sunglasses'
p539
I543
sS'agape'
p540
I544
sS'sleepy'
p541
I545
sS'rock'
p542
I4054
sS'stop'
p543
I547
sS'coast'
p544
I548
sS'pocket'
p545
I549
sS'watermelon'
p546
I550
sS'cushion'
p547
I551
sS'altogether'
p548
I552
sS'report'
p549
I553
sS'pawed'
p550
I2897
sS'audinence'
p551
I555
sS'runs'
p552
I556
sS'bar'
p553
I557
sS'unlatch'
p554
I558
sS'covering'
p555
I559
sS'angery'
p556
I560
sS'tights'
p557
I561
sS'hello'
p558
I2137
sS'dipping'
p559
I562
sS'plush'
p560
I2231
sS'bag'
p561
I564
sS'bad'
p562
I565
sS'openly'
p563
I2925
sS'shots'
p564
I568
sS'cower'
p565
I1522
sS'release'
p566
I570
sS'kickflip'
p567
I3355
sS'steak'
p568
I571
sS'steal'
p569
I572
sS'steam'
p570
I573
sS'ears'
p571
I574
sS'respond'
p572
I575
sS'playstation'
p573
I576
sS'their'
p574
I3599
sS'fair'
p575
I577
sS'imitate'
p576
I578
sS'liquor'
p577
I580
sS'testing'
p578
I581
sS'beg'
p579
I3627
sS'nun'
p580
I583
sS'intertwine'
p581
I585
sS'fail'
p582
I586
sS'simultaneously'
p583
I530
sS'noodles'
p584
I588
sS'hammer'
p585
I589
sS'screams'
p586
I590
sS'brazil'
p587
I591
sS'away'
p588
I592
sS'sail'
p589
I593
sS'gentleman'
p590
I594
sS'shaved'
p591
I595
sS'artificial'
p592
I596
sS'ringo'
p593
I597
sS'mud'
p594
I598
sS'startle'
p595
I599
sS'score'
p596
I600
sS'finger'
p597
I601
sS'hopefully'
p598
I602
sS'yogurt'
p599
I603
sS'baboon'
p600
I604
sS'approach'
p601
I605
sS'pirate'
p602
I606
sS'360'
p603
I607
sS'warrior'
p604
I608
sS'we'
p605
I609
sS'wears'
p606
I610
sS'extend'
p607
I611
sS'nature'
p608
I612
sS'rolled'
p609
I905
sS'literally'
p610
I4038
sS'handful'
p611
I616
sS'contort'
p612
I619
sS'lotion'
p613
I620
sS'toothbrush'
p614
I621
sS'cut'
p615
I2932
sS'wear'
p616
I623
sS'unfold'
p617
I624
sS'wheelbarrow'
p618
I625
sS'cocconut'
p619
I626
sS'news'
p620
I627
sS'picking'
p621
I628
sS'packages'
p622
I629
sS'roller'
p623
I631
sS'kitchen'
p624
I632
sS'faced'
p625
I633
sS'cop'
p626
I634
sS'accident'
p627
I635
sS'cot'
p628
I636
sS'cow'
p629
I637
sS'disdain'
p630
I638
sS'cup'
p631
I2934
sS'against'
p632
I640
sS'facet'
p633
I641
sS'players'
p634
I642
sS'faces'
p635
I645
sS'uni'
p636
I646
sS'argue'
p637
I647
sS'disappears'
p638
I648
sS'#START#'
p639
I0
sS'stock'
p640
I3506
sS'widen'
p641
I650
sS'pose'
p642
I651
sS'appeared'
p643
I652
sS'strech'
p644
I653
sS'gopher'
p645
I655
sS'ollies'
p646
I656
sS'2nd'
p647
I657
sS'whisper'
p648
I4148
sS'inquisitive'
p649
I659
sS'wider'
p650
I660
sS'blonde'
p651
I661
sS'headlights'
p652
I357
sS'conference'
p653
I663
sS'putt'
p654
I664
sS'bathroom'
p655
I665
sS'puts'
p656
I666
sS'forard'
p657
I667
sS'fingets'
p658
I668
sS'beel'
p659
I669
sS'three'
p660
I670
sS'been'
p661
I944
sS'quickly'
p662
I672
sS'viewer'
p663
I3636
sS'beer'
p664
I674
sS'trigger'
p665
I675
sS'interest'
p666
I676
sS'basic'
p667
I677
sS'fry'
p668
I679
sS'containers'
p669
I680
sS'teenager'
p670
I681
sS'baloon'
p671
I682
sS'life'
p672
I683
sS'deeper'
p673
I684
sS'spit'
p674
I685
sS'attacked'
p675
I686
sS'skiis'
p676
I687
sS'dismiss'
p677
I688
sS'excite'
p678
I689
sS'gently'
p679
I3638
sS'attacker'
p680
I691
sS'lift'
p681
I692
sS'hoist'
p682
I693
sS'slap'
p683
I1539
sS'chile'
p684
I695
sS'child'
p685
I696
sS'catch'
p686
I697
sS'spin'
p687
I699
sS'teapot'
p688
I20
sS'danceers'
p689
I4162
sS'chill'
p690
I702
sS'save'
p691
I703
sS'tank'
p692
I704
sS'drumset'
p693
I705
sS'taper'
p694
I707
sS'cracker'
p695
I708
sS'air'
p696
I709
sS'aim'
p697
I710
sS'ugly'
p698
I711
sS'lizard'
p699
I712
sS'motorist'
p700
I877
sS'thrash'
p701
I715
sS'sticked'
p702
I716
sS'prostrate'
p703
I717
sS'armband'
p704
I1955
sS'leaves'
p705
I719
sS'cylinder'
p706
I722
sS'cane'
p707
I723
sS'handrail'
p708
I724
sS'is'
p709
I725
sS'it'
p710
I726
sS'sting'
p711
I727
sS'player'
p712
I728
sS'tiny'
p713
I2060
sS'tissue'
p714
I729
sS'cone'
p715
I730
sS'in'
p716
I731
sS'violin'
p717
I732
sS"girls'"
p718
I733
sS'mouse'
p719
I734
sS'id'
p720
I735
sS'disappear'
p721
I736
sS'if'
p722
I737
sS'grown'
p723
I738
sS'growl'
p724
I739
sS'bottles'
p725
I740
sS'descent'
p726
I741
sS'perform'
p727
I743
sS'things'
p728
I744
sS'make'
p729
I745
sS'toaster'
p730
I746
sS'sunglasse'
p731
I3238
sS'forehead'
p732
I747
sS'grapple'
p733
I748
sS'surprizingly'
p734
I3725
sS'descend'
p735
I750
sS'vegetable'
p736
I751
sS'several'
p737
I752
sS'bunny'
p738
I753
sS'bells'
p739
I754
sS'exertion'
p740
I323
sS'outstretch'
p741
I756
sS'moose'
p742
I757
sS'basketballs'
p743
I758
sS'fuss'
p744
I759
sS'rail'
p745
I760
sS'evil'
p746
I761
sS'kit'
p747
I360
sS'photographers'
p748
I763
sS'squat'
p749
I1551
sS'someting'
p750
I765
sS'unicorn'
p751
I767
sS'funitures'
p752
I768
sS'thoughts'
p753
I769
sS'kid'
p754
I770
sS'butter'
p755
I771
sS'anxsious'
p756
I3671
sS'smokes'
p757
I773
sS'ocean'
p758
I776
sS'contact'
p759
I467
sS'tombstone'
p760
I778
sS'mother'
p761
I779
sS'telephone'
p762
I2302
sS'hearts'
p763
I780
sS'the'
p764
I781
sS'smoked'
p765
I782
sS'musical'
p766
I783
sS'left'
p767
I784
sS'snowman'
p768
I785
sS'sticking'
p769
I2263
sS'appease'
p770
I787
sS'just'
p771
I788
sS'kinky'
p772
I789
sS'photo'
p773
I790
sS'laptop'
p774
I791
sS'moonwalk'
p775
I792
sS'aside'
p776
I1557
sS'rodent'
p777
I794
sS'disguise'
p778
I795
sS'thumbs'
p779
I796
sS'human'
p780
I797
sS'depart'
p781
I2265
sS'yes'
p782
I799
sS'brandish'
p783
I800
sS'divide'
p784
I801
sS'vomitting'
p785
I802
sS'adding'
p786
I803
sS'handshake'
p787
I804
sS'spectacles'
p788
I805
sS'nudge'
p789
I806
sS'ham'
p790
I807
sS'furry'
p791
I808
sS'ease'
p792
I809
sS'elf'
p793
I810
sS'hay'
p794
I812
sS'shout'
p795
I813
sS'spread'
p796
I814
sS'yoyo'
p797
I678
sS'board'
p798
I816
sS'basketball'
p799
I2504
sS'has'
p800
I817
sS'hat'
p801
I818
sS'erratically'
p802
I819
sS'book'
p803
I4167
sS'turquoise'
p804
I821
sS'skeptical'
p805
I2962
sS'feets'
p806
I823
sS'looks'
p807
I3759
sS'angrily'
p808
I824
sS'dismount'
p809
I825
sS'background'
p810
I827
sS'cape'
p811
I829
sS'shadow'
p812
I830
sS'forwar'
p813
I721
sS'retreat'
p814
I832
sS'apart'
p815
I833
sS'shoulder'
p816
I834
sS'intertwined'
p817
I906
sS'gift'
p818
I837
sS'cooler'
p819
I843
sS'awes'
p820
I3430
sS'nude'
p821
I840
sS'hunt'
p822
I841
sS'pumps'
p823
I4072
sS'zoom'
p824
I842
sS'pavement'
p825
I844
sS'steps'
p826
I845
sS'officer'
p827
I846
sS'zombies'
p828
I847
sS'night'
p829
I848
sS'security'
p830
I849
sS'yolk'
p831
I2982
sS'oncoming'
p832
I271
sS'surf'
p833
I1567
sS'right'
p834
I852
sS'old'
p835
I853
sS'deal'
p836
I775
sS'people'
p837
I855
sS'crown'
p838
I857
sS'dead'
p839
I858
sS'hoodlie'
p840
I859
sS'scrabble'
p841
I860
sS'escape'
p842
I861
sS'pain'
p843
I1570
sS'animate'
p844
I291
sS'creep'
p845
I864
sS'congratulate'
p846
I865
sS'for'
p847
I866
sS'bottom'
p848
I867
sS'purple'
p849
I868
sS'ear'
p850
I4123
sS'normal'
p851
I1572
sS'fox'
p852
I871
sS'jolt'
p853
I1203
sS'microwave'
p854
I1079
sS'rhino'
p855
I873
sS'track'
p856
I1573
sS'fog'
p857
I875
sS'treadmill'
p858
I878
sS'skateboarder'
p859
I879
sS'christmas'
p860
I880
sS'drink'
p861
I2496
sS'cord'
p862
I881
sS'peek'
p863
I882
sS'shakes'
p864
I883
sS'bold'
p865
I884
sS'peel'
p866
I885
sS'corn'
p867
I886
sS'trampoline'
p868
I1165
sS'cork'
p869
I1176
sS'speak'
p870
I4047
sS'sift'
p871
I889
sS'burp'
p872
I892
sS'defensive'
p873
I893
sS'keeper'
p874
I1205
sS'post'
p875
I895
sS'headstone'
p876
I1216
sS'yoko'
p877
I897
sS'trophy'
p878
I1232
sS'slither'
p879
I899
sS'yelling'
p880
I900
sS'compeletes'
p881
I901
sS'meow'
p882
I1252
sS'gaze'
p883
I3847
sS'shield'
p884
I3709
sS'choke'
p885
I904
sS'o'
I509
sS'magazine'
p886
I907
sS'unhindered'
p887
I2975
sS'horizon'
p888
I909
sS'hocky'
p889
I910
sS'twitch'
p890
I911
sS'slightly'
p891
I912
sS'hospital'
p892
I913
sS'meerkat'
p893
I914
sS'jacques'
p894
I915
sS'exclamation'
p895
I4175
sS'sob'
p896
I917
sS'mircophone'
p897
I918
sS'froze'
p898
I1353
sS'material'
p899
I3479
sS'selfie'
p900
I921
sS'float'
p901
I922
sS'rearview'
p902
I1379
sS'bath'
p903
I924
sS'down'
p904
I925
sS'fumes'
p905
I926
sS'escaltor'
p906
I927
sS'raises'
p907
I928
sS'wrap'
p908
I929
sS'shoots'
p909
I930
sS'frightened'
p910
I931
sS'stumble'
p911
I932
sS'strangely'
p912
I933
sS'unclip'
p913
I934
sS'cigarrett'
p914
I935
sS'fabric'
p915
I936
sS'wag'
p916
I937
sS'support'
p917
I938
sS'flying'
p918
I1236
sS'transform'
p919
I940
sS'fight'
p920
I941
sS'forhead'
p921
I942
sS'stuck'
p922
I943
sS'quote'
p923
I3007
sS'way'
p924
I945
sS'faceplants'
p925
I946
sS'pipe'
p926
I3685
sS'untie'
p927
I141
sS'was'
p928
I948
sS'halls'
p929
I949
sS'teddybear'
p930
I951
sS'questionable'
p931
I952
sS'head'
p932
I953
sS'pirouette'
p933
I954
sS'offer'
p934
I955
sS'proudly'
p935
I956
sS'fireworks'
p936
I958
sS'removes'
p937
I959
sS'landing'
p938
I960
sS'undress'
p939
I2980
sS'heat'
p940
I963
sS'uncle'
p941
I964
sS'diaper'
p942
I965
sS'trun'
p943
I1611
sS'astonished'
p944
I968
sS'approval'
p945
I3802
sS'digusted'
p946
I970
sS'otter'
p947
I971
sS'mouthed'
p948
I973
sS'injury'
p949
I2288
sS'stripper'
p950
I3119
sS'martial'
p951
I2983
sS'inside'
p952
I977
sS'attached'
p953
I978
sS'bouncy'
p954
I766
sS'devices'
p955
I980
sS'tell'
p956
I981
sS'decorate'
p957
I982
sS'smashed'
p958
I984
sS'emotional'
p959
I985
sS'daddy'
p960
I987
sS'trim'
p961
I988
sS'passenger'
p962
I989
sS'stabalized'
p963
I1554
sS'sticks'
p964
I991
sS'up'
p965
I3093
sS'underwater'
p966
I3792
sS'toss'
p967
I992
sS'covers'
p968
I994
sS'sticky'
p969
I995
sS'soothe'
p970
I996
sS'exist'
p971
I997
sS'revitalize'
p972
I998
sS'prayer'
p973
I1795
sS'tea'
p974
I2202
sS'swatter'
p975
I1000
sS'floating'
p976
I1001
sS'annoying'
p977
I1002
sS'mold'
p978
I1003
sS'check'
p979
I1004
sS'crutches'
p980
I1835
sS'leer'
p981
I1008
sS'saber'
p982
I1009
sS'dotted'
p983
I1010
sS'no'
p984
I1011
sS'scurry'
p985
I2252
sS'stake'
p986
I1012
sS'when'
p987
I1013
sS'ne'
p988
I1014
sS'actor'
p989
I1015
sS'til'
p990
I1016
sS'tin'
p991
I1018
sS'interested'
p992
I1019
sS'holding'
p993
I1020
sS'papers'
p994
I1021
sS'test'
p995
I1022
sS'tie'
p996
I1023
sS'smell'
p997
I1024
sS'roll'
p998
I1025
sS'node'
p999
I1028
sS'picture'
p1000
I1029
sS"'s"
p1001
I1030
sS'brothers'
p1002
I1031
sS'sling'
p1003
I1032
sS'models'
p1004
I1033
sS'slink'
p1005
I1034
sS'football'
p1006
I1035
sS'fell'
p1007
I1036
sS'nods'
p1008
I1038
sS'scores'
p1009
I1039
sS'rolling'
p1010
I1040
sS'stoke'
p1011
I1041
sS'jiggle'
p1012
I1959
sS'tugboat'
p1013
I1044
sS'younger'
p1014
I1045
sS'undisturbed'
p1015
I1046
sS'bullet'
p1016
I1047
sS'glass'
p1017
I1048
sS'assume'
p1018
I1049
sS'cub'
p1019
I4156
sS'vigorously'
p1020
I1050
sS'landed'
p1021
I2303
sS'together'
p1022
I1052
sS'jacket'
p1023
I1053
sS'gorilla'
p1024
I1054
sS'gyrate'
p1025
I1055
sS'classmate'
p1026
I1056
sS'teeth'
p1027
I1057
sS'push'
p1028
I1058
sS'serious'
p1029
I1059
sS'backward'
p1030
I1061
sS'adjacent'
p1031
I2447
sS'others'
p1032
I3276
sS'neighbors'
p1033
I1063
sS'gown'
p1034
I1064
sS'coach'
p1035
I1065
sS'newbie'
p1036
I1066
sS'impulse'
p1037
I2305
sS'chain'
p1038
I1068
sS'eyeglasses'
p1039
I2919
sS'dance'
p1040
I1069
sS'skip'
p1041
I1070
sS'relieve'
p1042
I1071
sS'rod'
p1043
I1072
sS'focus'
p1044
I1073
sS'snip'
p1045
I1075
sS'crocodile'
p1046
I1076
sS'drumbells'
p1047
I150
sS'skim'
p1048
I1078
sS'ice'
p1049
I872
sS'skin'
p1050
I1080
sS'trashcan'
p1051
I1081
sS'chair'
p1052
I1082
sS'skid'
p1053
I1083
sS'row'
p1054
I1085
sS'varnish'
p1055
I1086
sS'grape'
p1056
I1087
sS'somthing'
p1057
I1088
sS'hairband'
p1058
I3003
sS'flask'
p1059
I1090
sS'hump'
p1060
I1091
sS'flash'
p1061
I1092
sS'father'
p1062
I1093
sS'disgusting'
p1063
I2601
sS'amaze'
p1064
I1096
sS'charge'
p1065
I1097
sS'vee'
p1066
I1098
sS'ride'
p1067
I3354
sS'eybrows'
p1068
I1101
sS'brown'
p1069
I1102
sS'smartphone'
p1070
I1103
sS'string'
p1071
I1104
sS'jerk'
p1072
I1105
sS'fawcet'
p1073
I1106
sS'sloppy'
p1074
I1107
sS'vaccuum'
p1075
I1108
sS'kitten'
p1076
I1109
sS'cook'
p1077
I1110
sS'word'
p1078
I166
sS'airing'
p1079
I1112
sS'blast'
p1080
I1113
sS'cool'
p1081
I1114
sS'dim'
p1082
I1115
sS'stapler'
p1083
I1116
sS'nectar'
p1084
I1117
sS'level'
p1085
I1118
sS'tear'
p1086
I1119
sS'turns'
p1087
I1120
sS'dig'
p1088
I1121
sS'posts'
p1089
I1122
sS'accidentally'
p1090
I382
sS'gum'
p1091
I1124
sS'leave'
p1092
I1125
sS'item'
p1093
I1126
sS'fornt'
p1094
I1127
sS'settle'
p1095
I1128
sS'grimace'
p1096
I1129
sS'guitars'
p1097
I1130
sS'team'
p1098
I1131
sS'quick'
p1099
I1132
sS'lever'
p1100
I1133
sS'guy'
p1101
I1134
sS'dip'
p1102
I1135
sS'round'
p1103
I1136
sS'unaware'
p1104
I1137
sS'seaweed'
p1105
I3704
sS'shave'
p1106
I1139
sS'upper'
p1107
I1140
sS'blade'
p1108
I169
sS'temples'
p1109
I1142
sS'tougher'
p1110
I1143
sS'attic'
p1111
I1144
sS'sigh'
p1112
I1145
sS'agitate'
p1113
I1146
sS'sign'
p1114
I1147
sS'heavyweight'
p1115
I1148
sS'shirts'
p1116
I1149
sS'patient'
p1117
I3015
sS'jackson'
p1118
I4185
sS'chicken'
p1119
I3707
sS'drinks'
p1120
I1152
sS'headset'
p1121
I1153
sS'stands'
p1122
I1154
sS'convulse'
p1123
I1155
sS'melt'
p1124
I1156
sS'uniform'
p1125
I1157
sS'wriggle'
p1126
I1158
sS'falling'
p1127
I1160
sS'trot'
p1128
I1620
sS'badge'
p1129
I1162
sS'wheelies'
p1130
I1163
sS'satisfy'
p1131
I1164
sS'burn'
p1132
I887
sS'explosion'
p1133
I1166
sS'heavily'
p1134
I2675
sS'doing'
p1135
I4100
sS'makeup'
p1136
I1167
sS'agreement'
p1137
I3020
sS'water'
p1138
I1169
sS'contemplate'
p1139
I1170
sS'slow'
p1140
I1623
sS'baseball'
p1141
I1172
sS'address'
p1142
I1173
sS'alone'
p1143
I1174
sS'along'
p1144
I1175
sS'disappeared'
p1145
I888
sS'teacher'
p1146
I1177
sS'change'
p1147
I1178
sS'wait'
p1148
I1179
sS'box'
p1149
I1180
sS'boy'
p1150
I1181
sS'beanbag'
p1151
I1182
sS'flames'
p1152
I658
sS'shift'
p1153
I1186
sS'bow'
p1154
I1189
sS'sharpening'
p1155
I2872
sS'women'
p1156
I3347
sS'jaw'
p1157
I3715
sS'raccoon'
p1158
I1191
sS'weird'
p1159
I587
sS'pillow'
p1160
I1194
sS'massage'
p1161
I1195
sS'emerge'
p1162
I1197
sS'breathtaking'
p1163
I1198
sS'love'
p1164
I1199
sS'somersaults'
p1165
I1200
sS'tuxedo'
p1166
I2943
sS'bloody'
p1167
I513
sS'uphill'
p1168
I1204
sS'peer'
p1169
I894
sS'snowboard'
p1170
I1206
sS'fake'
p1171
I1207
sS'touchdown'
p1172
I1208
sS'quiver'
p1173
I1209
sS'forefront'
p1174
I1210
sS'sympathetic'
p1175
I1074
sS'streetcar'
p1176
I1213
sS'working'
p1177
I1214
sS'perk'
p1178
I1215
sS'bury'
p1179
I896
sS'angry'
p1180
I1217
sS'dangle'
p1181
I1218
sS'dude'
p1182
I1219
sS'oponent'
p1183
I1631
sS'tightly'
p1184
I1221
sS'by'
p1185
I3028
sS'live'
p1186
I1223
sS'prey'
p1187
I1224
sS'somersault'
p1188
I1225
sS'scope'
p1189
I1427
sS'sharpen'
p1190
I1227
sS'thru'
p1191
I1228
sS'intently'
p1192
I1230
sS'scratched'
p1193
I1231
sS'plug'
p1194
I898
sS'entrance'
p1195
I1233
sS'club'
p1196
I1235
sS'envelope'
p1197
I1238
sS'chocolate'
p1198
I1239
sS'everywhere'
p1199
I1240
sS'fingered'
p1200
I1241
sS'robe'
p1201
I1638
sS'mascot'
p1202
I1244
sS'fly'
p1203
I1245
sS'pushed'
p1204
I2334
sS'car'
p1205
I1247
sS'pretend'
p1206
I1248
sS'cat'
p1207
I1250
sS'attacks'
p1208
I902
sS'sour'
p1209
I1253
sS'can'
p1210
I1254
sS'cam'
p1211
I1255
sS'cal'
p1212
I1256
sS'following'
p1213
I1257
sS'cab'
p1214
I720
sS'sidways'
p1215
I1574
sS'bites'
p1216
I1261
sS'heart'
p1217
I1263
sS'crazy'
p1218
I1264
sS'performer'
p1219
I1265
sS'earphone'
p1220
I1266
sS'grassy'
p1221
I1267
sS'figure'
p1222
I1268
sS'chis'
p1223
I1269
sS'chip'
p1224
I1270
sS'confused'
p1225
I1271
sS'expectant'
p1226
I1272
sS'parachute'
p1227
I1273
sS'drawer'
p1228
I1274
sS'stroke'
p1229
I1275
sS'abort'
p1230
I1276
sS'chin'
p1231
I1277
sS'dropped'
p1232
I1278
sS'sharp'
p1233
I2337
sS'capsules'
p1234
I3280
sS'airplane'
p1235
I2338
sS'pink'
p1236
I1282
sS'plyometrics'
p1237
I1284
sS'rubix'
p1238
I1285
sS'skater'
p1239
I3477
sS'savor'
p1240
I1286
sS'tilt'
p1241
I1287
sS'ping'
p1242
I1288
sS'freezer'
p1243
I1290
sS'write'
p1244
I1291
sS'till'
p1245
I1292
sS'emotionless'
p1246
I1293
sS'hamburgers'
p1247
I2341
sS'sword'
p1248
I1295
sS'elephant'
p1249
I1296
sS'pins'
p1250
I1322
sS'speaks'
p1251
I1298
sS'recline'
p1252
I3920
sS'map'
p1253
I1301
sS'rejoice'
p1254
I3723
sS'mat'
p1255
I1302
sS'cocktail'
p1256
I1303
sS'dive'
p1257
I1305
sS'annoyed'
p1258
I3152
sS'spot'
p1259
I1306
sS'staris'
p1260
I1307
sS'disgusted'
p1261
I1308
sS'crashed'
p1262
I1309
sS'birthday'
p1263
I1310
sS'carmera'
p1264
I1311
sS'mad'
p1265
I1312
sS'court'
p1266
I2344
sS'tablecloth'
p1267
I1315
sS'guys'
p1268
I1316
sS'wagging'
p1269
I1317
sS'lifting'
p1270
I1318
sS'man'
p1271
I1319
sS'classroom'
p1272
I1320
sS'stress'
p1273
I1321
sS'natural'
p1274
I1323
sS'neck'
p1275
I1324
sS'liquid'
p1276
I1325
sS'joint'
p1277
I2054
sS'drumsticks'
p1278
I1327
sS'amuse'
p1279
I1328
sS'voice'
p1280
I3388
sS'bean'
p1281
I3737
sS'st'
p1282
I1331
sS'q'
I1332
sS'switch'
p1283
I1333
sS'ones'
p1284
I3738
sS'truck'
p1285
I1334
sS'deposit'
p1286
I1335
sS'dimple'
p1287
I1336
sS'basket'
p1288
I1337
sS'tall'
p1289
I1338
sS'drone'
p1290
I3945
sS'pulled'
p1291
I1339
sS'crumple'
p1292
I1340
sS'talk'
p1293
I1341
sS'shoes'
p1294
I1342
sS'blocker'
p1295
I1343
sS'beak'
p1296
I3740
sS'flips'
p1297
I1345
sS'bended'
p1298
I1212
sS'playful'
p1299
I1346
sS'course'
p1300
I1347
sS'crack'
p1301
I3982
sS'counterclockwise'
p1302
I1348
sS'shake'
p1303
I1349
sS'horrify'
p1304
I1350
sS'still'
p1305
I1351
sS'skeleton'
p1306
I2147
sS'birds'
p1307
I1352
sS'limbs'
p1308
I1354
sS'group'
p1309
I304
sS'thumb'
p1310
I1356
sS'curly'
p1311
I1357
sS'acknowledge'
p1312
I1358
sS'duplex'
p1313
I1359
sS'chips'
p1314
I1961
sS'cheerleaders'
p1315
I1361
sS'groud'
p1316
I1362
sS'platform'
p1317
I1363
sS'window'
p1318
I1364
sS'suspicion'
p1319
I1365
sS'thump'
p1320
I1366
sS'mail'
p1321
I1367
sS'main'
p1322
I1368
sS'tiara'
p1323
I1369
sS'kissy'
p1324
I1370
sS'apron'
p1325
I630
sS'halt'
p1326
I1373
sS'fling'
p1327
I1374
sS'nod'
p1328
I1375
sS'hugs'
p1329
I2352
sS'shatter'
p1330
I1377
sS'solomn'
p1331
I1378
sS'nation'
p1332
I3931
sS'underneath'
p1333
I1380
sS'interview'
p1334
I1381
sS'gate'
p1335
I1382
sS'not'
p1336
I1383
sS'hall'
p1337
I1384
sS'possess'
p1338
I1385
sS'wagon'
p1339
I1386
sS'execute'
p1340
I1387
sS'aersol'
p1341
I1388
sS'scooters'
p1342
I1187
sS'drop'
p1343
I1390
sS'arrows'
p1344
I1391
sS'synchronize'
p1345
I1392
sS'nodding'
p1346
I1393
sS'triceps'
p1347
I1394
sS'hijack'
p1348
I1395
sS'quarter'
p1349
I1396
sS'turtle'
p1350
I969
sS'trunks'
p1351
I876
sS'retrieve'
p1352
I1399
sS'elephants'
p1353
I1400
sS'gandalf'
p1354
I4057
sS'torch'
p1355
I1401
sS'sprinkle'
p1356
I2357
sS'goose'
p1357
I1403
sS'soy'
p1358
I1404
sS'unlock'
p1359
I1405
sS'skydiver'
p1360
I1407
sS'entering'
p1361
I869
sS'girl'
p1362
I1410
sS'summon'
p1363
I3753
sS'pills'
p1364
I1412
sS'es'
p1365
I1413
sS'briefcase'
p1366
I1414
sS'troll'
p1367
I1415
sS'joker'
p1368
I1659
sS'canvas'
p1369
I1417
sS'container'
p1370
I1418
sS'rioters'
p1371
I1017
sS'space'
p1372
I1420
sS'lavishly'
p1373
I1421
sS'exciteed'
p1374
I2815
sS'increase'
p1375
I15
sS'seriously'
p1376
I1425
sS'exploding'
p1377
I3744
sS'formula'
p1378
I1429
sS'eyebraws'
p1379
I1430
sS'shows'
p1380
I1431
sS'maneuver'
p1381
I1432
sS'goth'
p1382
I1433
sS'hula'
p1383
I1434
sS'monster'
p1384
I1435
sS'annoyance'
p1385
I521
sS'cars'
p1386
I81
sS'envelop'
p1387
I1438
sS'cart'
p1388
I1439
sS'kitechen'
p1389
I1440
sS'bumps'
p1390
I1441
sS'mime'
p1391
I1442
sS'lab'
p1392
I1443
sS'intensely'
p1393
I1444
sS'notary'
p1394
I1445
sS'inhaler'
p1395
I1446
sS'headband'
p1396
I131
sS'orb'
p1397
I135
sS'seriuos'
p1398
I2172
sS'manikin'
p1399
I52
sS'care'
p1400
I1451
sS'partner'
p1401
I3898
sS'underwear'
p1402
I1452
sS'waiter'
p1403
I1455
sS'flare'
p1404
I1456
sS'transition'
p1405
I186
sS'hoola'
p1406
I2366
sS'ostrich'
p1407
I1460
sS'motion'
p1408
I1461
sS'turn'
p1409
I1462
sS'place'
p1410
I1464
sS"friends'"
p1411
I1665
sS'swing'
p1412
I1466
sS'think'
p1413
I1469
sS'teammates'
p1414
I1470
sS'first'
p1415
I1471
sS'blind'
p1416
I252
sS'cheese'
p1417
I1473
sS'wad'
p1418
I939
sS'question'
p1419
I1454
sS'waves'
p1420
I2369
sS'faceplant'
p1421
I3381
sS'flipping'
p1422
I1477
sS'blink'
p1423
I302
sS'fast'
p1424
I3056
sS'directly'
p1425
I1481
sS'carry'
p1426
I1482
sS'ring'
p1427
I331
sS'open'
p1428
I1484
sS"'em"
p1429
I1485
sS'guitarists'
p1430
I1486
sS'sheep'
p1431
I1487
sS'city'
p1432
I1488
sS'little'
p1433
I1489
sS'sheet'
p1434
I1491
sS'silent'
p1435
I1492
sS'lap'
p1436
I1493
sS'caught'
p1437
I376
sS'whits'
p1438
I1496
sS'response'
p1439
I2373
sS'checker'
p1440
I1499
sS'carousel'
p1441
I1501
sS'typing'
p1442
I1502
sS'white'
p1443
I1503
sS'bits'
p1444
I1504
sS'puddle'
p1445
I3762
sS'mermaid'
p1446
I437
sS'gives'
p1447
I1507
sS'eyes'
p1448
I1508
sS'hug'
p1449
I1509
sS'that'
p1450
I1510
sS'memo'
p1451
I1511
sS'wax'
p1452
I2350
sS'snatch'
p1453
I1513
sS'padding'
p1454
I1514
sS'rotate'
p1455
I2963
sS'eyed'
p1456
I1515
sS'butt'
p1457
I1516
sS'copy'
p1458
I5
sS'photographic'
p1459
I1518
sS'eyen'
p1460
I537
sS'11'
p1461
I1520
sS'wide'
p1462
I1521
sS'rival'
p1463
I569
sS'karate'
p1464
I1524
sS'knives'
p1465
I1525
sS'opens'
p1466
I3065
sS'cymbals'
p1467
I1527
sS'extinguish'
p1468
I1528
sS'happy'
p1469
I1529
sS'dissapointed'
p1470
I1530
sS'tractor'
p1471
I1531
sS'and'
p1472
I1532
sS'fork'
p1473
I1533
sS'coconut'
p1474
I1534
sS'lick'
p1475
I1535
sS'angel'
p1476
I1536
sS'flyswatter'
p1477
I1537
sS'turned'
p1478
I1538
sS'few'
p1479
I3053
sS'alley'
p1480
I694
sS'sad'
p1481
I1540
sS'say'
p1482
I1541
sS'slam'
p1483
I1542
sS'camouflages'
p1484
I1543
sS'pastry'
p1485
I1544
sS'scratch'
p1486
I3168
sS'anger'
p1487
I1545
sS'recover'
p1488
I1546
sS'saw'
p1489
I1547
sS'any'
p1490
I1548
sS'batting'
p1491
I1549
sS'speakers'
p1492
I1550
sS'hooded'
p1493
I764
sS'form'
p1494
I1552
sS'cigarettes'
p1495
I1553
sS'snowy'
p1496
I1555
sS'downwards'
p1497
I1556
sS'telekinetically'
p1498
I1457
sS'shocked'
p1499
I1558
sS'note'
p1500
I1559
sS'equipment'
p1501
I1560
sS'excitiement'
p1502
I1561
sS'take'
p1503
I1562
sS'batman'
p1504
I1563
sS'destroy'
p1505
I828
sS'tambourine'
p1506
I1565
sS'channel'
p1507
I1566
sS'butterfly'
p1508
I851
sS'begin'
p1509
I1568
sS'printer'
p1510
I1569
sS'multiple'
p1511
I862
sS'trace'
p1512
I1571
sS'opposite'
p1513
I870
sS'sledge'
p1514
I874
sS'tensionly'
p1515
I1575
sS'enter'
p1516
I1576
sS'falls'
p1517
I1577
sS'somekind'
p1518
I919
sS'multiply'
p1519
I1579
sS'knee'
p1520
I1580
sS'america'
p1521
I1582
sS'pages'
p1522
I1583
sS'lawn'
p1523
I1584
sS'vapor'
p1524
I1585
sS'dragonfly'
p1525
I1586
sS'cloth'
p1526
I3077
sS'later'
p1527
I990
sS'steady'
p1528
I1589
sS'drive'
p1529
I1590
sS'arounds'
p1530
I1591
sS'ways'
p1531
I1685
sS'aerosol'
p1532
I1594
sS'scowl'
p1533
I1027
sS'slaves'
p1534
I1596
sS'axe'
p1535
I1597
sS'hear'
p1536
I1598
sS'hedgehog'
p1537
I1599
sS'salt'
p1538
I1600
sS'sunset'
p1539
I1601
sS'corrie'
p1540
I1602
sS'creamer'
p1541
I3721
sS'slope'
p1542
I975
sS'perch'
p1543
I1605
sS'walking'
p1544
I1606
sS'drastically'
p1545
I1607
sS'shot'
p1546
I1608
sS'show'
p1547
I1609
sS'diktat'
p1548
I1099
sS'hamburger'
p1549
I2327
sS'mug'
p1550
I3717
sS'elevate'
p1551
I1613
sS'bright'
p1552
I1614
sS'shoe'
p1553
I1615
sS'corner'
p1554
I1616
sS'aggressive'
p1555
I1617
sS'eyelids'
p1556
I3535
sS'groung'
p1557
I1618
sS'line'
p1558
I3084
sS'ground'
p1559
I1161
sS'slot'
p1560
I1621
sS'teacup'
p1561
I1689
sS'gnaw'
p1562
I1171
sS'stair'
p1563
I1624
sS'title'
p1564
I1625
sS'gourd'
p1565
I1626
sS'pen'
p1566
I3004
sS'cloak'
p1567
I1289
sS'gulp'
p1568
I1629
sS'foward'
p1569
I1630
sS'only'
p1570
I1220
sS'wood'
p1571
I1632
sS'black'
p1572
I1633
sS'hockey'
p1573
I1634
sS'incredulous'
p1574
I1635
sS'outrage'
p1575
I1636
sS'unravel'
p1576
I3782
sS'stain'
p1577
I993
sS'cheeck'
p1578
I1639
sS'interstate'
p1579
I1260
sS'hippo'
p1580
I1641
sS'yogart'
p1581
I1642
sS'closed'
p1582
I3783
sS'get'
p1583
I1644
sS'grief'
p1584
I3819
sS'cannon'
p1585
I1645
sS'stomp'
p1586
I1646
sS'hiss'
p1587
I1693
sS'wheelie'
p1588
I1648
sS'nearly'
p1589
I1649
sS'submerge'
p1590
I1650
sS'hedge'
p1591
I1651
sS'deploy'
p1592
I3664
sS'celebrate'
p1593
I1652
sS'reveal'
p1594
I1653
sS'artist'
p1595
I1655
sS'leather'
p1596
I1656
sS'median'
p1597
I1657
sS'worried'
p1598
I1062
sS'naked'
p1599
I1416
sS'jacuzzi'
p1600
I1660
sS'primp'
p1601
I1661
sS'uncover'
p1602
I1662
sS'pants'
p1603
I3789
sS'where'
p1604
I1664
sS'silently'
p1605
I1465
sS'picnic'
p1606
I1666
sS'milling'
p1607
I1667
sS'burst'
p1608
I1668
sS'sear'
p1609
I1670
sS'sqats'
p1610
I1672
sS'seat'
p1611
I1673
sS'asleep'
p1612
I1674
sS'egde'
p1613
I1675
sS'seal'
p1614
I1676
sS'smashes'
p1615
I1678
sS'acrobatically'
p1616
I1679
sS'concern'
p1617
I1680
sS'knocked'
p1618
I2318
sS'suffer'
p1619
I2409
sS'man4'
p1620
I1682
sS'vertical'
p1621
I1700
sS'bicyclist'
p1622
I1684
sS'crooked'
p1623
I1592
sS'glaze'
p1624
I1610
sS'label'
p1625
I1688
sS'dogtag'
p1626
I1622
sS'pump'
p1627
I1628
sS'behine'
p1628
I1692
sS'between'
p1629
I1647
sS'enjoys'
p1630
I1694
sS'walks'
p1631
I3890
sS'checks'
p1632
I1658
sS'whipped'
p1633
I1696
sS'notice'
p1634
I1697
sS'checkered'
p1635
I1698
sS'warding'
p1636
I1699
sS'parent'
p1637
I1683
sS'screen'
p1638
I1701
sS'flow'
p1639
I3109
sS'pluck'
p1640
I1702
sS'guitar'
p1641
I1703
sS'concentrate'
p1642
I1704
sS'awards'
p1643
I1705
sS'straght'
p1644
I1706
sS'boomerang'
p1645
I1707
sS'singers'
p1646
I1708
sS'rapidly'
p1647
I2412
sS'tub'
p1648
I1710
sS'comb'
p1649
I1711
sS'come'
p1650
I1712
sS'tug'
p1651
I1713
sS'reaction'
p1652
I1593
sS'mans'
p1653
I1715
sS'parapet'
p1654
I1716
sS'tuck'
p1655
I1717
sS'many'
p1656
I1718
sS'quiet'
p1657
I1719
sS'flipped'
p1658
I1720
sS'surpise'
p1659
I1721
sS'loudly'
p1660
I1722
sS'disappointment'
p1661
I1723
sS'wheels'
p1662
I1724
sS'expression'
p1663
I1725
sS'backpack'
p1664
I1726
sS'comes'
p1665
I1727
sS'nearby'
p1666
I1728
sS'concert'
p1667
I1729
sS'stretcher'
p1668
I1730
sS'pols'
p1669
I1731
sS'sence'
p1670
I2379
sS'terse'
p1671
I701
sS'pow'
p1672
I1733
sS'pot'
p1673
I1734
sS'jeans'
p1674
I1735
sS'pop'
p1675
I1736
sS'icecream'
p1676
I3780
sS'twin'
p1677
I1671
sS'pacifier'
p1678
I1738
sS'micrphone'
p1679
I1739
sS'poll'
p1680
I1740
sS'spark'
p1681
I1741
sS'boat'
p1682
I1742
sS'arts'
p1683
I1743
sS'drower'
p1684
I1744
sS'teammate'
p1685
I1745
sS'teddy'
p1686
I1747
sS'stretch'
p1687
I1748
sS'wobble'
p1688
I1749
sS'invert'
p1689
I1750
sS'undershirt'
p1690
I1751
sS'bulding'
p1691
I1752
sS'mark'
p1692
I1753
sS'breath'
p1693
I1754
sS'workshop'
p1694
I1756
sS'binoculars'
p1695
I3924
sS'peaceful'
p1696
I1757
sS'helicopter'
p1697
I1758
sS'reflex'
p1698
I1759
sS'engine'
p1699
I1760
sS'direction'
p1700
I1761
sS'lanes'
p1701
I1762
sS'puff'
p1702
I3821
sS'oust'
p1703
I1714
sS'mischievious'
p1704
I1764
sS'lauughs'
p1705
I1765
sS'exclaim'
p1706
I3808
sS'sheeks'
p1707
I1767
sS'tiger'
p1708
I1768
sS'photos'
p1709
I2136
sS'observe'
p1710
I1770
sS'wake'
p1711
I1771
sS'muscular'
p1712
I1772
sS'foggy'
p1713
I1773
sS'attentive'
p1714
I1774
sS'spirit'
p1715
I957
sS'those'
p1716
I1776
sS'sniff'
p1717
I3810
sS'case'
p1718
I1777
sS'intensley'
p1719
I1778
sS'handstands'
p1720
I3811
sS'spiderman'
p1721
I1779
sS'mount'
p1722
I1780
sS'polls'
p1723
I1781
sS'sex'
p1724
I3616
sS'straighten'
p1725
I1782
sS'scuffle'
p1726
I4028
sS'trick'
p1727
I1783
sS'cast'
p1728
I1784
sS'sniffle'
p1729
I3040
sS'ratchet'
p1730
I1785
sS'newspaper'
p1731
I1786
sS'mound'
p1732
I1787
sS'cock'
p1733
I1788
sS'vest'
p1734
I1791
sS'chat'
p1735
I3115
sS'canoe'
p1736
I1793
sS'ramp'
p1737
I3814
sS'brow'
p1738
I1794
sS'strait'
p1739
I2294
sS'purse'
p1740
I1796
sS'coffee'
p1741
I1797
sS'speedway'
p1742
I1798
sS'sleeping'
p1743
I1799
sS'parse'
p1744
I1800
sS'strain'
p1745
I1251
sS'exhertion'
p1746
I1802
sS'punched'
p1747
I1803
sS'dangerously'
p1748
I1804
sS'heels'
p1749
I1805
sS'beaver'
p1750
I1249
sS'spooked'
p1751
I1807
sS'property'
p1752
I1808
sS'stickers'
p1753
I1809
sS'ship'
p1754
I1810
sS'worry'
p1755
I1811
sS'movements'
p1756
I1812
sS'bags'
p1757
I962
sS'different'
p1758
I1814
sS'missiles'
p1759
I1815
sS'pat'
p1760
I1816
sS'doctor'
p1761
I1067
sS'bowl'
p1762
I1819
sS'lits'
p1763
I1820
sS'trip'
p1764
I1821
sS'speech'
p1765
I1822
sS'pushup'
p1766
I1823
sS'propose'
p1767
I2432
sS'unconsious'
p1768
I1825
sS'stepped'
p1769
I1826
sS'halfpipe'
p1770
I1827
sS'isle'
p1771
I1828
sS'pan'
p1772
I1829
sS'nuzzle'
p1773
I1830
sS'exhaust'
p1774
I1831
sS'similing'
p1775
I1832
sS'extended'
p1776
I420
sS'closest'
p1777
I1834
sS'applaud'
p1778
I1836
sS'nest'
p1779
I1837
sS'assist'
p1780
I1838
sS'driver'
p1781
I1839
sS'drives'
p1782
I1840
sS'deflate'
p1783
I1841
sS'companion'
p1784
I1842
sS'cheers'
p1785
I1843
sS'persons'
p1786
I1844
sS'running'
p1787
I1845
sS'fruit'
p1788
I1846
sS'two'
p1789
I2282
sS'tamborine'
p1790
I1847
sS'intended'
p1791
I2360
sS'outstretched'
p1792
I1849
sS'cartoon'
p1793
I1850
sS'weave'
p1794
I1851
sS'nunchucks'
p1795
I1852
sS'theater'
p1796
I1853
sS'whose'
p1797
I1854
sS'groundhog'
p1798
I1855
sS'sideways'
p1799
I1437
sS'floor'
p1800
I1856
sS'snowball'
p1801
I2436
sS'spoonful'
p1802
I1859
sS'without'
p1803
I1860
sS'relief'
p1804
I1861
sS'bottle'
p1805
I1862
sS'pitbull'
p1806
I1863
sS'very'
p1807
I2175
sS'model'
p1808
I1865
sS'amazed'
p1809
I1866
sS'prowl'
p1810
I1867
sS'being'
p1811
I1868
sS'tip'
p1812
I1869
sS'dancers'
p1813
I1871
sS'neon'
p1814
I1872
sS'annoied'
p1815
I1873
sS'actress'
p1816
I107
sS'kill'
p1817
I1875
sS'handed'
p1818
I1876
sS'mongoose'
p1819
I1877
sS'touch'
p1820
I1878
sS'polish'
p1821
I1879
sS'hopeful'
p1822
I3716
sS'speed'
p1823
I1880
sS'kneeling'
p1824
I1881
sS'halfway'
p1825
I1883
sS'blow'
p1826
I1884
sS'ladle'
p1827
I3202
sS'gather'
p1828
I3681
sS'snowboarder'
p1829
I1885
sS'provocatively'
p1830
I1886
sS'womans'
p1831
I1887
sS'\\?'
p1832
I1888
sS'seems'
p1833
I1890
sS'pallet'
p1834
I1891
sS'color'
p1835
I1732
sS'pile'
p1836
I1894
sS'4'
I2809
sS'hind'
p1837
I1896
sS'headboard'
p1838
I1897
sS'bullpup'
p1839
I1898
sS'ross'
p1840
I1899
sS'swim'
p1841
I1900
sS'hover'
p1842
I1901
sS'frown'
p1843
I1902
sS'read'
p1844
I1903
sS'mop'
p1845
I1904
sS'mow'
p1846
I1905
sS'fridge'
p1847
I1906
sS'dart'
p1848
I1907
sS'dark'
p1849
I1908
sS'tensed'
p1850
I1909
sS'chainsaw'
p1851
I1910
sS'snarl'
p1852
I1911
sS'traffic'
p1853
I1912
sS'spank'
p1854
I1913
sS'mom'
p1855
I1914
sS'vacuum'
p1856
I1915
sS'mob'
p1857
I1916
sS'railroad'
p1858
I1917
sS'walk'
p1859
I3832
sS'lady'
p1860
I1919
sS'rear'
p1861
I1920
sS'furniture'
p1862
I1921
sS'vertically'
p1863
I1922
sS'clam'
p1864
I1923
sS'towel'
p1865
I1924
sS'stranger'
p1866
I1925
sS'brightness'
p1867
I1926
sS'bracelet'
p1868
I1927
sS'pole'
p1869
I1737
sS'shrink'
p1870
I706
sS'facing'
p1871
I1930
sS'audience'
p1872
I1932
sS'somethong'
p1873
I3494
sS'thighs'
p1874
I1095
sS'clay'
p1875
I1934
sS'claw'
p1876
I1935
sS'downward'
p1877
I1936
sS'passionate'
p1878
I1937
sS'stationary'
p1879
I1938
sS'clap'
p1880
I1939
sS'shimmy'
p1881
I1940
sS'fives'
p1882
I1941
sS'doll'
p1883
I1942
sS'ascend'
p1884
I1943
sS'interlock'
p1885
I1944
sS'eagle'
p1886
I1945
sS'erase'
p1887
I1946
sS'unraveling'
p1888
I1947
sS'images'
p1889
I1948
sS'diving'
p1890
I838
sS'intact'
p1891
I1950
sS'flowerhaed'
p1892
I1951
sS'provided'
p1893
I1952
sS'slice'
p1894
I1953
sS'palms'
p1895
I1954
sS'curious'
p1896
I2989
sS'tube'
p1897
I1956
sS'longboard'
p1898
I1957
sS'slick'
p1899
I1958
sS'tuba'
p1900
I1603
sS'moon'
p1901
I1960
sS'toad'
p1902
I1962
sS'stakeboard'
p1903
I1964
sS'stopped'
p1904
I2455
sS'squirt'
p1905
I1966
sS'leftt'
p1906
I1790
sS'knife'
p1907
I1968
sS'escelator'
p1908
I1970
sS'power'
p1909
I1972
sS'inspect'
p1910
I3264
sS'caricature'
p1911
I2405
sS'drums'
p1912
I1975
sS'terrified'
p1913
I1976
sS'throw'
p1914
I1977
sS'lock'
p1915
I3376
sS'on'
p1916
I1978
sS'stone'
p1917
I1979
sS'ok'
p1918
I1980
sS'ace'
p1919
I1981
sS'eyebral'
p1920
I1453
sS'roar'
p1921
I1983
sS'smear'
p1922
I1984
sS'menacingly'
p1923
I1985
sS'fishtail'
p1924
I1986
sS'drag'
p1925
I3138
sS'mixer'
p1926
I1988
sS'holdig'
p1927
I1300
sS'chop'
p1928
I1990
sS"'d"
p1929
I1992
sS'wolf'
p1930
I1993
sS'stand'
p1931
I1994
sS'neighbor'
p1932
I1995
sS'act'
p1933
I1996
sS'ow'
p1934
I1997
sS'ou'
p1935
I3429
sS'or'
p1936
I1999
sS'road'
p1937
I2000
sS'heavy'
p1938
I2458
sS'quietly'
p1939
I2002
sS'lands'
p1940
I2003
sS'dagger'
p1941
I3459
sS'marshmallow'
p1942
I2005
sS'candy'
p1943
I4012
sS'suspicous'
p1944
I3469
sS'image'
p1945
I2007
sS'lifted'
p1946
I2009
sS'earring'
p1947
I2010
sS'everyone'
p1948
I2326
sS'determine'
p1949
I2012
sS'strip'
p1950
I2013
sS'foreward'
p1951
I2014
sS'pivot'
p1952
I2015
sS'joyfull'
p1953
I2016
sS'upstairs'
p1954
I2460
sS'stare'
p1955
I2018
sS'fill'
p1956
I3915
sS'log'
p1957
I2019
sS'prepare'
p1958
I2020
sS'area'
p1959
I2021
sS'removing'
p1960
I2022
sS'trapeze'
p1961
I2023
sS'there'
p1962
I2024
sS'hey'
p1963
I2025
sS'start'
p1964
I2026
sS'cats'
p1965
I3601
sS'low'
p1966
I2028
sS'stars'
p1967
I74
sS'bubble'
p1968
I2030
sS'treat'
p1969
I3849
sS'bottm'
p1970
I2034
sS'complete'
p1971
I2035
sS'kittens'
p1972
I2036
sS'pitcher'
p1973
I2037
sS'skydive'
p1974
I3146
sS'tripod'
p1975
I2039
sS'cabinet'
p1976
I2040
sS'hiccup'
p1977
I2041
sS'recoil'
p1978
I2042
sS'gore'
p1979
I2043
sS'cycle'
p1980
I2044
sS'walkway'
p1981
I2045
sS'e'
I3148
sS'skins'
p1982
I2047
sS'with'
p1983
I2048
sS'faster'
p1984
I2049
sS'card'
p1985
I1450
sS'pull'
p1986
I2051
sS'rush'
p1987
I2052
sS'romantic'
p1988
I2053
sS'shirtless'
p1989
I3162
sS'doobie'
p1990
I2055
sS'potato'
p1991
I2056
sS'bucket'
p1992
I2057
sS'tiptoe'
p1993
I2058
sS'flirt'
p1994
I2059
sS'strawberry'
p1995
I1858
sS'dirty'
p1996
I2061
sS'suitcase'
p1997
I2062
sS'grasp'
p1998
I2063
sS'grass'
p1999
I2064
sS'torso'
p2000
I2065
sS'trips'
p2001
I2066
sS'darker'
p2002
I2067
sS'wrestlers'
p2003
I2068
sS'toilet'
p2004
I2069
sS'filp'
p2005
I2070
sS'ad'
p2006
I2071
sS'fright'
p2007
I2072
sS'taste'
p2008
I2073
sS'frighten'
p2009
I2074
sS'deer'
p2010
I2076
sS'shoulders'
p2011
I3855
sS'deep'
p2012
I2078
sS'an'
p2013
I2079
sS'tshirt'
p2014
I1998
sS'bacolny'
p2015
I2081
sS'pensively'
p2016
I398
sS'sholder'
p2017
I2083
sS'ciggarette'
p2018
I2084
sS'girlfriend'
p2019
I2085
sS'ax'
p2020
I2086
sS'moves'
p2021
I3765
sS'joyful'
p2022
I2836
sS'film'
p2023
I2088
sS'cream'
p2024
I2089
sS'again'
p2025
I2090
sS'pensive'
p2026
I2092
sS'rubbed'
p2027
I2093
sS'drivers'
p2028
I2094
sS'backstroke'
p2029
I2095
sS'storage'
p2030
I2096
sS'graduate'
p2031
I579
sS'rubber'
p2032
I2099
sS'roses'
p2033
I1372
sS'trample'
p2034
I2101
sS'astronaut'
p2035
I2102
sS'thorugh'
p2036
I2103
sS'you'
p2037
I2104
sS'trash'
p2038
I2105
sS'fours'
p2039
I2106
sS'outfield'
p2040
I2107
sS'polar'
p2041
I2108
sS'briefly'
p2042
I2109
sS'carosel'
p2043
I2110
sS'jacker'
p2044
I2111
sS'separate'
p2045
I2112
sS'students'
p2046
I2113
sS'symbol'
p2047
I2114
sS'time'
p2048
I2115
sS'drift'
p2049
I2116
sS'slant'
p2050
I2117
sS'podium'
p2051
I2118
sS'bullets'
p2052
I2119
sS'peak'
p2053
I2120
sS'suited'
p2054
I2121
sS'fasten'
p2055
I2122
sS'tackle'
p2056
I2123
sS'squint'
p2057
I1595
sS'stocks'
p2058
I2124
sS'sneeze'
p2059
I2125
sS'pool'
p2060
I2126
sS'alcohol'
p2061
I2478
sS'building'
p2062
I2128
sS'meander'
p2063
I2129
sS'remote'
p2064
I2130
sS'unload'
p2065
I2131
sS'unclench'
p2066
I3161
sS'groom'
p2067
I2133
sS'mask'
p2068
I2134
sS'smooch'
p2069
I2135
sS'stroller'
p2070
I220
sS'mimic'
p2071
I2138
sS'sewer'
p2072
I1196
sS'u'
I2140
sS'smirk'
p2073
I2141
sS'oral'
p2074
I2142
sS'original'
p2075
I2143
sS'represent'
p2076
I2144
sS'all'
p2077
I2145
sS'diss'
p2078
I2146
sS'lace'
p2079
I14
sS'cough'
p2080
I1447
sS'peacock'
p2081
I2149
sS'wreath'
p2082
I2150
sS'dollar'
p2083
I2151
sS'kicks'
p2084
I3867
sS'thoughtful'
p2085
I2152
sS'disc'
p2086
I50
sS'vechicle'
p2087
I59
sS'talks'
p2088
I2156
sS'follow'
p2089
I2157
sS'expressions'
p2090
I2158
sS'children'
p2091
I2159
sS'carpet'
p2092
I2160
sS'strangers'
p2093
I2161
sS'apartment'
p2094
I2162
sS'gymnast'
p2095
I109
sS'dribble'
p2096
I1775
sS'to'
p2097
I2165
sS'tail'
p2098
I2166
sS'chewing'
p2099
I2167
sS'grab'
p2100
I3757
sS'dressing'
p2101
I2169
sS'smile'
p2102
I2170
sS'sound'
p2103
I2171
sS'woman'
p2104
I2173
sS'song'
p2105
I203
sS'far'
p2106
I205
sS'activated'
p2107
I2176
sS'fat'
p2108
I2178
sS'baton'
p2109
I2179
sS'fan'
p2110
I2181
sS'clench'
p2111
I259
sS'stacked'
p2112
I2183
sS'bubbles'
p2113
I2184
sS'robed'
p2114
I270
sS'surprised'
p2115
I2947
sS'segway'
p2116
I280
sS'delivery'
p2117
I4115
sS'steve'
p2118
I3171
sS'cable'
p2119
I2188
sS'pasture'
p2120
I3116
sS'laying'
p2121
I326
sS'large'
p2122
I335
sS'dinosaur'
p2123
I2191
sS'sand'
p2124
I2192
sS'celling'
p2125
I344
sS'tong'
p2126
I3969
sS'salute'
p2127
I2491
sS'small'
p2128
I2195
sS'bench'
p2129
I3977
sS'sank'
p2130
I2196
sS'snowmobile'
p2131
I2197
sS'teh'
p2132
I377
sS'cookies'
p2133
I2199
sS'smiing'
p2134
I2200
sS'ten'
p2135
I950
sS'cigare'
p2136
I1409
sS'teenage'
p2137
I2922
sS'skiing'
p2138
I1467
sS'grabs'
p2139
I2204
sS'tee'
p2140
I2205
sS'cash'
p2141
I2206
sS'past'
p2142
I2207
sS'burger'
p2143
I2208
sS'pass'
p2144
I2209
sS'link'
p2145
I3079
sS'further'
p2146
I2211
sS'hamper'
p2147
I2212
sS'ribbon'
p2148
I469
sS"n't"
p2149
I3379
sS'dial'
p2150
I481
sS'dumbbell'
p2151
I3176
sS'darkness'
p2152
I2217
sS'clock'
p2153
I2218
sS'sun'
p2154
I499
sS'section'
p2155
I2220
sS'crust'
p2156
I511
sS'lurch'
p2157
I2222
sS'<EOS>'
p2158
I2223
sS'unattached'
p2159
I520
sS'crush'
p2160
I523
sS'abs'
p2161
I2226
sS'unicycle'
p2162
I2227
sS'nurse'
p2163
I2228
sS'entwine'
p2164
I2229
sS'racing'
p2165
I2230
sS'guns'
p2166
I563
sS'movement'
p2167
I2232
sS'violently'
p2168
I2855
sS'tattoos'
p2169
I2233
sS'full'
p2170
I2234
sS'ruffle'
p2171
I2235
sS'doorframe'
p2172
I2236
sS'bowtie'
p2173
I2237
sS'ma'
p2174
I2238
sS'empower'
p2175
I2239
sS'loose'
p2176
I2240
sS'ballet'
p2177
I2241
sS'surfer'
p2178
I2242
sS'themself'
p2179
I2243
sS'trunk'
p2180
I2244
sS'gorrilla'
p2181
I2245
sS'ignore'
p2182
I2971
sS'directions'
p2183
I2246
sS'search'
p2184
I2247
sS'colored'
p2185
I2248
sS'ahead'
p2186
I2249
sS'stretching'
p2187
I2250
sS'whine'
p2188
I2251
sS'performation'
p2189
I174
sS'soldier'
p2190
I2253
sS'amount'
p2191
I2254
sS'laughing'
p2192
I2164
sS'horrified'
p2193
I1188
sS'gear'
p2194
I3610
sS'pick'
p2195
I2257
sS'action'
p2196
I2258
sS'cookie'
p2197
I2505
sS'narrow'
p2198
I2259
sS'struggle'
p2199
I2262
sS'trainer'
p2200
I786
sS'via'
p2201
I2264
sS'shuffle'
p2202
I798
sS'suddenly'
p2203
I2266
sS'clapping'
p2204
I2267
sS'ling'
p2205
I2269
sS'texts'
p2206
I2270
sS'burners'
p2207
I3696
sS'indoors'
p2208
I2271
sS'zagging'
p2209
I2272
sS'pulls'
p2210
I2273
sS'skateborad'
p2211
I2274
sS'eye'
p2212
I2275
sS'takes'
p2213
I2276
sS'injure'
p2214
I2277
sS'donuts'
p2215
I2278
sS'katanas'
p2216
I2279
sS'faint'
p2217
I2280
sS'texting'
p2218
I2281
sS'rightmost'
p2219
I1490
sS'irritate'
p2220
I2283
sS'toawrd'
p2221
I2284
sS'eys'
p2222
I2285
sS'splash'
p2223
I2286
sS'call'
p2224
I2415
sS'restraints'
p2225
I967
sS'megaphone'
p2226
I974
sS'wiper'
p2227
I2289
sS'rubbing'
p2228
I2290
sS'more'
p2229
I2291
sS'teen'
p2230
I2292
sS'flat'
p2231
I2293
sS'hamster'
p2232
I2256
sS'door'
p2233
I2295
sS'flap'
p2234
I2296
sS'testes'
p2235
I2297
sS'stucked'
p2236
I2298
sS'company'
p2237
I2299
sS'straighthead'
p2238
I2300
sS'chucks'
p2239
I2301
sS'chopstick'
p2240
I1864
sS'flag'
p2241
I1051
sS'stick'
p2242
I2304
sS'forwared'
p2243
I1005
sS'offload'
p2244
I2306
sS'panically'
p2245
I2307
sS'couples'
p2246
I2308
sS'none'
p2247
I2309
sS'gravel'
p2248
I3195
sS'squish'
p2249
I2310
sS'middle'
p2250
I1801
sS'sleeveless'
p2251
I2312
sS'besides'
p2252
I2313
sS'remain'
p2253
I2314
sS'nine'
p2254
I2315
sS'wrestler'
p2255
I2316
sS'v'
I903
sS'abandon'
p2256
I1259
sS'embrace'
p2257
I2319
sS'grope'
p2258
I2320
sS'male'
p2259
I2321
sS'lighter'
p2260
I2322
sS'scramble'
p2261
I2323
sS'amrs'
p2262
I1193
sS'ballerina'
p2263
I2885
sS'shark'
p2264
I2325
sS'pony'
p2265
I1202
sS'pushes'
p2266
I2328
sS'scan'
p2267
I836
sS'share'
p2268
I2331
sS'accept'
p2269
I2332
sS'collision'
p2270
I1246
sS'fiercely'
p2271
I2335
sS'sense'
p2272
I2336
sS'pond'
p2273
I1279
sS'pong'
p2274
I1281
sS'scar'
p2275
I2339
sS'dress'
p2276
I2340
sS'earpiece'
p2277
I1294
sS'firmly'
p2278
I2342
sS'extinguisher'
p2279
I2343
sS'downword'
p2280
I1314
sS'goal'
p2281
I2345
sS'awkward'
p2282
I2346
sS'disagree'
p2283
I3921
sS'comfort'
p2284
I2348
sS'milk'
p2285
I2224
sS'cling'
p2286
I2351
sS'extinguished'
p2287
I1376
sS'clink'
p2288
I2353
sS'stir'
p2289
I2354
sS'goat'
p2290
I2355
sS'creature'
p2291
I2356
sS'plant'
p2292
I1402
sS'sandwich'
p2293
I2358
sS'okay'
p2294
I2359
sS'plans'
p2295
I2347
sS'fountan'
p2296
I2361
sS'suplex'
p2297
I1769
sS'whirl'
p2298
I3901
sS'dow'
p2299
I2363
sS'sneak'
p2300
I2364
sS'holders'
p2301
I2365
sS'tries'
p2302
I1459
sS'plane'
p2303
I1463
sS'coming'
p2304
I1476
sS'gasp'
p2305
I2370
sS'horizontal'
p2306
I2371
sS'bloom'
p2307
I2372
sS'flutter'
p2308
I1497
sS'a'
I2374
sS'refuse'
p2309
I2375
sS'short'
p2310
I2376
sS'cigarete'
p2311
I2377
sS'coat'
p2312
I2378
sS'paw'
p2313
I1817
sS'pucker'
p2314
I2380
sS'eats'
p2315
I2381
sS'volleyball'
p2316
I2382
sS'dragon'
p2317
I2383
sS'coal'
p2318
I2384
sS'shore'
p2319
I2385
sS'tentacles'
p2320
I2387
sS'chopsticks'
p2321
I2388
sS'shade'
p2322
I2389
sS'pleasure'
p2323
I2390
sS'egg'
p2324
I2391
sS'helplessly'
p2325
I654
sS'patio'
p2326
I2393
sS'infant'
p2327
I2394
sS'eyebrowns'
p2328
I1627
sS'handlebars'
p2329
I2396
sS'pant'
p2330
I2397
sS'slouch'
p2331
I2398
sS'cross'
p2332
I3908
sS'held'
p2333
I2400
sS'paper'
p2334
I2401
sS'dough'
p2335
I231
sS'same'
p2336
I2403
sS'brim'
p2337
I2404
sS'hell'
p2338
I2407
sS'smiling'
p2339
I2408
sS'kibble'
p2340
I1681
sS'its'
p2341
I2410
sS'member'
p2342
I3909
sS'style'
p2343
I2411
sS'20'
p2344
I1709
sS'21'
p2345
I2413
sS'glide'
p2346
I2414
sS'overhead'
p2347
I403
sS'pray'
p2348
I2416
sS'inward'
p2349
I2417
sS'greatly'
p2350
I3096
sS'lipped'
p2351
I2419
sS'mattress'
p2352
I2420
sS'astonish'
p2353
I2421
sS'van'
p2354
I4093
sS'pad'
p2355
I2422
sS'soccer'
p2356
I2423
sS'sauce'
p2357
I2424
sS'ally'
p2358
I2425
sS'dolls'
p2359
I2426
sS'toothy'
p2360
I2427
sS'puck'
p2361
I381
sS'somebody'
p2362
I1806
sS'orcas'
p2363
I2430
sS'food'
p2364
I2431
sS'sucker'
p2365
I1824
sS'males'
p2366
I2433
sS'cupcake'
p2367
I2435
sS'walls'
p2368
I1857
sS'vomit'
p2369
I2437
sS'shred'
p2370
I3567
sS'foot'
p2371
I2438
sS'ninja'
p2372
I2439
sS'detach'
p2373
I2440
sS'bigger'
p2374
I2441
sS'sucked'
p2375
I2442
sS'expresion'
p2376
I2443
sS'feet'
p2377
I2528
sS'huddle'
p2378
I2445
sS'fulls'
p2379
I2446
sS'shop'
p2380
I1604
sS'hook'
p2381
I267
sS"fives'"
p2382
I1931
sS'fully'
p2383
I2449
sS'puzzle'
p2384
I2450
sS'tricycle'
p2385
I2451
sS'evade'
p2386
I2452
sS'swimsuit'
p2387
I1042
sS'someone'
p2388
I2428
sS'goofy'
p2389
I2454
sS'slicked'
p2390
I1965
sS'stroked'
p2391
I3605
sS'die'
p2392
I2456
sS'toungue'
p2393
I3455
sS'trailer'
p2394
I2457
sS'clamp'
p2395
I2001
sS'dumbbells'
p2396
I2011
sS'pirates'
p2397
I1498
sS'eclipse'
p2398
I2261
sS'eyelash'
p2399
I2462
sS'house'
p2400
I2463
sS'fish'
p2401
I2464
sS'hard'
p2402
I2465
sS'fixture'
p2403
I2466
sS'togher'
p2404
I2467
sS'wacky'
p2405
I2468
sS'gun'
p2406
I1123
sS'finish'
p2407
I1833
sS'fist'
p2408
I2471
sS'scissors'
p2409
I2472
sS'balance'
p2410
I2473
sS'terrify'
p2411
I2474
sS'anxious'
p2412
I3221
sS'flower'
p2413
I2476
sS'unfroze'
p2414
I2477
sS'lipstick'
p2415
I2127
sS'guitart'
p2416
I2479
sS'miss'
p2417
I2536
sS'surrounded'
p2418
I2481
sS'projected'
p2419
I2482
sS'dugout'
p2420
I2483
sS'fountain'
p2421
I2485
sS'hill'
p2422
I2486
sS'print'
p2423
I2487
sS'downfield'
p2424
I2488
sS'hangers'
p2425
I2489
sS'mittens'
p2426
I2490
sS'highway'
p2427
I2194
sS'subway'
p2428
I2492
sS'dunk'
p2429
I2493
sS'foreground'
p2430
I2494
sS'nervously'
p2431
I2495
sS'foam'
p2432
I2031
sS'teal'
p2433
I2497
sS'dirt'
p2434
I2498
sS'rude'
p2435
I2499
sS'munch'
p2436
I2500
sS'pug'
p2437
I2501
sS'story'
p2438
I2539
sS'pleasant'
p2439
I2503
sS'capture'
p2440
I2362
sS'base'
p2441
I2255
sS'clinch'
p2442
I2203
sS'wepon'
p2443
I2506
sS'shotgun'
p2444
I3939
sS'ask'
p2445
I614
sS'randall'
p2446
I2508
sS'weed'
p2447
I2509
sS'pup'
p2448
I2510
sS'sidewalk'
p2449
I2511
sS'thrown'
p2450
I2512
sS'bumped'
p2451
I2513
sS'faucet'
p2452
I2514
sS'launch'
p2453
I2515
sS'but'
p2454
I4114
sS'rack'
p2455
I3226
sS'snowbank'
p2456
I2516
sS'bumper'
p2457
I2517
sS'blush'
p2458
I2518
sS'throws'
p2459
I2519
sS'feed'
p2460
I2520
sS'aligator'
p2461
I2521
sS'statue'
p2462
I2523
sS'forwards'
p2463
I2524
sS'feel'
p2464
I2525
sS'guesture'
p2465
I2526
sS'number'
p2466
I2527
sS'slipper'
p2467
I2444
sS'fromt'
p2468
I2529
sS'done'
p2469
I2530
sS'shoal'
p2470
I2532
sS'blank'
p2471
I2533
sS'bland'
p2472
I2534
sS'mist'
p2473
I2535
sS'glitter'
p2474
I2480
sS'whale'
p2475
I3930
sS'razor'
p2476
I2538
sS'horse'
p2477
I2502
sS'heads'
p2478
I2541
sS'jet'
p2479
I2542
sS'introduction'
p2480
I2543
sS'twenty'
p2481
I2544
sS'interact'
p2482
I2545
sS'swipe'
p2483
I2546
sS'180'
p2484
I2547
sS'airborne'
p2485
I2548
sS'collar'
p2486
I3932
sS'pinned'
p2487
I2550
sS'paint'
p2488
I2551
sS'leash'
p2489
I2008
sS'station'
p2490
I2553
sS'storm'
p2491
I2555
sS'compartment'
p2492
I2557
sS'syrup'
p2493
I2558
sS'banana'
p2494
I2559
sS'store'
p2495
I2560
sS'catapult'
p2496
I1428
sS'insterment'
p2497
I2562
sS'muscles'
p2498
I2563
sS'relationship'
p2499
I891
sS'behind'
p2500
I2566
sS'fastly'
p2501
I2567
sS'jamie'
p2502
I2568
sS'park'
p2503
I2569
sS'interviewed'
p2504
I2570
sS'part'
p2505
I2571
sS'fidget'
p2506
I2572
sS'rifle'
p2507
I2573
sS'necklace'
p2508
I3669
sS'burrito'
p2509
I2574
sS'racetrack'
p2510
I2575
sS'stairs'
p2511
I2576
sS'inflate'
p2512
I2577
sS'surfboard'
p2513
I1973
sS'leotard'
p2514
I2579
sS'king'
p2515
I2580
sS'kind'
p2516
I2581
sS'double'
p2517
I2582
sS'anticipate'
p2518
I2583
sS'towars'
p2519
I2584
sS'grey'
p2520
I2585
sS'bride'
p2521
I2586
sS'stall'
p2522
I2587
sS'stalk'
p2523
I2588
sS'outdoors'
p2524
I2589
sS'dispenser'
p2525
I2590
sS'toward'
p2526
I2591
sS'playing'
p2527
I2392
sS'swerve'
p2528
I2594
sS'bassinet'
p2529
I2595
sS'attackers'
p2530
I3188
sS'interviewee'
p2531
I2597
sS'chipmunk'
p2532
I2598
sS'suspicious'
p2533
I2599
sS'beforehand'
p2534
I2600
sS'juice'
p2535
I2602
sS'caress'
p2536
I2603
sS'graffiti'
p2537
I2604
sS'twiddle'
p2538
I2605
sS'yowl'
p2539
I2606
sS'blissful'
p2540
I2607
sS'backseat'
p2541
I2608
sS'lid'
p2542
I2609
sS'mountain'
p2543
I986
sS'lif'
p2544
I2611
sS'speaking'
p2545
I2612
sS'rower'
p2546
I2613
sS'para'
p2547
I2565
sS'dancing'
p2548
I2615
sS'spaghetti'
p2549
I3242
sS'self'
p2550
I2617
sS'cave'
p2551
I2618
sS'pinkie'
p2552
I2619
sS'couch'
p2553
I2620
sS'lit'
p2554
I2621
sS'centered'
p2555
I2622
sS'lifts'
p2556
I2623
sS'lip'
p2557
I2624
sS'build'
p2558
I2625
sS'exploded'
p2559
I2626
sS'brace'
p2560
I2627
sS'gym'
p2561
I2628
sS'transparent'
p2562
I3491
sS'play'
p2563
I2629
sS'towards'
p2564
I2630
sS'electric'
p2565
I2631
sS'needle'
p2566
I2632
sS'blackboard'
p2567
I1893
sS'eggs'
p2568
I2634
sS'swiftly'
p2569
I2635
sS'reach'
p2570
I2636
sS'chart'
p2571
I2637
sS'unused'
p2572
I2004
sS'yawn'
p2573
I2640
sS'guitair'
p2574
I2641
sS'poke'
p2575
I3245
sS'guutar'
p2576
I2643
sS'plan'
p2577
I2644
sS'nothing'
p2578
I2645
sS'laughter'
p2579
I3283
sS'refrigerator'
p2580
I2646
sS'appear'
p2581
I2647
sS'muscle'
p2582
I3952
sS'bug'
p2583
I4124
sS'mobile'
p2584
I2648
sS'clear'
p2585
I2649
sS'cover'
p2586
I2650
sS'clean'
p2587
I2652
sS'erractically'
p2588
I3250
sS'barrel'
p2589
I2653
sS'bandanna'
p2590
I3953
sS'blend'
p2591
I2654
sS'dragged'
p2592
I2655
sS'hips'
p2593
I2656
sS'shirtsleeves'
p2594
I2657
sS'golf'
p2595
I2658
sS'asphalt'
p2596
I42
sS'inhale'
p2597
I3837
sS'flicker'
p2598
I2660
sS'taller'
p2599
I3955
sS'hugging'
p2600
I2661
sS'barbell'
p2601
I2662
sS'crayon'
p2602
I2663
sS'cds'
p2603
I2664
sS'carefully'
p2604
I2665
sS'unwrapped'
p2605
I1406
sS'fine'
p2606
I1330
sS'find'
p2607
I2668
sS'blender'
p2608
I2669
sS'impact'
p2609
I2670
sS'giant'
p2610
I2671
sS'interviewer'
p2611
I2672
sS'downhill'
p2612
I3047
sS'upwards'
p2613
I4189
sS'nervous'
p2614
I2324
sS'scooter'
p2615
I2674
sS'firewood'
p2616
I1690
sS'unhappy'
p2617
I2676
sS'penalty'
p2618
I2678
sS'cassette'
p2619
I2679
sS'pretty'
p2620
I501
sS'money'
p2621
I2681
sS'circle'
p2622
I2682
sS'oscillate'
p2623
I2578
sS'juke'
p2624
I2683
sS'hip'
p2625
I2684
sS'his'
p2626
I2685
sS'triangle'
p2627
I459
sS'dandelion'
p2628
I2687
sS'express'
p2629
I2688
sS'pregnant'
p2630
I2689
sS'strut'
p2631
I2690
sS'whistle'
p2632
I2691
sS'ferret'
p2633
I2692
sS'batter'
p2634
I2693
sS'rest'
p2635
I1874
sS'strum'
p2636
I2695
sS'during'
p2637
I2696
sS'silk'
p2638
I2697
sS'sill'
p2639
I2698
sS'him'
p2640
I2699
sS'silo'
p2641
I2700
sS'enemy'
p2642
I2702
sS'fluff'
p2643
I2703
sS'gloved'
p2644
I1234
sS'alchohol'
p2645
I2705
sS'cry'
p2646
I2706
sS'remove'
p2647
I2707
sS'perfume'
p2648
I2708
sS'spiked'
p2649
I2709
sS'frantically'
p2650
I2710
sS'hype'
p2651
I2711
sS'overfull'
p2652
I2712
sS'plank'
p2653
I2713
sS'river'
p2654
I2714
sS'cringe'
p2655
I2715
sS'knickers'
p2656
I2716
sS'enclosure'
p2657
I2098
sS'tramoline'
p2658
I2717
sS'set'
p2659
I2718
sS'stump'
p2660
I2719
sS'dump'
p2661
I2720
sS'throwing'
p2662
I1818
sS'nibble'
p2663
I2723
sS'licquorish'
p2664
I2725
sS'lion'
p2665
I2726
sS'arc'
p2666
I1183
sS'bare'
p2667
I2728
sS'are'
p2668
I2729
sS'sea'
p2669
I2730
sS'close'
p2670
I2731
sS'bark'
p2671
I2732
sS'arm'
p2672
I2733
sS'barn'
p2673
I2734
sS'shower'
p2674
I2033
sS'practice'
p2675
I2736
sS'blury'
p2676
I2737
sS'movie'
p2677
I2738
sS'leg'
p2678
I3266
sS'please'
p2679
I2740
sS'solomon'
p2680
I2741
sS'slapped'
p2681
I2742
sS'fans'
p2682
I2743
sS'determined'
p2683
I2744
sS'flame'
p2684
I2745
sS'champagne'
p2685
I2747
sS'kneel'
p2686
I2748
sS'meal'
p2687
I1989
sS'solo'
p2688
I2749
sS'brush'
p2689
I4087
sS'unconscious'
p2690
I2750
sS'attention'
p2691
I2751
sS'subject'
p2692
I3658
sS'pullups'
p2693
I2752
sS'outfit'
p2694
I2753
sS'spray'
p2695
I2754
sS'foothill'
p2696
I2755
sS'litter'
p2697
I2984
sS'invisible'
p2698
I2756
sS'hubcap'
p2699
I2757
sS'disintegrates'
p2700
I2758
sS'giggle'
p2701
I3334
sS'zipper'
p2702
I2759
sS'abruptly'
p2703
I2760
sS'both'
p2704
I2761
sS'c'
I2762
sS'cliometrics'
p2705
I2763
sS'last'
p2706
I2764
sS'reverse'
p2707
I2765
sS'hesitant'
p2708
I2766
sS'restaurant'
p2709
I2767
sS'bowie'
p2710
I2006
sS'waterfall'
p2711
I2769
sS'pace'
p2712
I2838
sS'objects'
p2713
I2770
sS'context'
p2714
I2771
sS'rose'
p2715
I2772
sS'lash'
p2716
I2773
sS'vault'
p2717
I2774
sS'protector'
p2718
I2775
sS'afar'
p2719
I2418
sS'blaze'
p2720
I3191
sS'lanyard'
p2721
I2777
sS'patty'
p2722
I2484
sS'load'
p2723
I2779
sS'sloth'
p2724
I2780
sS'chari'
p2725
I3030
sS'distress'
p2726
I2782
sS'mini'
p2727
I2561
sS'forklift'
p2728
I2785
sS'sweep'
p2729
I2786
sS'pamphlet'
p2730
I2787
sS'dancer'
p2731
I2788
sS'weasel'
p2732
I2789
sS'sing'
p2733
I3277
sS'scooch'
p2734
I2791
sS'mumble'
p2735
I2792
sS'belt'
p2736
I2793
sS'suspenders'
p2737
I2794
sS'raise'
p2738
I2795
sS'instrument'
p2739
I1892
sS'help'
p2740
I2395
sS'create'
p2741
I2798
sS'acceptance'
p2742
I2799
sS'appall'
p2743
I2800
sS'flip'
p2744
I4133
sS'secret'
p2745
I2802
sS'fangs'
p2746
I2803
sS'shick'
p2747
I2804
sS'peppers'
p2748
I2805
sS'brick'
p2749
I2806
sS'disintigrates'
p2750
I2807
sS'empty'
p2751
I2808
sS'snowny'
p2752
I2810
sS'resting'
p2753
I4147
sS'alongside'
p2754
I2812
sS'flight'
p2755
I2813
sS'champion'
p2756
I1262
sS'buck'
p2757
I2816
sS'fire'
p2758
I2817
sS'tougue'
p2759
I2904
sS'gas'
p2760
I2819
sS'grap'
p2761
I3749
sS'else'
p2762
I2820
sS'silencer'
p2763
I2821
sS'racer'
p2764
I2822
sS'understand'
p2765
I856
sS'gag'
p2766
I2824
sS'firework'
p2767
I2825
sS'furrow'
p2768
I2826
sS'plants'
p2769
I2827
sS'fur'
p2770
I2828
sS'shove'
p2771
I1184
sS'since'
p2772
I2830
sS'talking'
p2773
I2831
sS'solid'
p2774
I2832
sS'belly'
p2775
I2833
sS'straight'
p2776
I2834
sS'bill'
p2777
I2835
sS'pill'
p2778
I1969
sS'cluster'
p2779
I2311
sS'warehouse'
p2780
I2406
sS'while'
p2781
I2839
sS'barricade'
p2782
I2840
sS'pressed'
p2783
I85
sS'fense'
p2784
I2842
sS'leaning'
p2785
I2843
sS'sunglass'
p2786
I1578
sS'kissing'
p2787
I2845
sS'towarding'
p2788
I2552
sS'moustache'
p2789
I2847
sS'guide'
p2790
I2848
sS'loop'
p2791
I2849
sS'infront'
p2792
I452
sS'forelegs'
p2793
I2851
sS'smacked'
p2794
I122
sS'blond'
p2795
I2853
sS'moth'
p2796
I2854
sS'manically'
p2797
I2531
sS'rip'
p2798
I2856
sS'rooftop'
p2799
I2857
sS'decoration'
p2800
I2858
sS'ecstasy'
p2801
I2859
sS'rim'
p2802
I176
sS'triple'
p2803
I2861
sS'beautifully'
p2804
I2862
sS'ready'
p2805
I195
sS'vanish'
p2806
I2864
sS'rib'
p2807
I1060
sS'ifts'
p2808
I2866
sS'around'
p2809
I2724
sS'grans'
p2810
I2868
sS'funny'
p2811
I2869
sS'shirt'
p2812
I234
sS'choking'
p2813
I2871
sS'slab'
p2814
I2873
sS'swords'
p2815
I3960
sS'pation'
p2816
I3795
sS'shorter'
p2817
I2874
sS'wipers'
p2818
I2875
sS'widely'
p2819
I290
sS'anamatedly'
p2820
I3289
sS'eybrow'
p2821
I2878
sS'higher'
p2822
I2880
sS'hallway'
p2823
I2881
sS'waiste'
p2824
I2882
sS'tower'
p2825
I2883
sS'snail'
p2826
I337
sS'dime'
p2827
I378
sS'teeter'
p2828
I2886
sS'waterslide'
p2829
I2887
sS'cigar'
p2830
I2888
sS'leopard'
p2831
I2889
sS'nipples'
p2832
I2890
sS'cement'
p2833
I2891
sS'alert'
p2834
I2892
sS'moment'
p2835
I2893
sS'moving'
p2836
I2894
sS'stripe'
p2837
I2895
sS'pingo'
p2838
I2896
sS'bob'
p2839
I1192
sS'built'
p2840
I2614
sS'flirty'
p2841
I2899
sS'canned'
p2842
I2900
sS'beanie'
p2843
I418
sS'motionless'
p2844
I2902
sS'older'
p2845
I2903
sS'cheek'
p2846
I2905
sS'chickens'
p2847
I2906
sS'center'
p2848
I3936
sS'vaulter'
p2849
I2907
sS'picks'
p2850
I455
sS'person'
p2851
I462
sS'cheer'
p2852
I2910
sS'edge'
p2853
I2911
sS'withdraw'
p2854
I2912
sS'grip'
p2855
I2913
sS'magnifier'
p2856
I2914
sS'prize'
p2857
I2915
sS'appalled'
p2858
I2916
sS'howl'
p2859
I2917
sS'hotdog'
p2860
I2918
sS'chord'
p2861
I515
sS'leaking'
p2862
I2920
sS'stiars'
p2863
I2921
sS'curiousity'
p2864
I3912
sS'puffer'
p2865
I2075
sS'backflip'
p2866
I2923
sS'shape'
p2867
I2924
sS'inactive'
p2868
I566
sS'tennis'
p2869
I3335
sS'rop'
p2870
I2926
sS'amp'
p2871
I2927
sS'vigilant'
p2872
I2928
sS'apponent'
p2873
I2929
sS'prince'
p2874
I2930
sS'snak'
p2875
I622
sS'signal'
p2876
I2968
sS'tablet'
p2877
I2933
sS'observant'
p2878
I639
sS'disappointed'
p2879
I2935
sS'workers'
p2880
I2936
sS'alternate'
p2881
I2937
sS'kissed'
p2882
I4157
sS'shouting'
p2883
I2938
sS'cue'
p2884
I2939
sS'caesar'
p2885
I2940
sS'grin'
p2886
I2941
sS'crying'
p2887
I2942
sS'snap'
p2888
I2944
sS'acrobatics'
p2889
I2945
sS'excited'
p2890
I2946
sS'finder'
p2891
I713
sS'chairman'
p2892
I2948
sS'bin'
p2893
I2949
sS'squawk'
p2894
I2951
sS'cellphone'
p2895
I3678
sS'march'
p2896
I2952
sS'big'
p2897
I2953
sS'couple'
p2898
I2954
sS'enthusiastically'
p2899
I2955
sS'tweaks'
p2900
I2956
sS'game'
p2901
I2957
sS'snore'
p2902
I2958
sS'bit'
p2903
I2959
sS'awaken'
p2904
I2960
sS'wings'
p2905
I2961
sS'like'
p2906
I4008
sS'knock'
p2907
I822
sS'matchstick'
p2908
I923
sS'peforrms'
p2909
I2964
sS'stylist'
p2910
I2965
sS'semi'
p2911
I2966
sS'shaped'
p2912
I2967
sS'pillar'
p2913
I850
sS'inquisitively'
p2914
I2969
sS'glove'
p2915
I2970
sS'separately'
p2916
I1677
sS'continue'
p2917
I2972
sS'nipple'
p2918
I2973
sS'wrecked'
p2919
I2974
sS'spins'
p2920
I908
sS'coner'
p2921
I2976
sS'spring'
p2922
I2978
sS'some'
p2923
I2979
sS'back'
p2924
I961
sS'bounce'
p2925
I2981
sS'streamers'
p2926
I1928
sS'marker'
p2927
I1882
sS'lips'
p2928
I979
sS'ornament'
p2929
I1687
sS'palm'
p2930
I2985
sS'accelerate'
p2931
I2986
sS'sight'
p2932
I2987
sS'mirror'
p2933
I2988
sS'candle'
p2934
I999
sS'sprint'
p2935
I2990
sS'lightning'
p2936
I1929
sS'pale'
p2937
I2991
sS'saucer'
p2938
I2992
sS'sternly'
p2939
I2993
sS'scale'
p2940
I2994
sS'jewelry'
p2941
I2995
sS'pet'
p2942
I2996
sS'unbrella'
p2943
I2997
sS'firecracker'
p2944
I2998
sS'prop'
p2945
I3001
sS'pudding'
p2946
I3568
sS'cupped'
p2947
I1089
sS'dorsum'
p2948
I1094
sS'cloud'
p2949
I3314
sS'slash'
p2950
I3006
sS'burts'
p2951
I2633
sS'pee'
p2952
I3008
sS'lime'
p2953
I3315
sS'temple'
p2954
I3011
sS'nose'
p2955
I1933
sS'eyeglass'
p2956
I1242
sS'cameraman'
p2957
I3014
sS'run'
p2958
I1150
sS'ufo'
p2959
I3016
sS'rub'
p2960
I3017
sS'salmon'
p2961
I3018
sS'jumps'
p2962
I3019
sS'lose'
p2963
I4016
sS'rug'
p2964
I1168
sS'stem'
p2965
I3021
sS'zombie'
p2966
I3022
sS'aloft'
p2967
I1185
sS'step'
p2968
I3024
sS'santa'
p2969
I3025
sS'become'
p2970
I4017
sS'from'
p2971
I3320
sS'costumed'
p2972
I3027
sS'intense'
p2973
I1222
sS'unwraped'
p2974
I3029
sS'react'
p2975
I2639
sS'zip'
p2976
I3322
sS'cigarette'
p2977
I3032
sS'whiteboard'
p2978
I3033
sS'favor'
p2979
I3034
sS'boxer'
p2980
I777
sS'womens'
p2981
I3035
sS'shiny'
p2982
I3036
sS'silence'
p2983
I2593
sS'misplaced'
p2984
I3038
sS'real'
p2985
I3039
sS'mcirophone'
p2986
I1612
sS'into'
p2987
I3041
sS'good'
p2988
I3042
sS'rollerblade'
p2989
I3043
sS'handle'
p2990
I3730
sS'because'
p2991
I4021
sS'frog'
p2992
I3323
sS'perl'
p2993
I3045
sS'curtsy'
p2994
I3046
sS'rolls'
p2995
I1423
sS'smells'
p2996
I3048
sS'backbend'
p2997
I3049
sS'impressed'
p2998
I3050
sS'scrunch'
p2999
I3051
sS'arcade'
p3000
I3052
sS'sneaky'
p3001
I419
sS'exposed'
p3002
I3054
sS'sock'
p3003
I920
sS'long'
p3004
I1480
sS'occupy'
p3005
I3057
sS'hammoc'
p3006
I3058
sS'oyster'
p3007
I3059
sS'waistline'
p3008
I1512
sS'forward'
p3009
I3061
sS'undistracted'
p3010
I3062
sS'napoleon'
p3011
I3870
sS'bored'
p3012
I3063
sS'nieghbor'
p3013
I1526
sS'opponent'
p3014
I3066
sS'conveyor'
p3015
I4067
sS'creepy'
p3016
I3067
sS'himself'
p3017
I3068
sS'perplex'
p3018
I3069
sS'bore'
p3019
I863
sS'poster'
p3020
I3072
sS'relaxed'
p3021
I3073
sS'slump'
p3022
I3074
sS'girlfriends'
p3023
I3075
sS'thief'
p3024
I3076
sS'boys'
p3025
I1587
sS'properly'
p3026
I3078
sS'crank'
p3027
I644
sS'repeatedly'
p3028
I3080
sS'branch'
p3029
I3990
sS'russian'
p3030
I261
sS'embarassed'
p3031
I3083
sS'crane'
p3032
I1619
sS'reel'
p3033
I3085
sS'penguin'
p3034
I3086
sS'info'
p3035
I3087
sS'jumprope'
p3036
I3088
sS'collared'
p3037
I3089
sS'skull'
p3038
I3090
sS'reload'
p3039
I3091
sS'playfully'
p3040
I3092
sS'frier'
p3041
I2977
sS'histerically'
p3042
I3094
sS'planet'
p3043
I3095
sS'cartwheel'
p3044
I3098
sS'planes'
p3045
I3099
sS'continuously'
p3046
I3100
sS'holler'
p3047
I4031
sS'even'
p3048
I2448
sS'catfood'
p3049
I3103
sS'bell'
p3050
I3973
sS'repulse'
p3051
I3104
sS'flop'
p3052
I3105
sS'freak'
p3053
I3106
sS'adults'
p3054
I3107
sS'dismay'
p3055
I3108
sS'stripped'
p3056
I1746
sS'trench'
p3057
I3110
sS'package'
p3058
I3111
sS'single'
p3059
I3112
sS'curb'
p3060
I3113
sS'pantedly'
p3061
I3114
sS'manequin'
p3062
I1792
sS'canteen'
p3063
I1949
sS'bicep'
p3064
I3117
sS'gallop'
p3065
I2329
sS'curl'
p3066
I3118
sS'cotton'
p3067
I1755
sS'lemon'
p3068
I3120
sS'fixing'
p3069
I3121
sS'peace'
p3070
I3122
sS'ledges'
p3071
I2349
sS'leftward'
p3072
I3123
sS'scrape'
p3073
I3124
sS'accross'
p3074
I3125
sS'functionality'
p3075
I3126
sS'hoopla'
p3076
I3127
sS'retract'
p3077
I2180
sS'tarp'
p3078
I3129
sS'pandas'
p3079
I3130
sS'mock'
p3080
I3131
sS'brushing'
p3081
I3132
sS'explaining'
p3082
I1991
sS'draw'
p3083
I3134
sS'cigerette'
p3084
I3135
sS'smiley'
p3085
I1971
sS'replace'
p3086
I831
sS'insect'
p3087
I1987
sS'squirm'
p3088
I3139
sS'cymbal'
p3089
I3140
sS'leaf'
p3090
I4035
sS'hair'
p3091
I4029
sS'wrinkle'
p3092
I3143
sS'desert'
p3093
I3144
sS'structure'
p3094
I3145
sS'lane'
p3095
I2038
sS'land'
p3096
I3147
sS'fighter'
p3097
I2046
sS'disbelief'
p3098
I4036
sS'expressionless'
p3099
I3150
sS'ledge'
p3100
I4170
sS'wards'
p3101
I3151
sS'amused'
p3102
I2087
sS'cooked'
p3103
I3153
sS'itself'
p3104
I3154
sS'beverage'
p3105
I3155
sS'weights'
p3106
I3156
sS'lying'
p3107
I3157
sS'crinkle'
p3108
I3158
sS'beers'
p3109
I3159
sS'anguish'
p3110
I2865
sS'bricks'
p3111
I3160
sS'buffalo'
p3112
I2132
sS'having'
p3113
I554
sS'rinse'
p3114
I3163
sS'once'
p3115
I3164
sS'chalk'
p3116
I3880
sS'wrestle'
p3117
I3165
sS'rabbit'
p3118
I3342
sS'edd'
p3119
I3167
sS'pigtail'
p3120
I2870
sS'grunt'
p3121
I1517
sS'nuns'
p3122
I3169
sS'soften'
p3123
I3170
sS'alien'
p3124
I2187
sS'groceries'
p3125
I3172
sS'gang'
p3126
I618
sS'go'
p3127
I3174
sS'bait'
p3128
I3175
sS'golfer'
p3129
I2216
sS'magnifying'
p3130
I3177
sS'compact'
p3131
I3178
sS'handgrip'
p3132
I3180
sS'gold'
p3133
I2659
sS'peanut'
p3134
I3182
sS'concerned'
p3135
I3183
sS'avoid'
p3136
I4039
sS'pongs'
p3137
I3184
sS'young'
p3138
I3185
sS'chess'
p3139
I3186
sS'mower'
p3140
I3187
sS'lower'
p3141
I2901
sS'backflips'
p3142
I3189
sS'does'
p3143
I4043
sS'outwards'
p3144
I2210
sS'stable'
p3145
I3192
sS'weather'
p3146
I4086
sS'exit'
p3147
I3193
sS'dislike'
p3148
I3194
sS'through'
p3149
I2402
sS'fences'
p3150
I3196
sS'dramatically'
p3151
I3197
sS'ingredient'
p3152
I820
sS'electrocute'
p3153
I3199
sS'unzip'
p3154
I3200
sS'painterly'
p3155
I3201
sS'outside'
p3156
I1691
sS'kitty'
p3157
I3203
sS'wave'
p3158
I3204
sS'spool'
p3159
I3205
sS'spoon'
p3160
I3206
sS'wavy'
p3161
I2386
sS'putting'
p3162
I3208
sS'trough'
p3163
I3209
sS'washcloth'
p3164
I3210
sS'ski'
p3165
I3984
sS'distraught'
p3166
I3211
sS'drinking'
p3167
I3212
sS'wipe'
p3168
I3213
sS'posture'
p3169
I3214
sS'entire'
p3170
I3215
sS'magic'
p3171
I3216
sS'thrust'
p3172
I3553
sS'situate'
p3173
I1967
sS'button'
p3174
I3218
sS'shock'
p3175
I3219
sS'michael'
p3176
I3220
sS'try'
p3177
I2475
sS'pout'
p3178
I3222
sS'race'
p3179
I3223
sS'smug'
p3180
I3224
sS'husband'
p3181
I3225
sS'athlete'
p3182
I3064
sS'smaller'
p3183
I3227
sS'nonactive'
p3184
I3228
sS'crow'
p3185
I3229
sS'wrestling'
p3186
I3230
sS'pepper'
p3187
I4049
sS'chomp'
p3188
I3232
sS'filled'
p3189
I3233
sS'jump'
p3190
I3234
sS'fold'
p3191
I3235
sS'jums'
p3192
I3236
sS'video'
p3193
I3237
sS'booth'
p3194
I2592
sS'picked'
p3195
I2596
sS'reunion'
p3196
I718
sS'protrude'
p3197
I3241
sS'liner'
p3198
I3639
sS'odd'
p3199
I2616
sS'click'
p3200
I3243
sS'index'
p3201
I3244
sS'cupcakes'
p3202
I2642
sS'plays'
p3203
I3246
sS'business'
p3204
I3247
sS'wallet'
p3205
I2333
sS'giving'
p3206
I3249
sS'togther'
p3207
I2667
sS'mough'
p3208
I3251
sS'paddle'
p3209
I3252
sS'cell'
p3210
I3253
sS'playe'
p3211
I3254
sS'eating'
p3212
I3256
sS'anther'
p3213
I3257
sS't'
I3258
sS'gasoline'
p3214
I3259
sS'bird'
p3215
I3260
sS'exercise'
p3216
I3261
sS'unruly'
p3217
I3262
sS'body'
p3218
I3263
sS'stance'
p3219
I3265
sS'exchange'
p3220
I2739
sS'got'
p3221
I3267
sS'kangaroo'
p3222
I3268
sS'pushing'
p3223
I3269
sS'punch'
p3224
I3270
sS'dressed'
p3225
I4163
sS'explore'
p3226
I3271
sS'busy'
p3227
I1371
sS'let'
p3228
I3273
sS'sink'
p3229
I3274
sS'pancake'
p3230
I3275
sS'making'
p3231
I1258
sS'sexy'
p3232
I2790
sS'perforation'
p3233
I3278
sS'extreme'
p3234
I3279
sS'cyclist'
p3235
I2811
sS'receive'
p3236
I3282
sS'across'
p3237
I1695
sS'until'
p3238
I3284
sS'larger'
p3239
I3285
sS'shades'
p3240
I3286
sS'leaving'
p3241
I1426
sS'tires'
p3242
I3288
sS'products'
p3243
I2877
sS'oar'
p3244
I4169
sS'armpit'
p3245
I3290
sS'popcorn'
p3246
I3291
sS'climb'
p3247
I3292
sS'loses'
p3248
I4013
sS'makes'
p3249
I2950
sS'ruin'
p3250
I3294
sS'cigatrette'
p3251
I3295
sS'wig'
p3252
I3296
sS'tunnel'
p3253
I3353
sS'showing'
p3254
I4007
sS'shovel'
p3255
I3297
sS'apple'
p3256
I3299
sS'nearest'
p3257
I3300
sS'win'
p3258
I3301
sS'pinkies'
p3259
I3302
sS'ceasar'
p3260
I3303
sS'apprehensive'
p3261
I3304
sS'private'
p3262
I3305
sS'rignt'
p3263
I3306
sS'motor'
p3264
I3307
sS'duck'
p3265
I3308
sS'beckon'
p3266
I3309
sS'apply'
p3267
I3310
sS'clockwise'
p3268
I3311
sS'singing'
p3269
I3312
sS'staple'
p3270
I3313
sS'manipulate'
p3271
I3005
sS'ape'
p3272
I3009
sS'standing'
p3273
I3316
sS'camers'
p3274
I3317
sS'use'
p3275
I3318
sS'beachball'
p3276
I3319
sS'lens'
p3277
I3137
sS'stream'
p3278
I3321
sS'snoop'
p3279
I3031
sS'mid'
p3280
I3654
sS'congratulated'
p3281
I3044
sS'next'
p3282
I3324
sS'eleven'
p3283
I582
sS'camera'
p3284
I3326
sS'vehicle'
p3285
I3327
sS'themselves'
p3286
I3328
sS'historically'
p3287
I3329
sS'disgustingly'
p3288
I3330
sS'cheeks'
p3289
I3331
sS'pencil'
p3290
I3332
sS'condom'
p3291
I2680
sS'porch'
p3292
I2931
sS'elder'
p3293
I3141
sS'musician'
p3294
I3337
sS'missile'
p3295
I3338
sS'trail'
p3296
I3339
sS'carrying'
p3297
I2722
sS'bullhorn'
p3298
I3341
sS'sharply'
p3299
I3166
sS'baby'
p3300
I3343
sS'central'
p3301
I3344
sS'chef'
p3302
I3345
sS'mircrophone'
p3303
I3346
sS'incline'
p3304
I1974
sS'annoy'
p3305
I3348
sS'balls'
p3306
I3207
sS'animals'
p3307
I3350
sS'cheetah'
p3308
I3352
sS'this'
p3309
I916
sS'challenge'
p3310
I1408
sS'tease'
p3311
I1982
sS'pour'
p3312
I3356
sS'donut'
p3313
I2268
sS'lumber'
p3314
I3255
sS'thin'
p3315
I3359
sS'drill'
p3316
I3360
sS'of'
p3317
I3361
sS'tonque'
p3318
I3362
sS'lazer'
p3319
I2177
sS'closing'
p3320
I3364
sS'drops'
p3321
I3281
sS'pelican'
p3322
I3366
sS'coffin'
p3323
I714
sS'bend'
p3324
I3383
sS'point'
p3325
I2783
sS'porcupine'
p3326
I3370
sS'wharf'
p3327
I3371
sS'tap'
p3328
I3372
sS'bent'
p3329
I3373
sS'patron'
p3330
I3374
sS'plate'
p3331
I3375
sS'wed'
p3332
I2768
sS'balloons'
p3333
I3826
sS'pieces'
p3334
I3377
sS'high'
p3335
I3378
sS'slit'
p3336
I3380
sS'carrot'
p3337
I3358
sS'pulling'
p3338
I3382
sS'something'
p3339
I3368
sS'slip'
p3340
I3384
sS'pelvis'
p3341
I3386
sS'hit'
p3342
I2686
sS'tan'
p3343
I3387
sS'paws'
p3344
I3293
sS'skirt'
p3345
I3389
sS'contempt'
p3346
I966
sS'hangar'
p3347
I3391
sS'lamb'
p3348
I3392
sS'hesitate'
p3349
I3393
sS'sip'
p3350
I3394
sS'varied'
p3351
I3395
sS'sit'
p3352
I3396
sS'trumpet'
p3353
I3397
sS'holds'
p3354
I3398
sS'lamp'
p3355
I3399
sS'carrier'
p3356
I4070
sS'pair'
p3357
I3401
sS'syrups'
p3358
I3390
sS'animal'
p3359
I3403
sS'suspend'
p3360
I1474
sS'instead'
p3361
I3404
sS'bandana'
p3362
I3405
sS'toddler'
p3363
I3406
sS'occlude'
p3364
I3407
sS'onlookers'
p3365
I2554
sS'profile'
p3366
I3409
sS'tension'
p3367
I3410
sS'buildings'
p3368
I3411
sS'furiously'
p3369
I3412
sS'blocks'
p3370
I3413
sS'frontflip'
p3371
I3414
sS'farm'
p3372
I3415
sS'watch'
p3373
I3416
sS'await'
p3374
I3417
sS'vaccum'
p3375
I3418
sS'tied'
p3376
I3419
sS'dominos'
p3377
I3420
sS'fart'
p3378
I3421
sS'towle'
p3379
I3422
sS'notebook'
p3380
I3423
sS'wrist'
p3381
I3424
sS'intercept'
p3382
I3272
sS'hose'
p3383
I4050
sS'discard'
p3384
I3426
sS'ceil'
p3385
I3427
sS'someplace'
p3386
I3428
sS'cuddling'
p3387
I3431
sS'somethin'
p3388
I3432
sS'famous'
p3389
I3433
sS'bind'
p3390
I3434
sS'counter'
p3391
I3435
sS'platypus'
p3392
I3436
sS'batan'
p3393
I1654
sS'giggly'
p3394
I3438
sS'scoop'
p3395
I3439
sS'scoot'
p3396
I3440
sS'allow'
p3397
I3441
sS'tounge'
p3398
I3442
sS'smiles'
p3399
I3133
sS"its'"
p3400
I3444
sS'quotations'
p3401
I3445
sS'mustache'
p3402
I3446
sS'breast'
p3403
I2694
sS'ignite'
p3404
I3447
sS'closely'
p3405
I3010
sS'owl'
p3406
I4077
sS'somegthing'
p3407
I3449
sS'peck'
p3408
I3450
sS'move'
p3409
I3451
sS'ladies'
p3410
I3453
sS'suprised'
p3411
I2469
sS'symbols'
p3412
I3454
sS'whilst'
p3413
I2368
sS'hugged'
p3414
I3456
sS'costume'
p3415
I37
sS'fifa'
p3416
I3458
sS'shapes'
p3417
I3460
sS'smahes'
p3418
I3461
sS'bunch'
p3419
I3462
sS'lounge'
p3420
I2651
sS'hil'
p3421
I3464
sS'broom'
p3422
I3465
sS'rubin'
p3423
I3466
sS'degrees'
p3424
I3467
sS'choose'
p3425
I3468
sS'shy'
p3426
I3750
sS'orange'
p3427
I3470
sS'covered'
p3428
I325
sS'bye'
p3429
I3472
sS'seductively'
p3430
I3966
sS'forest'
p3431
I3402
sS'dad'
p3432
I3474
sS'flex'
p3433
I3475
sS'crash'
p3434
I3476
sS'fourth'
p3435
I3473
sS'flour'
p3436
I3478
sS'skates'
p3437
I1422
sS'swordfish'
p3438
I3480
sS'bat'
p3439
I3481
sS'oranges'
p3440
I3482
sS'tile'
p3441
I1297
sS'billiard'
p3442
I2540
sS'brand'
p3443
I4111
sS'snake'
p3444
I3485
sS'kiss'
p3445
I3486
sS'emerald'
p3446
I1870
sS'front'
p3447
I3488
sS'acidic'
p3448
I3489
sS'flee'
p3449
I3490
sS'realize'
p3450
I1026
sS'emotion'
p3451
I1472
sS'flail'
p3452
I3492
sS'bewilderment'
p3453
I3493
sS'easel'
p3454
I3097
sS'blindfolded'
p3455
I3495
sS'sleeve'
p3456
I3496
sS'gorund'
p3457
I3497
sS'boots'
p3458
I3498
sS'blowing'
p3459
I3499
sS'slide'
p3460
I3500
sS'sidewards'
p3461
I3501
sS'fiddle'
p3462
I3502
sS'trap'
p3463
I3503
sS'crossing'
p3464
I3504
sS'unnattached'
p3465
I3505
sS'typewriter'
p3466
I3408
sS'shaking'
p3467
I3507
sS'ballons'
p3468
I3688
sS'uncaring'
p3469
I438
sS'skate'
p3470
I1077
sS'lie'
p3471
I2610
sS'ankles'
p3472
I3509
sS'activate'
p3473
I3510
sS'illuminate'
p3474
I3511
sS'expectantly'
p3475
I615
sS'globe'
p3476
I3514
sS'dissappeared'
p3477
I3515
sS'multicolored'
p3478
I3516
sS'seesaw'
p3479
I3517
sS'books'
p3480
I3518
sS'thirteen'
p3481
I3519
sS'measure'
p3482
I1889
sS'cupboard'
p3483
I3521
sS'sweatshirt'
p3484
I3522
sS'robot'
p3485
I3437
sS'goalkeeper'
p3486
I3523
sS'snorkeling'
p3487
I3524
sS'out'
p3488
I3525
sS'fondle'
p3489
I3526
sS'octopus'
p3490
I3527
sS'staircase'
p3491
I3528
sS'kids'
p3492
I2564
sS'armor'
p3493
I2330
sS'defend'
p3494
I3532
sS'stucks'
p3495
I3533
sS'rev'
p3496
I3534
sS'jeep'
p3497
I3357
sS'dish'
p3498
I4149
sS'paraglide'
p3499
I3644
sS'mate'
p3500
I3536
sS'playground'
p3501
I3537
sS'performs'
p3502
I3538
sS'gloves'
p3503
I3539
sS'stun'
p3504
I3540
sS'red'
p3505
I3541
sS'catched'
p3506
I3542
sS'racquet'
p3507
I3543
sS'shut'
p3508
I3544
sS'umbrella'
p3509
I3545
sS'standalone'
p3510
I3546
sS'undo'
p3511
I3547
sS'fourteen'
p3512
I3548
sS'control'
p3513
I3369
sS'york'
p3514
I3550
sS'dumpster'
p3515
I3551
sS'x'
I3552
sS'sneer'
p3516
I3055
sS'embarrass'
p3517
I3554
sS'stab'
p3518
I4183
sS'princess'
p3519
I3555
sS'scary'
p3520
I3556
sS'backwards'
p3521
I154
sS'allies'
p3522
I159
sS'her'
p3523
I3559
sS'lone'
p3524
I2214
sS'put'
p3525
I2507
sS'headbutt'
p3526
I3562
sS'yarn'
p3527
I3563
sS'times'
p3528
I198
sS'counterpart'
p3529
I3565
sS'stride'
p3530
I3566
sS'produce'
p3531
I3023
sS'hawaiian'
p3532
I3070
sS'biting'
p3533
I3569
sS'scard'
p3534
I3570
sS'scare'
p3535
I3571
sS'waitress'
p3536
I243
sS'prance'
p3537
I3425
sS'distracted'
p3538
I3573
sS'zig'
p3539
I3325
sS'blown'
p3540
I3574
sS'bouquet'
p3541
I3575
sS'confuse'
p3542
I3576
sS'scene'
p3543
I3577
sS'reaches'
p3544
I299
sS'bonnet'
p3545
I306
sS'puppet'
p3546
I317
sS'spots'
p3547
I4099
sS'lagging'
p3548
I3582
sS'owner'
p3549
I3583
sS'reached'
p3550
I3584
sS'blows'
p3551
I3585
sS'suck'
p3552
I3586
sS'braces'
p3553
I3587
sS'prank'
p3554
I3588
sS'killer'
p3555
I3589
sS'sadly'
p3556
I3590
sS'monkey'
p3557
I3591
sS'revealed'
p3558
I3592
sS'examine'
p3559
I3879
sS'blowdryer'
p3560
I3593
sS'chased'
p3561
I3594
sS'system'
p3562
I3595
sS'wrapper'
p3563
I3596
sS'grow'
p3564
I3597
sS'inmate'
p3565
I3598
sS'attach'
p3566
I397
sS'attack'
p3567
I3600
sS'lids'
p3568
I3602
sS'decorations'
p3569
I3603
sS'ankle'
p3570
I3604
sS'chases'
p3571
I428
sS'final'
p3572
I433
sS'painful'
p3573
I3607
sS'beard'
p3574
I3608
sS'dumbells'
p3575
I454
sS'lot'
p3576
I2029
sS'shorts'
p3577
I3611
sS'shelf'
p3578
I3612
sS'nobody'
p3579
I3613
sS'motorcycle'
p3580
I3457
sS'chemicals'
p3581
I3614
sS'manhole'
p3582
I3615
sS'UNK'
p3583
I1
sS'herself'
p3584
I3617
sS'completes'
p3585
I3618
sS'bulb'
p3586
I3868
sS'waist'
p3587
I3619
sS'ipad'
p3588
I3620
sS'siderail'
p3589
I3621
sS'photograph'
p3590
I3622
sS'unamused'
p3591
I3623
sS'uninterested'
p3592
I3624
sS'behinds'
p3593
I3625
sS'boring'
p3594
I3626
sS'see'
p3595
I3298
sS'bed'
p3596
I3628
sS'bee'
p3597
I3629
sS'arouse'
p3598
I2727
sS'light'
p3599
I3631
sS'sculpture'
p3600
I3632
sS'wheelchair'
p3601
I3633
sS'steer'
p3602
I3634
sS'clip'
p3603
I3635
sS'tensioned'
p3604
I673
sS'splatter'
p3605
I3637
sS'half'
p3606
I3961
sS'teenagers'
p3607
I690
sS'comfortable'
p3608
I698
sS'blit'
p3609
I3641
sS'have'
p3610
I3642
sS'unfreezed'
p3611
I3643
sS'throat'
p3612
I1963
sS'granules'
p3613
I3645
sS'skeletons'
p3614
I3646
sS'screw'
p3615
I3647
sS'microphone'
p3616
I3648
sS'afraid'
p3617
I3649
sS'sprinkler'
p3618
I3650
sS'soak'
p3619
I3651
sS'babel'
p3620
I3652
sS'mic'
p3621
I3653
sS'pushups'
p3622
I793
sS'outward'
p3623
I3655
sS'mix'
p3624
I3656
sS'which'
p3625
I3657
sS'seductive'
p3626
I835
sS'visor'
p3627
I839
sS'soap'
p3628
I3660
sS'soar'
p3629
I3661
sS'bemused'
p3630
I3662
sS'clash'
p3631
I3663
sS'knees'
p3632
I2735
sS'passionately'
p3633
I3665
sS'firecrackers'
p3634
I3666
sS'who'
p3635
I3667
sS'pineapple'
p3636
I3136
sS'eyeliner'
p3637
I3668
sS'furious'
p3638
I3443
sS'eight'
p3639
I3670
sS'awestrucked'
p3640
I1581
sS'kitkat'
p3641
I3672
sS'device'
p3642
I3673
sS'awe'
p3643
I3674
sS'medal'
p3644
I3675
sS'class'
p3645
I3676
sS'clasp'
p3646
I3677
sS'shyness'
p3647
I2701
sS'eject'
p3648
I3679
sS'brushed'
p3649
I2673
sS'urn'
p3650
I3680
sS'poolstick'
p3651
I1523
sS'upset'
p3652
I3682
sS'curiously'
p3653
I3683
sS'napkin'
p3654
I1588
sS'looked'
p3655
I1006
sS'ignited'
p3656
I3686
sS'near'
p3657
I3687
sS'brunette'
p3658
I2459
sS'ligther'
p3659
I2666
sS'cutlery'
p3660
I3690
sS'pictures'
p3661
I3691
sS'wounded'
p3662
I3692
sS'skinny'
p3663
I3693
sS'normally'
p3664
I3694
sS'text'
p3665
I3695
sS'stove'
p3666
I1100
sS'wince'
p3667
I4121
sS'crate'
p3668
I3698
sS'animatedly'
p3669
I3700
sS'brother'
p3670
I3701
sS'upright'
p3671
I3082
sS'bring'
p3672
I3702
sS'biker'
p3673
I3703
sS'parked'
p3674
I1138
sS'bedroom'
p3675
I3705
sS'ottoman'
p3676
I3706
sS'fear'
p3677
I1151
sS'pleased'
p3678
I3708
sS'thigh'
p3679
I3448
sS'nearer'
p3680
I3710
sS'pause'
p3681
I774
sS'grabbed'
p3682
I3712
sS'tire'
p3683
I3713
sS'holder'
p3684
I3714
sS'downstairs'
p3685
I3071
sS'jar'
p3686
I1201
sS'brighten'
p3687
I1190
sS'should'
p3688
I1211
sS'buttons'
p3689
I3719
sS'finget'
p3690
I3720
sS'tape'
p3691
I1226
sS'shinny'
p3692
I3722
sS'unconcerned'
p3693
I3351
sS'riding'
p3694
I3724
sS'piano'
p3695
I1243
sS'spice'
p3696
I2091
sS'flinch'
p3697
I3727
sS'dodge'
p3698
I3728
sS'cube'
p3699
I3729
sS'topple'
p3700
I1280
sS'beat'
p3701
I3731
sS'coworker'
p3702
I3732
sS'stripes'
p3703
I3000
sS'bear'
p3704
I3734
sS'cotten'
p3705
I3735
sS'beam'
p3706
I1326
sS'payphone'
p3707
I1329
sS'swirl'
p3708
I3128
sS'words'
p3709
I3739
sS'gournd'
p3710
I1344
sS'striped'
p3711
I3741
sS'handgun'
p3712
I1360
sS'styrofoam'
p3713
I3743
sS'sweat'
p3714
I4071
sS'netural'
p3715
I3745
sS'gray'
p3716
I1763
sS'tobacco'
p3717
I3747
sS'twice'
p3718
I3529
sS'shopping'
p3719
I3102
sS'h'
I143
sS'fixes'
p3720
I3751
sS'eyebrow'
p3721
I3752
sS'calling'
p3722
I1411
sS'stuff'
p3723
I3754
sS'she'
p3724
I3755
sS'contain'
p3725
I3756
sS'camel'
p3726
I3959
sS'rein'
p3727
I1500
sS'handstand'
p3728
I3758
sS'view'
p3729
I1468
sS'toe'
p3730
I3760
sS'frame'
p3731
I1505
sS'pitch'
p3732
I3763
sS'freeze'
p3733
I3764
sS'computer'
p3734
I3766
sS'powder'
p3735
I3767
sS'skateboarding'
p3736
I3768
sS'racket'
p3737
I3769
sS'closer'
p3738
I3770
sS'wire'
p3739
I3771
sS'acrss'
p3740
I3772
sS'closet'
p3741
I3773
sS'record'
p3742
I4136
sS'posing'
p3743
I3775
sS'participant'
p3744
I3776
sS'below'
p3745
I3777
sS'canons'
p3746
I3778
sS'pinata'
p3747
I3779
sS'target'
p3748
I3659
sS'blaster'
p3749
I613
sS'dryer'
p3750
I3996
sS'hammock'
p3751
I3781
sS'identification'
p3752
I1637
sS'correctly'
p3753
I1643
sS'piston'
p3754
I3784
sS'juggle'
p3755
I3785
sS'pistol'
p3756
I3786
sS'frustrated'
p3757
I3787
sS'shateboard'
p3758
I3788
sS'tent'
p3759
I1663
sS'saddle'
p3760
I4064
sS'bleed'
p3761
I3790
sS'explosive'
p3762
I3791
sS'opening'
p3763
I1686
sS'keg'
p3764
I3793
sS'joy'
p3765
I3794
sS'buckets'
p3766
I3385
sS'facepalm'
p3767
I3796
sS'dartboard'
p3768
I3797
sS'sheathe'
p3769
I2778
sS'joe'
p3770
I3799
sS'key'
p3771
I3800
sS'jog'
p3772
I3801
sS'police'
p3773
I1355
sS'frontwards'
p3774
I3803
sS'mailbox'
p3775
I3804
sS'backstage'
p3776
I3805
sS'seagull'
p3777
I3806
sS'redheaded'
p3778
I2097
sS'hits'
p3779
I1766
sS'defense'
p3780
I3630
sS'intensed'
p3781
I3733
sS'wiggle'
p3782
I3736
sS'joke'
p3783
I3812
sS'taking'
p3784
I1789
sS'stops'
p3785
I3173
sS'aircraft'
p3786
I3815
sS'drug'
p3787
I3816
sS'unbutton'
p3788
I3817
sS'doorway'
p3789
I3818
sS'monitor'
p3790
I3807
sS'tousle'
p3791
I3820
sS'volley'
p3792
I1848
sS'swallow'
p3793
I3822
sS'safely'
p3794
I3823
sS'byt'
p3795
I3824
sS'jersey'
p3796
I3825
sS'aquarium'
p3797
I3179
sS'ch'
p3798
I3827
sS'medallion'
p3799
I3828
sS'wall'
p3800
I3829
sS'ca'
p3801
I3830
sS'speaker'
p3802
I2522
sS'cd'
p3803
I1918
sS'vend'
p3804
I3833
sS'javelin'
p3805
I3834
sS'laugh'
p3806
I3835
sS'table'
p3807
I3836
sS'flowered'
p3808
I3813
sS'mailman'
p3809
I3838
sS'motorbike'
p3810
I3839
sS'twerks'
p3811
I3840
sS'swimmer'
p3812
I3841
sS'disintegrate'
p3813
I3842
sS'storefront'
p3814
I3843
sS'polka'
p3815
I3844
sS'hers'
p3816
I3845
sS'snort'
p3817
I3012
sS'exhausted'
p3818
I3846
sS'poured'
p3819
I2027
sS'slowly'
p3820
I3848
sS'chalkboard'
p3821
I2032
sS'tv'
p3822
I2163
sS'curtain'
p3823
I3851
sS'feather'
p3824
I3852
sS'waste'
p3825
I3853
sS'fence'
p3826
I2201
sS'antlers'
p3827
I3854
sS'field'
p3828
I3971
sS'mike'
p3829
I2077
sS'catcher'
p3830
I2704
sS'perplexed'
p3831
I3856
sS'tricep'
p3832
I3857
sS'painted'
p3833
I3858
sS'moved'
p3834
I3859
sS'face'
p3835
I3684
sS'airplanes'
p3836
I3860
sS'pie'
p3837
I4150
sS'redhead'
p3838
I3862
sS'controller'
p3839
I3863
sS'tense'
p3840
I3864
sS'mannequin'
p3841
I3865
sS'towrad'
p3842
I3471
sS'stunned'
p3843
I3181
sS'smoking'
p3844
I2155
sS'overturn'
p3845
I3869
sS'present'
p3846
I2168
sS'rightward'
p3847
I3871
sS'multi'
p3848
I3872
sS'plaid'
p3849
I3873
sS'laser'
p3850
I3874
sS'license'
p3851
I3875
sS'intimidate'
p3852
I3876
sS'plain'
p3853
I3877
sS'runway'
p3854
I3878
sS'as'
p3855
I2080
sS'shoudler'
p3856
I2260
sS'animated'
p3857
I3881
sS'scatter'
p3858
I3367
sS'wild'
p3859
I3882
sS'bathtub'
p3860
I3883
sS'plead'
p3861
I3240
sS'groin'
p3862
I3884
sS'at'
p3863
I2082
sS'snack'
p3864
I3885
sS'layer'
p3865
I3886
sS'eyeball'
p3866
I3887
sS'tickled'
p3867
I3888
sS'almost'
p3868
I3889
sS'squid'
p3869
I1229
sS'surprisingly'
p3870
I3891
sS'surface'
p3871
I3892
sS'rooster'
p3872
I3893
sS'vr'
p3873
I3895
sS'vs'
p3874
I3896
sS'audiences'
p3875
I3897
sS'eleictric'
p3876
I3640
sS'sits'
p3877
I3899
sS'seaway'
p3878
I3900
sS'tattoo'
p3879
I811
sS'downstage'
p3880
I3902
sS'denial'
p3881
I2367
sS'tonuge'
p3882
I3904
sS'sleve'
p3883
I3905
sS'balloon'
p3884
I3906
sS'popsicle'
p3885
I3907
sS'upside'
p3886
I1564
sS'gesture'
p3887
I3689
sS'condescendingly'
p3888
I3910
sS'strange'
p3889
I3911
sS'tumbling'
p3890
I2399
sS'inch'
p3891
I3913
sS'party'
p3892
I3914
sS'gets'
p3893
I1043
sS'tapped'
p3894
I3916
sS'tighten'
p3895
I3917
sS'ball'
p3896
I2470
sS'earphones'
p3897
I3919
sS'bald'
p3898
I349
sS'upon'
p3899
I749
sS'diploma'
p3900
I3922
sS'coffe'
p3901
I3923
sS'beast'
p3902
I826
sS'tangled'
p3903
I3925
sS'sarcastic'
p3904
I3926
sS'student'
p3905
I3927
sS'dust'
p3906
I3928
sS'pedal'
p3907
I3929
sS'overalls'
p3908
I2537
sS'broccoli'
p3909
I2549
sS'expand'
p3910
I3933
sS'keep'
p3911
I3564
sS'gutter'
p3912
I3934
sS'pooped'
p3913
I2154
sS'reflection'
p3914
I273
sS'dock'
p3915
I3483
sS'i'
I3938
sS'whole'
p3916
I2776
sS'weapon'
p3917
I3940
sS'well'
p3918
I3941
sS'fighting'
p3919
I3942
sS'scissor'
p3920
I3943
sS'rink'
p3921
I3944
sS'snorkel'
p3922
I3484
sS'command'
p3923
I3946
sS'spectator'
p3924
I3947
sS'twirl'
p3925
I3948
sS'hazard'
p3926
I3949
sS'position'
p3927
I3950
sS'limp'
p3928
I3951
sS'con'
p3929
I649
sS'knight'
p3930
I3217
sS'meet'
p3931
I3363
sS'rocker'
p3932
I3954
sS'sarcasticly'
p3933
I3452
sS'coaster'
p3934
I3956
sS'bananas'
p3935
I3957
sS'rocket'
p3936
I3958
sS'less'
p3937
I222
sS'hybrid'
p3938
I2999
sS'hands'
p3939
I3487
sS'distant'
p3940
I3962
sS'smash'
p3941
I3746
sS'seats'
p3942
I3963
sS'smilling'
p3943
I3831
sS'tough'
p3944
I3964
sS'baggage'
p3945
I3965
sS'lettuce'
p3946
I456
sS'flashlight'
p3947
I3967
sS'web'
p3948
I3968
sS'spear'
p3949
I3798
sS'spinned'
p3950
I3970
sS'tight'
p3951
I2100
sS'cage'
p3952
I3972
sS'onward'
p3953
I2781
sS'sky'
p3954
I3974
sS'lake'
p3955
I3975
sS'canister'
p3956
I3976
sS'day'
p3957
I2879
sS'add'
p3958
I3978
sS'other'
p3959
I3979
sS'combine'
p3960
I3980
sS'circular'
p3961
I3981
sS'wet'
p3962
I2818
sS'smart'
p3963
I3983
sS'footballer'
p3964
I400
sS'match'
p3965
I2841
sS'cheecks'
p3966
I3986
sS'knob'
p3967
I3987
sS'wastebasket'
p3968
I3988
sS'soccerball'
p3969
I3989
sS'sick'
p3970
I3081
sS'magnify'
p3971
I3991
sS'unhampered'
p3972
I3992
sS'taunt'
p3973
I3993
sS'solider'
p3974
I2677
sS'five'
p3975
I3997
sS'facial'
p3976
I3998
sS'desk'
p3977
I3999
sS'press'
p3978
I4000
sS'doughnut'
p3979
I4001
sS'intersection'
p3980
I4002
sS'pier'
p3981
I4003
sS'woeful'
p3982
I4004
sS'insert'
p3983
I4005
sS'puppy'
p3984
I4006
sS'meighbors'
p3985
I3699
sS'prescription'
p3986
I3937
sS'lost'
p3987
I4009
sS'chairs'
p3988
I4010
sS'sofa'
p3989
I4011
sS'clown'
p3990
I1449
sS'filpped'
p3991
I3531
sS'garage'
p3992
I4014
sS'stagger'
p3993
I4015
sS'clutch'
p3994
I1389
sS'chick'
p3995
I3026
sS'page'
p3996
I4018
sS'heel'
p3997
I4019
sS'trucked'
p3998
I4020
sS'dazed'
p3999
I2317
sS'glare'
p4000
I4022
sS'scepter'
p4001
I4023
sS'ballon'
p4002
I4024
sS'tumble'
p4003
I4025
sS'imaginary'
p4004
I4026
sS'scared'
p4005
I4027
sS'poop'
p4006
I2434
sS'hush'
p4007
I584
sS'frisbee'
p4008
I4177
sS'gymnastics'
p4009
I3101
sS'home'
p4010
I4032
sS'ballot'
p4011
I4033
sS'shrug'
p4012
I4034
sS'competitor'
p4013
I3142
sS'lead'
p4014
I3149
sS'rubik'
p4015
I4037
sS'broad'
p4016
I1304
sS'corpse'
p4017
I3365
sS'lean'
p4018
I4040
sS'thank'
p4019
I4041
sS'leap'
p4020
I4042
sS'cradle'
p4021
I3190
sS'passion'
p4022
I4044
sS'freezed'
p4023
I4045
sS'earrings'
p4024
I4046
sS'hysterically'
p4025
I662
sS'snuggle'
p4026
I4048
sS'skiier'
p4027
I3198
sS'ripped'
p4028
I3231
sS'noise'
p4029
I1313
sS'cymbol'
p4030
I4051
sS'midair'
p4031
I4052
sS'mitt'
p4032
I4053
sS'bowling'
p4033
I3994
sS'bouncily'
p4034
I4055
sS'host'
p4035
I4056
sS'spatula'
p4036
I3748
sS'choked'
p4037
I643
sS'llama'
p4038
I4058
sS'stage'
p4039
I4059
sS'plastic'
p4040
I4060
sS'about'
p4041
I4061
sS'engines'
p4042
I1007
sS'rioter'
p4043
I4063
sS'getting'
p4044
I1237
sS'column'
p4045
I4065
sS'tray'
p4046
I4066
sS'pu'
p4047
I2796
sS'jetski'
p4048
I4182
sS'bearded'
p4049
I4069
sS'camels'
p4050
I3400
sS'beige'
p4051
I1479
sS'jugglers'
p4052
I2797
sS'puppies'
p4053
I1495
sS'tongue'
p4054
I4073
sS'glasses'
p4055
I3508
sS'bandmate'
p4056
I4075
sS'swimming'
p4057
I4076
sS'individually'
p4058
I1397
sS'reptile'
p4059
I4078
sS'own'
p4060
I4079
sS'raquet'
p4061
I4080
sS'tag'
p4062
I4081
sS'socks'
p4063
I4082
sS'headphone'
p4064
I4083
sS'raquel'
p4065
I4084
sS'guard'
p4066
I4085
sS'square'
p4067
I1398
sS'erect'
p4068
I671
sS'female'
p4069
I4088
sS'secretive'
p4070
I4089
sS'blower'
p4071
I4090
sS'privates'
p4072
I4091
sS'jubilee'
p4073
I4092
sS'sabre'
p4074
I282
sS'gerbil'
p4075
I4094
sS'snowplow'
p4076
I4095
sS'transfer'
p4077
I4096
sS'buckle'
p4078
I772
sS'spiral'
p4079
I4098
sS'disapproval'
p4080
I3581
sS'bump'
p4081
I3512
sS'bees'
p4082
I4101
sS'inner'
p4083
I4102
sS'obstacle'
p4084
I2860
sS'pouty'
p4085
I4103
sS'drumstick'
p4086
I4104
sS'cliff'
p4087
I4105
sS'raft'
p4088
I2287
sS'pufferfish'
p4089
I4106
sS'footwork'
p4090
I4107
sS'stadium'
p4091
I4108
sS'unwrap'
p4092
I4109
sS'bus'
p4093
I4110
sS'coke'
p4094
I567
sS'glace'
p4095
I4112
sS'monk'
p4096
I4113
sS'weight'
p4097
I2461
sS'volume'
p4098
I2050
sS'widly'
p4099
I4116
sS'neutral'
p4100
I4117
sS'lowered'
p4101
I2746
sS'bun'
p4102
I4119
sS'gain'
p4103
I4120
sS'nut'
p4104
I3606
sS'bum'
p4105
I3697
sS'bookshelf'
p4106
I4122
sS'be'
p4107
I3013
sS'squeeze'
p4108
I3711
sS'eat'
p4109
I3718
sS'bud'
p4110
I4125
sS'partially'
p4111
I3726
sS'count'
p4112
I4127
sS'genitals'
p4113
I4128
sS'made'
p4114
I4129
sS'places'
p4115
I4130
sS'wife'
p4116
I4131
sS'smooth'
p4117
I4132
sS'yorkie'
p4118
I197
sS'distract'
p4119
I4134
sS'excitement'
p4120
I4135
sS'placed'
p4121
I3774
sS'carriage'
p4122
I700
sS'cello'
p4123
I4138
sS'fetch'
p4124
I3287
sS'cake'
p4125
I4140
sS'piece'
p4126
I4141
sS'broadly'
p4127
I4142
sS'display'
p4128
I4143
sS'skating'
p4129
I4144
sS'block'
p4130
I3037
sS'iphone'
p4131
I4145
sS'pin'
p4132
I4146
sS'curve'
p4133
I2801
sS'irritation'
p4134
I3520
sS'cigaratte'
p4135
I3861
sS'maroon'
p4136
I4151
sS'pig'
p4137
I4152
sS'twist'
p4138
I4153
sS'cap'
p4139
I4154
sS'referee'
p4140
I4155
sS'pip'
p4141
I3894
sS'shooting'
p4142
I3903
sS'pit'
p4143
I4158
sS'screarming'
p4144
I4159
sS'squirrel'
p4145
I2814
sS'spell'
p4146
I3918
sS'loud'
p4147
I4161
sS'radiantly'
p4148
I4194
sS'fencing'
p4149
I482
sS'guitarist'
p4150
I4164
sS'boot'
p4151
I4165
sS'bauble'
p4152
I4166
sS'burrow'
p4153
I2139
sS'tentacle'
p4154
I4168
sS'disguested'
p4155
I535
sS'stumps'
p4156
I157
sS'seatbelt'
p4157
I4171
sS'boob'
p4158
I4172
sS'ponytail'
p4159
I4173
sS'dresser'
p4160
I4174
sS'excitedly'
p4161
I3333
sS'earbud'
p4162
I4176
sS'repeat'
p4163
I4030
sS'star'
p4164
I4178
sS'worker'
p4165
I4179
sS'june'
p4166
I4180
sS'stay'
p4167
I4181
sS'foil'
p4168
I4068
sS'sandwhich'
p4169
I1448
sS'rural'
p4170
I4198
sS'unsmoked'
p4171
I4184
sS'skier'
p4172
I2846
sS'gap'
p4173
I4186
sS'veil'
p4174
I617
sS'vein'
p4175
I4188
sS'opened'
p4176
I1419
sS'ghost'
p4177
I4190
sS'droplet'
p4178
I4191
sS'balcony'
p4179
I4160
sS'baker'
p4180
I4192
sS'jab'
p4181
I4193
sS'cigarrette'
p4182
I3530
sS'portion'
p4183
I4195
sS'pupil'
p4184
I4196
sS'dominoes'
p4185
I4197
sS'sleeves'
p4186
I1669
sS'yell'
p4187
I4199
sS'parrot'
p4188
I4200
s.